
C:/Users/a.faizullin/Desktop/PrimeriVoronezh/K1921BK035/niietcm4-k1921vkx_sdk-45893dd9ab5d/projects/NIIET-BB-K1921VK035/blinky/GCC/build/blinky.elf:     file format elf32-littlearm


Disassembly of section .text:

00000000 <__isr_vector>:
       0:	20004000 			@ <UNDEFINED> instruction: 20004000
       4:	00000c59 			@ <UNDEFINED> instruction: 00000c59
       8:	00000ca9 			@ <UNDEFINED> instruction: 00000ca9
       c:	00000ca9 			@ <UNDEFINED> instruction: 00000ca9
      10:	00000ca9 			@ <UNDEFINED> instruction: 00000ca9
      14:	00000ca9 			@ <UNDEFINED> instruction: 00000ca9
      18:	00000ca9 			@ <UNDEFINED> instruction: 00000ca9
	...
      2c:	00000ca9 			@ <UNDEFINED> instruction: 00000ca9
      30:	00000ca9 			@ <UNDEFINED> instruction: 00000ca9
      34:	00000000 			@ <UNDEFINED> instruction: 00000000
      38:	00000ca9 			@ <UNDEFINED> instruction: 00000ca9
      3c:	00000885 			@ <UNDEFINED> instruction: 00000885
      40:	00000ca9 			@ <UNDEFINED> instruction: 00000ca9
      44:	00000ca9 			@ <UNDEFINED> instruction: 00000ca9
      48:	00000ca9 			@ <UNDEFINED> instruction: 00000ca9
      4c:	00000965 			@ <UNDEFINED> instruction: 00000965
      50:	00000ca9 			@ <UNDEFINED> instruction: 00000ca9
      54:	00000ca9 			@ <UNDEFINED> instruction: 00000ca9
      58:	00000ca9 			@ <UNDEFINED> instruction: 00000ca9
      5c:	00000ca9 			@ <UNDEFINED> instruction: 00000ca9
      60:	00000ca9 			@ <UNDEFINED> instruction: 00000ca9
      64:	00000ca9 			@ <UNDEFINED> instruction: 00000ca9
      68:	00000ca9 			@ <UNDEFINED> instruction: 00000ca9
      6c:	00000ca9 			@ <UNDEFINED> instruction: 00000ca9
      70:	00000ca9 			@ <UNDEFINED> instruction: 00000ca9
      74:	00000ca9 			@ <UNDEFINED> instruction: 00000ca9
      78:	00000ca9 			@ <UNDEFINED> instruction: 00000ca9
      7c:	00000ca9 			@ <UNDEFINED> instruction: 00000ca9
      80:	00000ca9 			@ <UNDEFINED> instruction: 00000ca9
      84:	00000ca9 			@ <UNDEFINED> instruction: 00000ca9
      88:	00000ca9 			@ <UNDEFINED> instruction: 00000ca9
      8c:	00000ca9 			@ <UNDEFINED> instruction: 00000ca9
      90:	00000ca9 			@ <UNDEFINED> instruction: 00000ca9
      94:	00000ca9 			@ <UNDEFINED> instruction: 00000ca9
      98:	00000ca9 			@ <UNDEFINED> instruction: 00000ca9
      9c:	00000ca9 			@ <UNDEFINED> instruction: 00000ca9
      a0:	00000ca9 			@ <UNDEFINED> instruction: 00000ca9
      a4:	00000ca9 			@ <UNDEFINED> instruction: 00000ca9
      a8:	00000b5d 			@ <UNDEFINED> instruction: 00000b5d
      ac:	00000ca9 			@ <UNDEFINED> instruction: 00000ca9
      b0:	00000ca9 			@ <UNDEFINED> instruction: 00000ca9
      b4:	00000ca9 			@ <UNDEFINED> instruction: 00000ca9
      b8:	00000ca9 			@ <UNDEFINED> instruction: 00000ca9
      bc:	00000ca9 			@ <UNDEFINED> instruction: 00000ca9
      c0:	00000ca9 			@ <UNDEFINED> instruction: 00000ca9
      c4:	00000ca9 			@ <UNDEFINED> instruction: 00000ca9
      c8:	00000ca9 			@ <UNDEFINED> instruction: 00000ca9
      cc:	00000ca9 			@ <UNDEFINED> instruction: 00000ca9
      d0:	00000ca9 			@ <UNDEFINED> instruction: 00000ca9
      d4:	00000ca9 			@ <UNDEFINED> instruction: 00000ca9
      d8:	00000ca9 			@ <UNDEFINED> instruction: 00000ca9
      dc:	00000ca9 			@ <UNDEFINED> instruction: 00000ca9
      e0:	00000ca9 			@ <UNDEFINED> instruction: 00000ca9
      e4:	00000ca9 			@ <UNDEFINED> instruction: 00000ca9
      e8:	00000ca9 			@ <UNDEFINED> instruction: 00000ca9
      ec:	00000ca9 			@ <UNDEFINED> instruction: 00000ca9
      f0:	00000ca9 			@ <UNDEFINED> instruction: 00000ca9
      f4:	00000ca9 			@ <UNDEFINED> instruction: 00000ca9
      f8:	00000ca9 			@ <UNDEFINED> instruction: 00000ca9
      fc:	00000ca9 			@ <UNDEFINED> instruction: 00000ca9
     100:	00000ca9 			@ <UNDEFINED> instruction: 00000ca9
     104:	00000ca9 			@ <UNDEFINED> instruction: 00000ca9
     108:	00000ca9 			@ <UNDEFINED> instruction: 00000ca9
     10c:	00000ca9 			@ <UNDEFINED> instruction: 00000ca9
     110:	00000ca9 			@ <UNDEFINED> instruction: 00000ca9
     114:	00000ca9 			@ <UNDEFINED> instruction: 00000ca9
     118:	00000ca9 			@ <UNDEFINED> instruction: 00000ca9
     11c:	00000ca9 			@ <UNDEFINED> instruction: 00000ca9
     120:	00000ca9 			@ <UNDEFINED> instruction: 00000ca9
     124:	00000ca9 			@ <UNDEFINED> instruction: 00000ca9
     128:	00000ca9 			@ <UNDEFINED> instruction: 00000ca9
     12c:	00000ca9 			@ <UNDEFINED> instruction: 00000ca9
     130:	00000ca9 			@ <UNDEFINED> instruction: 00000ca9
     134:	00000ca9 			@ <UNDEFINED> instruction: 00000ca9
     138:	00000ca9 			@ <UNDEFINED> instruction: 00000ca9
     13c:	00000ca9 			@ <UNDEFINED> instruction: 00000ca9
     140:	00000ca9 			@ <UNDEFINED> instruction: 00000ca9
     144:	00000ca9 			@ <UNDEFINED> instruction: 00000ca9
     148:	00000ca9 			@ <UNDEFINED> instruction: 00000ca9
     14c:	00000ca9 			@ <UNDEFINED> instruction: 00000ca9
     150:	00000ca9 			@ <UNDEFINED> instruction: 00000ca9
     154:	00000ca9 			@ <UNDEFINED> instruction: 00000ca9

00000158 <__do_global_dtors_aux>:
     158:	b510      	push	{r4, lr}
     15a:	4c05      	ldr	r4, [pc, #20]	@ (170 <__do_global_dtors_aux+0x18>)
     15c:	7823      	ldrb	r3, [r4, #0]
     15e:	b933      	cbnz	r3, 16e <__do_global_dtors_aux+0x16>
     160:	4b04      	ldr	r3, [pc, #16]	@ (174 <__do_global_dtors_aux+0x1c>)
     162:	b113      	cbz	r3, 16a <__do_global_dtors_aux+0x12>
     164:	4804      	ldr	r0, [pc, #16]	@ (178 <__do_global_dtors_aux+0x20>)
     166:	f3af 8000 	nop.w
     16a:	2301      	movs	r3, #1
     16c:	7023      	strb	r3, [r4, #0]
     16e:	bd10      	pop	{r4, pc}
     170:	2000004c 			@ <UNDEFINED> instruction: 2000004c
     174:	00000000 			@ <UNDEFINED> instruction: 00000000
     178:	00001174 			@ <UNDEFINED> instruction: 00001174

0000017c <frame_dummy>:
     17c:	b508      	push	{r3, lr}
     17e:	4b03      	ldr	r3, [pc, #12]	@ (18c <frame_dummy+0x10>)
     180:	b11b      	cbz	r3, 18a <frame_dummy+0xe>
     182:	4903      	ldr	r1, [pc, #12]	@ (190 <frame_dummy+0x14>)
     184:	4803      	ldr	r0, [pc, #12]	@ (194 <frame_dummy+0x18>)
     186:	f3af 8000 	nop.w
     18a:	bd08      	pop	{r3, pc}
     18c:	00000000 			@ <UNDEFINED> instruction: 00000000
     190:	20000050 			@ <UNDEFINED> instruction: 20000050
     194:	00001174 			@ <UNDEFINED> instruction: 00001174

00000198 <_stack_init>:
     198:	f5a3 3a80 	sub.w	sl, r3, #65536	@ 0x10000
     19c:	4770      	bx	lr
     19e:	bf00      	nop

000001a0 <_mainCRTStartup>:
     1a0:	4b15      	ldr	r3, [pc, #84]	@ (1f8 <_mainCRTStartup+0x58>)
     1a2:	2b00      	cmp	r3, #0
     1a4:	bf08      	it	eq
     1a6:	4b11      	ldreq	r3, [pc, #68]	@ (1ec <_mainCRTStartup+0x4c>)
     1a8:	469d      	mov	sp, r3
     1aa:	f7ff fff5 	bl	198 <_stack_init>
     1ae:	2100      	movs	r1, #0
     1b0:	468b      	mov	fp, r1
     1b2:	460f      	mov	r7, r1
     1b4:	4811      	ldr	r0, [pc, #68]	@ (1fc <_mainCRTStartup+0x5c>)
     1b6:	4a12      	ldr	r2, [pc, #72]	@ (200 <_mainCRTStartup+0x60>)
     1b8:	1a12      	subs	r2, r2, r0
     1ba:	f000 f83d 	bl	238 <memset>
     1be:	4b0c      	ldr	r3, [pc, #48]	@ (1f0 <_mainCRTStartup+0x50>)
     1c0:	2b00      	cmp	r3, #0
     1c2:	d000      	beq.n	1c6 <_mainCRTStartup+0x26>
     1c4:	4798      	blx	r3
     1c6:	4b0b      	ldr	r3, [pc, #44]	@ (1f4 <_mainCRTStartup+0x54>)
     1c8:	2b00      	cmp	r3, #0
     1ca:	d000      	beq.n	1ce <_mainCRTStartup+0x2e>
     1cc:	4798      	blx	r3
     1ce:	2000      	movs	r0, #0
     1d0:	2100      	movs	r1, #0
     1d2:	0004      	movs	r4, r0
     1d4:	000d      	movs	r5, r1
     1d6:	480b      	ldr	r0, [pc, #44]	@ (204 <_mainCRTStartup+0x64>)
     1d8:	f000 f816 	bl	208 <atexit>
     1dc:	f000 f87e 	bl	2dc <__libc_init_array>
     1e0:	0020      	movs	r0, r4
     1e2:	0029      	movs	r1, r5
     1e4:	f000 fb04 	bl	7f0 <main>
     1e8:	f000 f814 	bl	214 <exit>
     1ec:	00080000 			@ <UNDEFINED> instruction: 00080000
	...
     1f8:	20004000 			@ <UNDEFINED> instruction: 20004000
     1fc:	2000004c 			@ <UNDEFINED> instruction: 2000004c
     200:	20000360 			@ <UNDEFINED> instruction: 20000360
     204:	0000032d 			@ <UNDEFINED> instruction: 0000032d

00000208 <atexit>:
     208:	2300      	movs	r3, #0
     20a:	4601      	mov	r1, r0
     20c:	461a      	mov	r2, r3
     20e:	4618      	mov	r0, r3
     210:	f000 b8b4 	b.w	37c <__register_exitproc>

00000214 <exit>:
     214:	b508      	push	{r3, lr}
     216:	4b06      	ldr	r3, [pc, #24]	@ (230 <exit+0x1c>)
     218:	4604      	mov	r4, r0
     21a:	b113      	cbz	r3, 222 <exit+0xe>
     21c:	2100      	movs	r1, #0
     21e:	f000 f90b 	bl	438 <__call_exitprocs>
     222:	4b04      	ldr	r3, [pc, #16]	@ (234 <exit+0x20>)
     224:	681b      	ldr	r3, [r3, #0]
     226:	b103      	cbz	r3, 22a <exit+0x16>
     228:	4798      	blx	r3
     22a:	4620      	mov	r0, r4
     22c:	f000 ff94 	bl	1158 <_exit>
     230:	00000439 			@ <UNDEFINED> instruction: 00000439
     234:	200001a0 			@ <UNDEFINED> instruction: 200001a0

00000238 <memset>:
     238:	0783      	lsls	r3, r0, #30
     23a:	b530      	push	{r4, r5, lr}
     23c:	d047      	beq.n	2ce <memset+0x96>
     23e:	1e54      	subs	r4, r2, #1
     240:	2a00      	cmp	r2, #0
     242:	d03e      	beq.n	2c2 <memset+0x8a>
     244:	b2ca      	uxtb	r2, r1
     246:	4603      	mov	r3, r0
     248:	e001      	b.n	24e <memset+0x16>
     24a:	3c01      	subs	r4, #1
     24c:	d339      	bcc.n	2c2 <memset+0x8a>
     24e:	f803 2b01 	strb.w	r2, [r3], #1
     252:	079d      	lsls	r5, r3, #30
     254:	d1f9      	bne.n	24a <memset+0x12>
     256:	2c03      	cmp	r4, #3
     258:	d92c      	bls.n	2b4 <memset+0x7c>
     25a:	b2cd      	uxtb	r5, r1
     25c:	eb05 2505 	add.w	r5, r5, r5, lsl #8
     260:	2c0f      	cmp	r4, #15
     262:	eb05 4505 	add.w	r5, r5, r5, lsl #16
     266:	d935      	bls.n	2d4 <memset+0x9c>
     268:	f1a4 0210 	sub.w	r2, r4, #16
     26c:	f022 0c0f 	bic.w	ip, r2, #15
     270:	f103 0e10 	add.w	lr, r3, #16
     274:	44e6      	add	lr, ip
     276:	ea4f 1c12 	mov.w	ip, r2, lsr #4
     27a:	461a      	mov	r2, r3
     27c:	e9c2 5500 	strd	r5, r5, [r2]
     280:	e9c2 5502 	strd	r5, r5, [r2, #8]
     284:	3210      	adds	r2, #16
     286:	4572      	cmp	r2, lr
     288:	d1f8      	bne.n	27c <memset+0x44>
     28a:	f10c 0201 	add.w	r2, ip, #1
     28e:	f014 0f0c 	tst.w	r4, #12
     292:	eb03 1202 	add.w	r2, r3, r2, lsl #4
     296:	f004 0c0f 	and.w	ip, r4, #15
     29a:	d013      	beq.n	2c4 <memset+0x8c>
     29c:	f1ac 0304 	sub.w	r3, ip, #4
     2a0:	f023 0303 	bic.w	r3, r3, #3
     2a4:	3304      	adds	r3, #4
     2a6:	4413      	add	r3, r2
     2a8:	f842 5b04 	str.w	r5, [r2], #4
     2ac:	4293      	cmp	r3, r2
     2ae:	d1fb      	bne.n	2a8 <memset+0x70>
     2b0:	f00c 0403 	and.w	r4, ip, #3
     2b4:	b12c      	cbz	r4, 2c2 <memset+0x8a>
     2b6:	b2c9      	uxtb	r1, r1
     2b8:	441c      	add	r4, r3
     2ba:	f803 1b01 	strb.w	r1, [r3], #1
     2be:	42a3      	cmp	r3, r4
     2c0:	d1fb      	bne.n	2ba <memset+0x82>
     2c2:	bd30      	pop	{r4, r5, pc}
     2c4:	4664      	mov	r4, ip
     2c6:	4613      	mov	r3, r2
     2c8:	2c00      	cmp	r4, #0
     2ca:	d1f4      	bne.n	2b6 <memset+0x7e>
     2cc:	e7f9      	b.n	2c2 <memset+0x8a>
     2ce:	4603      	mov	r3, r0
     2d0:	4614      	mov	r4, r2
     2d2:	e7c0      	b.n	256 <memset+0x1e>
     2d4:	461a      	mov	r2, r3
     2d6:	46a4      	mov	ip, r4
     2d8:	e7e0      	b.n	29c <memset+0x64>
     2da:	bf00      	nop

000002dc <__libc_init_array>:
     2dc:	b570      	push	{r4, r5, r6, lr}
     2de:	4b0f      	ldr	r3, [pc, #60]	@ (31c <__libc_init_array+0x40>)
     2e0:	4d0f      	ldr	r5, [pc, #60]	@ (320 <__libc_init_array+0x44>)
     2e2:	42ab      	cmp	r3, r5
     2e4:	eba3 0605 	sub.w	r6, r3, r5
     2e8:	d007      	beq.n	2fa <__libc_init_array+0x1e>
     2ea:	10b6      	asrs	r6, r6, #2
     2ec:	2400      	movs	r4, #0
     2ee:	f855 3b04 	ldr.w	r3, [r5], #4
     2f2:	3401      	adds	r4, #1
     2f4:	4798      	blx	r3
     2f6:	42a6      	cmp	r6, r4
     2f8:	d8f9      	bhi.n	2ee <__libc_init_array+0x12>
     2fa:	f000 ff2f 	bl	115c <_init>
     2fe:	4d09      	ldr	r5, [pc, #36]	@ (324 <__libc_init_array+0x48>)
     300:	4b09      	ldr	r3, [pc, #36]	@ (328 <__libc_init_array+0x4c>)
     302:	1b5e      	subs	r6, r3, r5
     304:	42ab      	cmp	r3, r5
     306:	ea4f 06a6 	mov.w	r6, r6, asr #2
     30a:	d006      	beq.n	31a <__libc_init_array+0x3e>
     30c:	2400      	movs	r4, #0
     30e:	f855 3b04 	ldr.w	r3, [r5], #4
     312:	3401      	adds	r4, #1
     314:	4798      	blx	r3
     316:	42a6      	cmp	r6, r4
     318:	d8f9      	bhi.n	30e <__libc_init_array+0x32>
     31a:	bd70      	pop	{r4, r5, r6, pc}
     31c:	20000044 			@ <UNDEFINED> instruction: 20000044
     320:	20000044 			@ <UNDEFINED> instruction: 20000044
     324:	20000044 			@ <UNDEFINED> instruction: 20000044
     328:	20000048 			@ <UNDEFINED> instruction: 20000048

0000032c <__libc_fini_array>:
     32c:	b538      	push	{r3, r4, r5, lr}
     32e:	4d07      	ldr	r5, [pc, #28]	@ (34c <__libc_fini_array+0x20>)
     330:	4c07      	ldr	r4, [pc, #28]	@ (350 <__libc_fini_array+0x24>)
     332:	1b2c      	subs	r4, r5, r4
     334:	10a4      	asrs	r4, r4, #2
     336:	d005      	beq.n	344 <__libc_fini_array+0x18>
     338:	3c01      	subs	r4, #1
     33a:	f855 3d04 	ldr.w	r3, [r5, #-4]!
     33e:	4798      	blx	r3
     340:	2c00      	cmp	r4, #0
     342:	d1f9      	bne.n	338 <__libc_fini_array+0xc>
     344:	e8bd 4038 	ldmia.w	sp!, {r3, r4, r5, lr}
     348:	f000 bf0e 	b.w	1168 <_fini>
     34c:	2000004c 			@ <UNDEFINED> instruction: 2000004c
     350:	20000048 			@ <UNDEFINED> instruction: 20000048

00000354 <__retarget_lock_init>:
     354:	4770      	bx	lr
     356:	bf00      	nop

00000358 <__retarget_lock_init_recursive>:
     358:	4770      	bx	lr
     35a:	bf00      	nop

0000035c <__retarget_lock_close>:
     35c:	4770      	bx	lr
     35e:	bf00      	nop

00000360 <__retarget_lock_close_recursive>:
     360:	4770      	bx	lr
     362:	bf00      	nop

00000364 <__retarget_lock_acquire>:
     364:	4770      	bx	lr
     366:	bf00      	nop

00000368 <__retarget_lock_acquire_recursive>:
     368:	4770      	bx	lr
     36a:	bf00      	nop

0000036c <__retarget_lock_try_acquire>:
     36c:	2001      	movs	r0, #1
     36e:	4770      	bx	lr

00000370 <__retarget_lock_try_acquire_recursive>:
     370:	2001      	movs	r0, #1
     372:	4770      	bx	lr

00000374 <__retarget_lock_release>:
     374:	4770      	bx	lr
     376:	bf00      	nop

00000378 <__retarget_lock_release_recursive>:
     378:	4770      	bx	lr
     37a:	bf00      	nop

0000037c <__register_exitproc>:
     37c:	e92d 4df0 	stmdb	sp!, {r4, r5, r6, r7, r8, sl, fp, lr}
     380:	f8df a0b0 	ldr.w	sl, [pc, #176]	@ 434 <__register_exitproc+0xb8>
     384:	4607      	mov	r7, r0
     386:	f8da 0000 	ldr.w	r0, [sl]
     38a:	461e      	mov	r6, r3
     38c:	4688      	mov	r8, r1
     38e:	4693      	mov	fp, r2
     390:	f7ff ffea 	bl	368 <__retarget_lock_acquire_recursive>
     394:	4b23      	ldr	r3, [pc, #140]	@ (424 <__register_exitproc+0xa8>)
     396:	681d      	ldr	r5, [r3, #0]
     398:	b335      	cbz	r5, 3e8 <__register_exitproc+0x6c>
     39a:	686c      	ldr	r4, [r5, #4]
     39c:	2c1f      	cmp	r4, #31
     39e:	dc3a      	bgt.n	416 <__register_exitproc+0x9a>
     3a0:	b1b7      	cbz	r7, 3d0 <__register_exitproc+0x54>
     3a2:	f8d5 0088 	ldr.w	r0, [r5, #136]	@ 0x88
     3a6:	b340      	cbz	r0, 3fa <__register_exitproc+0x7e>
     3a8:	f8d0 3100 	ldr.w	r3, [r0, #256]	@ 0x100
     3ac:	f840 b024 	str.w	fp, [r0, r4, lsl #2]
     3b0:	2201      	movs	r2, #1
     3b2:	40a2      	lsls	r2, r4
     3b4:	4313      	orrs	r3, r2
     3b6:	f8c0 3100 	str.w	r3, [r0, #256]	@ 0x100
     3ba:	eb00 0384 	add.w	r3, r0, r4, lsl #2
     3be:	2f02      	cmp	r7, #2
     3c0:	f8c3 6080 	str.w	r6, [r3, #128]	@ 0x80
     3c4:	d104      	bne.n	3d0 <__register_exitproc+0x54>
     3c6:	f8d0 3104 	ldr.w	r3, [r0, #260]	@ 0x104
     3ca:	4313      	orrs	r3, r2
     3cc:	f8c0 3104 	str.w	r3, [r0, #260]	@ 0x104
     3d0:	1c63      	adds	r3, r4, #1
     3d2:	3402      	adds	r4, #2
     3d4:	f8da 0000 	ldr.w	r0, [sl]
     3d8:	606b      	str	r3, [r5, #4]
     3da:	f845 8024 	str.w	r8, [r5, r4, lsl #2]
     3de:	f7ff ffcb 	bl	378 <__retarget_lock_release_recursive>
     3e2:	2000      	movs	r0, #0
     3e4:	e8bd 8df0 	ldmia.w	sp!, {r4, r5, r6, r7, r8, sl, fp, pc}
     3e8:	490f      	ldr	r1, [pc, #60]	@ (428 <__register_exitproc+0xac>)
     3ea:	4a10      	ldr	r2, [pc, #64]	@ (42c <__register_exitproc+0xb0>)
     3ec:	601a      	str	r2, [r3, #0]
     3ee:	b111      	cbz	r1, 3f6 <__register_exitproc+0x7a>
     3f0:	680b      	ldr	r3, [r1, #0]
     3f2:	f8c2 3088 	str.w	r3, [r2, #136]	@ 0x88
     3f6:	4d0d      	ldr	r5, [pc, #52]	@ (42c <__register_exitproc+0xb0>)
     3f8:	e7cf      	b.n	39a <__register_exitproc+0x1e>
     3fa:	4b0d      	ldr	r3, [pc, #52]	@ (430 <__register_exitproc+0xb4>)
     3fc:	b15b      	cbz	r3, 416 <__register_exitproc+0x9a>
     3fe:	f44f 7084 	mov.w	r0, #264	@ 0x108
     402:	f3af 8000 	nop.w
     406:	b130      	cbz	r0, 416 <__register_exitproc+0x9a>
     408:	2300      	movs	r3, #0
     40a:	e9c0 3340 	strd	r3, r3, [r0, #256]	@ 0x100
     40e:	686c      	ldr	r4, [r5, #4]
     410:	f8c5 0088 	str.w	r0, [r5, #136]	@ 0x88
     414:	e7ca      	b.n	3ac <__register_exitproc+0x30>
     416:	f8da 0000 	ldr.w	r0, [sl]
     41a:	f7ff ffad 	bl	378 <__retarget_lock_release_recursive>
     41e:	f04f 30ff 	mov.w	r0, #4294967295
     422:	e7df      	b.n	3e4 <__register_exitproc+0x68>
     424:	20000250 			@ <UNDEFINED> instruction: 20000250
     428:	00000000 			@ <UNDEFINED> instruction: 00000000
     42c:	200001c4 			@ <UNDEFINED> instruction: 200001c4
     430:	00000000 			@ <UNDEFINED> instruction: 00000000
     434:	20000000 			@ <UNDEFINED> instruction: 20000000

00000438 <__call_exitprocs>:
     438:	e92d 4ff0 	stmdb	sp!, {r4, r5, r6, r7, r8, r9, sl, fp, lr}
     43c:	4a32      	ldr	r2, [pc, #200]	@ (508 <__call_exitprocs+0xd0>)
     43e:	f8df 90cc 	ldr.w	r9, [pc, #204]	@ 50c <__call_exitprocs+0xd4>
     442:	b083      	sub	sp, #12
     444:	4603      	mov	r3, r0
     446:	6810      	ldr	r0, [r2, #0]
     448:	9301      	str	r3, [sp, #4]
     44a:	4688      	mov	r8, r1
     44c:	f7ff ff8c 	bl	368 <__retarget_lock_acquire_recursive>
     450:	f8d9 6000 	ldr.w	r6, [r9]
     454:	2e00      	cmp	r6, #0
     456:	d032      	beq.n	4be <__call_exitprocs+0x86>
     458:	6875      	ldr	r5, [r6, #4]
     45a:	f8d6 7088 	ldr.w	r7, [r6, #136]	@ 0x88
     45e:	1e6c      	subs	r4, r5, #1
     460:	d42d      	bmi.n	4be <__call_exitprocs+0x86>
     462:	3501      	adds	r5, #1
     464:	eb06 0585 	add.w	r5, r6, r5, lsl #2
     468:	f107 0b80 	add.w	fp, r7, #128	@ 0x80
     46c:	f1b8 0f00 	cmp.w	r8, #0
     470:	d12c      	bne.n	4cc <__call_exitprocs+0x94>
     472:	6873      	ldr	r3, [r6, #4]
     474:	682a      	ldr	r2, [r5, #0]
     476:	3b01      	subs	r3, #1
     478:	42a3      	cmp	r3, r4
     47a:	bf16      	itet	ne
     47c:	2300      	movne	r3, #0
     47e:	6074      	streq	r4, [r6, #4]
     480:	602b      	strne	r3, [r5, #0]
     482:	b1ba      	cbz	r2, 4b4 <__call_exitprocs+0x7c>
     484:	f8d6 a004 	ldr.w	sl, [r6, #4]
     488:	b38f      	cbz	r7, 4ee <__call_exitprocs+0xb6>
     48a:	f8d7 1100 	ldr.w	r1, [r7, #256]	@ 0x100
     48e:	2301      	movs	r3, #1
     490:	40a3      	lsls	r3, r4
     492:	420b      	tst	r3, r1
     494:	d02b      	beq.n	4ee <__call_exitprocs+0xb6>
     496:	f8d7 0104 	ldr.w	r0, [r7, #260]	@ 0x104
     49a:	f857 1024 	ldr.w	r1, [r7, r4, lsl #2]
     49e:	4203      	tst	r3, r0
     4a0:	d12f      	bne.n	502 <__call_exitprocs+0xca>
     4a2:	9801      	ldr	r0, [sp, #4]
     4a4:	4790      	blx	r2
     4a6:	6873      	ldr	r3, [r6, #4]
     4a8:	f8d9 2000 	ldr.w	r2, [r9]
     4ac:	4553      	cmp	r3, sl
     4ae:	d124      	bne.n	4fa <__call_exitprocs+0xc2>
     4b0:	42b2      	cmp	r2, r6
     4b2:	d122      	bne.n	4fa <__call_exitprocs+0xc2>
     4b4:	3c01      	subs	r4, #1
     4b6:	1c63      	adds	r3, r4, #1
     4b8:	f1a5 0504 	sub.w	r5, r5, #4
     4bc:	d1d6      	bne.n	46c <__call_exitprocs+0x34>
     4be:	4b12      	ldr	r3, [pc, #72]	@ (508 <__call_exitprocs+0xd0>)
     4c0:	6818      	ldr	r0, [r3, #0]
     4c2:	b003      	add	sp, #12
     4c4:	e8bd 4ff0 	ldmia.w	sp!, {r4, r5, r6, r7, r8, r9, sl, fp, lr}
     4c8:	f7ff bf56 	b.w	378 <__retarget_lock_release_recursive>
     4cc:	b157      	cbz	r7, 4e4 <__call_exitprocs+0xac>
     4ce:	f85b 3024 	ldr.w	r3, [fp, r4, lsl #2]
     4d2:	4543      	cmp	r3, r8
     4d4:	d0cd      	beq.n	472 <__call_exitprocs+0x3a>
     4d6:	3c01      	subs	r4, #1
     4d8:	1c62      	adds	r2, r4, #1
     4da:	f1a5 0504 	sub.w	r5, r5, #4
     4de:	d0ee      	beq.n	4be <__call_exitprocs+0x86>
     4e0:	2f00      	cmp	r7, #0
     4e2:	d1f4      	bne.n	4ce <__call_exitprocs+0x96>
     4e4:	3c01      	subs	r4, #1
     4e6:	d3ea      	bcc.n	4be <__call_exitprocs+0x86>
     4e8:	3c01      	subs	r4, #1
     4ea:	d2fb      	bcs.n	4e4 <__call_exitprocs+0xac>
     4ec:	e7e7      	b.n	4be <__call_exitprocs+0x86>
     4ee:	4790      	blx	r2
     4f0:	6873      	ldr	r3, [r6, #4]
     4f2:	f8d9 2000 	ldr.w	r2, [r9]
     4f6:	4553      	cmp	r3, sl
     4f8:	d0da      	beq.n	4b0 <__call_exitprocs+0x78>
     4fa:	2a00      	cmp	r2, #0
     4fc:	d0df      	beq.n	4be <__call_exitprocs+0x86>
     4fe:	4616      	mov	r6, r2
     500:	e7aa      	b.n	458 <__call_exitprocs+0x20>
     502:	4608      	mov	r0, r1
     504:	4790      	blx	r2
     506:	e7ce      	b.n	4a6 <__call_exitprocs+0x6e>
     508:	20000000 			@ <UNDEFINED> instruction: 20000000
     50c:	20000250 			@ <UNDEFINED> instruction: 20000250

00000510 <SystemCoreClockUpdate>:
     510:	b480      	push	{r7}
     512:	b087      	sub	sp, #28
     514:	af00      	add	r7, sp, #0
     516:	2301      	movs	r3, #1
     518:	613b      	str	r3, [r7, #16]
     51a:	4b2c      	ldr	r3, [pc, #176]	@ (5cc <SystemCoreClockUpdate+0xbc>)
     51c:	695b      	ldr	r3, [r3, #20]
     51e:	f3c3 0301 	ubfx	r3, r3, #0, #2
     522:	b2db      	uxtb	r3, r3
     524:	60fb      	str	r3, [r7, #12]
     526:	68fb      	ldr	r3, [r7, #12]
     528:	2b03      	cmp	r3, #3
     52a:	d849      	bhi.n	5c0 <SystemCoreClockUpdate+0xb0>
     52c:	68fb      	ldr	r3, [r7, #12]
     52e:	2b02      	cmp	r3, #2
     530:	d20e      	bcs.n	550 <SystemCoreClockUpdate+0x40>
     532:	68fb      	ldr	r3, [r7, #12]
     534:	2b00      	cmp	r3, #0
     536:	d003      	beq.n	540 <SystemCoreClockUpdate+0x30>
     538:	68fb      	ldr	r3, [r7, #12]
     53a:	2b01      	cmp	r3, #1
     53c:	d004      	beq.n	548 <SystemCoreClockUpdate+0x38>
     53e:	e03f      	b.n	5c0 <SystemCoreClockUpdate+0xb0>
     540:	4b23      	ldr	r3, [pc, #140]	@ (5d0 <SystemCoreClockUpdate+0xc0>)
     542:	4a24      	ldr	r2, [pc, #144]	@ (5d4 <SystemCoreClockUpdate+0xc4>)
     544:	601a      	str	r2, [r3, #0]
     546:	e03b      	b.n	5c0 <SystemCoreClockUpdate+0xb0>
     548:	4b21      	ldr	r3, [pc, #132]	@ (5d0 <SystemCoreClockUpdate+0xc0>)
     54a:	4a23      	ldr	r2, [pc, #140]	@ (5d8 <SystemCoreClockUpdate+0xc8>)
     54c:	601a      	str	r2, [r3, #0]
     54e:	e037      	b.n	5c0 <SystemCoreClockUpdate+0xb0>
     550:	68fb      	ldr	r3, [r7, #12]
     552:	2b03      	cmp	r3, #3
     554:	d106      	bne.n	564 <SystemCoreClockUpdate+0x54>
     556:	4b1d      	ldr	r3, [pc, #116]	@ (5cc <SystemCoreClockUpdate+0xbc>)
     558:	68db      	ldr	r3, [r3, #12]
     55a:	f3c3 2305 	ubfx	r3, r3, #8, #6
     55e:	b2db      	uxtb	r3, r3
     560:	3301      	adds	r3, #1
     562:	613b      	str	r3, [r7, #16]
     564:	4b19      	ldr	r3, [pc, #100]	@ (5cc <SystemCoreClockUpdate+0xbc>)
     566:	689b      	ldr	r3, [r3, #8]
     568:	f3c3 2305 	ubfx	r3, r3, #8, #6
     56c:	b2db      	uxtb	r3, r3
     56e:	60bb      	str	r3, [r7, #8]
     570:	4b16      	ldr	r3, [pc, #88]	@ (5cc <SystemCoreClockUpdate+0xbc>)
     572:	689b      	ldr	r3, [r3, #8]
     574:	f3c3 0305 	ubfx	r3, r3, #0, #6
     578:	b2db      	uxtb	r3, r3
     57a:	607b      	str	r3, [r7, #4]
     57c:	4b13      	ldr	r3, [pc, #76]	@ (5cc <SystemCoreClockUpdate+0xbc>)
     57e:	689b      	ldr	r3, [r3, #8]
     580:	f3c3 4301 	ubfx	r3, r3, #16, #2
     584:	b2db      	uxtb	r3, r3
     586:	603b      	str	r3, [r7, #0]
     588:	4b10      	ldr	r3, [pc, #64]	@ (5cc <SystemCoreClockUpdate+0xbc>)
     58a:	689b      	ldr	r3, [r3, #8]
     58c:	f3c3 5300 	ubfx	r3, r3, #20, #1
     590:	b2db      	uxtb	r3, r3
     592:	2b01      	cmp	r3, #1
     594:	d102      	bne.n	59c <SystemCoreClockUpdate+0x8c>
     596:	4b0f      	ldr	r3, [pc, #60]	@ (5d4 <SystemCoreClockUpdate+0xc4>)
     598:	617b      	str	r3, [r7, #20]
     59a:	e001      	b.n	5a0 <SystemCoreClockUpdate+0x90>
     59c:	4b0e      	ldr	r3, [pc, #56]	@ (5d8 <SystemCoreClockUpdate+0xc8>)
     59e:	617b      	str	r3, [r7, #20]
     5a0:	697b      	ldr	r3, [r7, #20]
     5a2:	687a      	ldr	r2, [r7, #4]
     5a4:	fb03 f202 	mul.w	r2, r3, r2
     5a8:	68b9      	ldr	r1, [r7, #8]
     5aa:	683b      	ldr	r3, [r7, #0]
     5ac:	fa01 f303 	lsl.w	r3, r1, r3
     5b0:	6939      	ldr	r1, [r7, #16]
     5b2:	fb01 f303 	mul.w	r3, r1, r3
     5b6:	fbb2 f3f3 	udiv	r3, r2, r3
     5ba:	4a05      	ldr	r2, [pc, #20]	@ (5d0 <SystemCoreClockUpdate+0xc0>)
     5bc:	6013      	str	r3, [r2, #0]
     5be:	bf00      	nop
     5c0:	bf00      	nop
     5c2:	371c      	adds	r7, #28
     5c4:	46bd      	mov	sp, r7
     5c6:	f85d 7b04 	ldr.w	r7, [sp], #4
     5ca:	4770      	bx	lr
     5cc:	40041000 			@ <UNDEFINED> instruction: 40041000
     5d0:	20000254 			@ <UNDEFINED> instruction: 20000254
     5d4:	007a1200 			@ <UNDEFINED> instruction: 007a1200
     5d8:	00f42400 			@ <UNDEFINED> instruction: 00f42400

000005dc <ClkInit>:
     5dc:	b480      	push	{r7}
     5de:	b083      	sub	sp, #12
     5e0:	af00      	add	r7, sp, #0
     5e2:	2300      	movs	r3, #0
     5e4:	607b      	str	r3, [r7, #4]
     5e6:	e002      	b.n	5ee <ClkInit+0x12>
     5e8:	687b      	ldr	r3, [r7, #4]
     5ea:	3301      	adds	r3, #1
     5ec:	607b      	str	r3, [r7, #4]
     5ee:	4b38      	ldr	r3, [pc, #224]	@ (6d0 <ClkInit+0xf4>)
     5f0:	695b      	ldr	r3, [r3, #20]
     5f2:	f3c3 6340 	ubfx	r3, r3, #25, #1
     5f6:	b2db      	uxtb	r3, r3
     5f8:	2b00      	cmp	r3, #0
     5fa:	d103      	bne.n	604 <ClkInit+0x28>
     5fc:	687b      	ldr	r3, [r7, #4]
     5fe:	f5b3 1f80 	cmp.w	r3, #1048576	@ 0x100000
     602:	d3f1      	bcc.n	5e8 <ClkInit+0xc>
     604:	687b      	ldr	r3, [r7, #4]
     606:	f5b3 1f80 	cmp.w	r3, #1048576	@ 0x100000
     60a:	d101      	bne.n	610 <ClkInit+0x34>
     60c:	bf00      	nop
     60e:	e7fd      	b.n	60c <ClkInit+0x30>
     610:	4b2f      	ldr	r3, [pc, #188]	@ (6d0 <ClkInit+0xf4>)
     612:	f240 2219 	movw	r2, #537	@ 0x219
     616:	609a      	str	r2, [r3, #8]
     618:	4b2d      	ldr	r3, [pc, #180]	@ (6d0 <ClkInit+0xf4>)
     61a:	689b      	ldr	r3, [r3, #8]
     61c:	4a2c      	ldr	r2, [pc, #176]	@ (6d0 <ClkInit+0xf4>)
     61e:	f043 6380 	orr.w	r3, r3, #67108864	@ 0x4000000
     622:	f443 3380 	orr.w	r3, r3, #65536	@ 0x10000
     626:	6093      	str	r3, [r2, #8]
     628:	bf00      	nop
     62a:	4b29      	ldr	r3, [pc, #164]	@ (6d0 <ClkInit+0xf4>)
     62c:	689b      	ldr	r3, [r3, #8]
     62e:	f3c3 7300 	ubfx	r3, r3, #28, #1
     632:	b2db      	uxtb	r3, r3
     634:	2b00      	cmp	r3, #0
     636:	d0f8      	beq.n	62a <ClkInit+0x4e>
     638:	4b26      	ldr	r3, [pc, #152]	@ (6d4 <ClkInit+0xf8>)
     63a:	f44f 3240 	mov.w	r2, #196608	@ 0x30000
     63e:	62da      	str	r2, [r3, #44]	@ 0x2c
     640:	2302      	movs	r3, #2
     642:	603b      	str	r3, [r7, #0]
     644:	4a22      	ldr	r2, [pc, #136]	@ (6d0 <ClkInit+0xf4>)
     646:	683b      	ldr	r3, [r7, #0]
     648:	6113      	str	r3, [r2, #16]
     64a:	2300      	movs	r3, #0
     64c:	607b      	str	r3, [r7, #4]
     64e:	e002      	b.n	656 <ClkInit+0x7a>
     650:	687b      	ldr	r3, [r7, #4]
     652:	3301      	adds	r3, #1
     654:	607b      	str	r3, [r7, #4]
     656:	4b1e      	ldr	r3, [pc, #120]	@ (6d0 <ClkInit+0xf4>)
     658:	695b      	ldr	r3, [r3, #20]
     65a:	f3c3 0301 	ubfx	r3, r3, #0, #2
     65e:	b2da      	uxtb	r2, r3
     660:	4b1b      	ldr	r3, [pc, #108]	@ (6d0 <ClkInit+0xf4>)
     662:	691b      	ldr	r3, [r3, #16]
     664:	f3c3 0301 	ubfx	r3, r3, #0, #2
     668:	b2db      	uxtb	r3, r3
     66a:	429a      	cmp	r2, r3
     66c:	d003      	beq.n	676 <ClkInit+0x9a>
     66e:	687b      	ldr	r3, [r7, #4]
     670:	f5b3 1f80 	cmp.w	r3, #1048576	@ 0x100000
     674:	d3ec      	bcc.n	650 <ClkInit+0x74>
     676:	687b      	ldr	r3, [r7, #4]
     678:	f5b3 1f80 	cmp.w	r3, #1048576	@ 0x100000
     67c:	d101      	bne.n	682 <ClkInit+0xa6>
     67e:	bf00      	nop
     680:	e7fd      	b.n	67e <ClkInit+0xa2>
     682:	4a14      	ldr	r2, [pc, #80]	@ (6d4 <ClkInit+0xf8>)
     684:	6ad3      	ldr	r3, [r2, #44]	@ 0x2c
     686:	f443 7380 	orr.w	r3, r3, #256	@ 0x100
     68a:	62d3      	str	r3, [r2, #44]	@ 0x2c
     68c:	bf00      	nop
     68e:	4b11      	ldr	r3, [pc, #68]	@ (6d4 <ClkInit+0xf8>)
     690:	6b5b      	ldr	r3, [r3, #52]	@ 0x34
     692:	f3c3 0300 	ubfx	r3, r3, #0, #1
     696:	b2db      	uxtb	r3, r3
     698:	2b00      	cmp	r3, #0
     69a:	d1f8      	bne.n	68e <ClkInit+0xb2>
     69c:	4a0d      	ldr	r2, [pc, #52]	@ (6d4 <ClkInit+0xf8>)
     69e:	6ad3      	ldr	r3, [r2, #44]	@ 0x2c
     6a0:	f443 7300 	orr.w	r3, r3, #512	@ 0x200
     6a4:	62d3      	str	r3, [r2, #44]	@ 0x2c
     6a6:	bf00      	nop
     6a8:	4b0a      	ldr	r3, [pc, #40]	@ (6d4 <ClkInit+0xf8>)
     6aa:	6b9b      	ldr	r3, [r3, #56]	@ 0x38
     6ac:	f3c3 0300 	ubfx	r3, r3, #0, #1
     6b0:	b2db      	uxtb	r3, r3
     6b2:	2b00      	cmp	r3, #0
     6b4:	d1f8      	bne.n	6a8 <ClkInit+0xcc>
     6b6:	4b07      	ldr	r3, [pc, #28]	@ (6d4 <ClkInit+0xf8>)
     6b8:	6adb      	ldr	r3, [r3, #44]	@ 0x2c
     6ba:	4a06      	ldr	r2, [pc, #24]	@ (6d4 <ClkInit+0xf8>)
     6bc:	f043 0307 	orr.w	r3, r3, #7
     6c0:	62d3      	str	r3, [r2, #44]	@ 0x2c
     6c2:	bf00      	nop
     6c4:	370c      	adds	r7, #12
     6c6:	46bd      	mov	sp, r7
     6c8:	f85d 7b04 	ldr.w	r7, [sp], #4
     6cc:	4770      	bx	lr
     6ce:	bf00      	nop
     6d0:	40041000 			@ <UNDEFINED> instruction: 40041000
     6d4:	40030000 			@ <UNDEFINED> instruction: 40030000

000006d8 <FPUInit>:
     6d8:	b480      	push	{r7}
     6da:	af00      	add	r7, sp, #0
     6dc:	4b07      	ldr	r3, [pc, #28]	@ (6fc <FPUInit+0x24>)
     6de:	f44f 0270 	mov.w	r2, #15728640	@ 0xf00000
     6e2:	f8c3 2088 	str.w	r2, [r3, #136]	@ 0x88
     6e6:	f3bf 8f4f 	dsb	sy
     6ea:	bf00      	nop
     6ec:	f3bf 8f6f 	isb	sy
     6f0:	bf00      	nop
     6f2:	bf00      	nop
     6f4:	46bd      	mov	sp, r7
     6f6:	f85d 7b04 	ldr.w	r7, [sp], #4
     6fa:	4770      	bx	lr
     6fc:	e000ed00 			@ <UNDEFINED> instruction: e000ed00

00000700 <SystemInit>:
     700:	b580      	push	{r7, lr}
     702:	af00      	add	r7, sp, #0
     704:	4b02      	ldr	r3, [pc, #8]	@ (710 <SystemInit+0x10>)
     706:	4798      	blx	r3
     708:	4b02      	ldr	r3, [pc, #8]	@ (714 <SystemInit+0x14>)
     70a:	4798      	blx	r3
     70c:	bf00      	nop
     70e:	bd80      	pop	{r7, pc}
     710:	000005dd 	ldrdeq	r0, [r0], -sp
     714:	000006d9 	ldrdeq	r0, [r0], -r9

00000718 <__NVIC_EnableIRQ>:
     718:	b480      	push	{r7}
     71a:	b083      	sub	sp, #12
     71c:	af00      	add	r7, sp, #0
     71e:	4603      	mov	r3, r0
     720:	71fb      	strb	r3, [r7, #7]
     722:	f997 3007 	ldrsb.w	r3, [r7, #7]
     726:	2b00      	cmp	r3, #0
     728:	db0b      	blt.n	742 <__NVIC_EnableIRQ+0x2a>
     72a:	79fb      	ldrb	r3, [r7, #7]
     72c:	f003 021f 	and.w	r2, r3, #31
     730:	4907      	ldr	r1, [pc, #28]	@ (750 <__NVIC_EnableIRQ+0x38>)
     732:	f997 3007 	ldrsb.w	r3, [r7, #7]
     736:	095b      	lsrs	r3, r3, #5
     738:	2001      	movs	r0, #1
     73a:	fa00 f202 	lsl.w	r2, r0, r2
     73e:	f841 2023 	str.w	r2, [r1, r3, lsl #2]
     742:	bf00      	nop
     744:	370c      	adds	r7, #12
     746:	46bd      	mov	sp, r7
     748:	f85d 7b04 	ldr.w	r7, [sp], #4
     74c:	4770      	bx	lr
     74e:	bf00      	nop
     750:	e000e100 			@ <UNDEFINED> instruction: e000e100

00000754 <__NVIC_SetPriority>:
     754:	b480      	push	{r7}
     756:	b083      	sub	sp, #12
     758:	af00      	add	r7, sp, #0
     75a:	4603      	mov	r3, r0
     75c:	6039      	str	r1, [r7, #0]
     75e:	71fb      	strb	r3, [r7, #7]
     760:	f997 3007 	ldrsb.w	r3, [r7, #7]
     764:	2b00      	cmp	r3, #0
     766:	db0a      	blt.n	77e <__NVIC_SetPriority+0x2a>
     768:	683b      	ldr	r3, [r7, #0]
     76a:	b2da      	uxtb	r2, r3
     76c:	490c      	ldr	r1, [pc, #48]	@ (7a0 <__NVIC_SetPriority+0x4c>)
     76e:	f997 3007 	ldrsb.w	r3, [r7, #7]
     772:	0152      	lsls	r2, r2, #5
     774:	b2d2      	uxtb	r2, r2
     776:	440b      	add	r3, r1
     778:	f883 2300 	strb.w	r2, [r3, #768]	@ 0x300
     77c:	e00a      	b.n	794 <__NVIC_SetPriority+0x40>
     77e:	683b      	ldr	r3, [r7, #0]
     780:	b2da      	uxtb	r2, r3
     782:	4908      	ldr	r1, [pc, #32]	@ (7a4 <__NVIC_SetPriority+0x50>)
     784:	79fb      	ldrb	r3, [r7, #7]
     786:	f003 030f 	and.w	r3, r3, #15
     78a:	3b04      	subs	r3, #4
     78c:	0152      	lsls	r2, r2, #5
     78e:	b2d2      	uxtb	r2, r2
     790:	440b      	add	r3, r1
     792:	761a      	strb	r2, [r3, #24]
     794:	bf00      	nop
     796:	370c      	adds	r7, #12
     798:	46bd      	mov	sp, r7
     79a:	f85d 7b04 	ldr.w	r7, [sp], #4
     79e:	4770      	bx	lr
     7a0:	e000e100 			@ <UNDEFINED> instruction: e000e100
     7a4:	e000ed00 			@ <UNDEFINED> instruction: e000ed00

000007a8 <SysTick_Config>:
     7a8:	b580      	push	{r7, lr}
     7aa:	b082      	sub	sp, #8
     7ac:	af00      	add	r7, sp, #0
     7ae:	6078      	str	r0, [r7, #4]
     7b0:	687b      	ldr	r3, [r7, #4]
     7b2:	3b01      	subs	r3, #1
     7b4:	f1b3 7f80 	cmp.w	r3, #16777216	@ 0x1000000
     7b8:	d301      	bcc.n	7be <SysTick_Config+0x16>
     7ba:	2301      	movs	r3, #1
     7bc:	e00f      	b.n	7de <SysTick_Config+0x36>
     7be:	4a0a      	ldr	r2, [pc, #40]	@ (7e8 <SysTick_Config+0x40>)
     7c0:	687b      	ldr	r3, [r7, #4]
     7c2:	3b01      	subs	r3, #1
     7c4:	6053      	str	r3, [r2, #4]
     7c6:	2107      	movs	r1, #7
     7c8:	f04f 30ff 	mov.w	r0, #4294967295
     7cc:	4b07      	ldr	r3, [pc, #28]	@ (7ec <SysTick_Config+0x44>)
     7ce:	4798      	blx	r3
     7d0:	4b05      	ldr	r3, [pc, #20]	@ (7e8 <SysTick_Config+0x40>)
     7d2:	2200      	movs	r2, #0
     7d4:	609a      	str	r2, [r3, #8]
     7d6:	4b04      	ldr	r3, [pc, #16]	@ (7e8 <SysTick_Config+0x40>)
     7d8:	2207      	movs	r2, #7
     7da:	601a      	str	r2, [r3, #0]
     7dc:	2300      	movs	r3, #0
     7de:	4618      	mov	r0, r3
     7e0:	3708      	adds	r7, #8
     7e2:	46bd      	mov	sp, r7
     7e4:	bd80      	pop	{r7, pc}
     7e6:	bf00      	nop
     7e8:	e000e010 			@ <UNDEFINED> instruction: e000e010
     7ec:	00000755 			@ <UNDEFINED> instruction: 00000755

000007f0 <main>:
     7f0:	b580      	push	{r7, lr}
     7f2:	af00      	add	r7, sp, #0
     7f4:	4b16      	ldr	r3, [pc, #88]	@ (850 <main+0x60>)
     7f6:	4798      	blx	r3
     7f8:	4b16      	ldr	r3, [pc, #88]	@ (854 <main+0x64>)
     7fa:	4798      	blx	r3
     7fc:	4b16      	ldr	r3, [pc, #88]	@ (858 <main+0x68>)
     7fe:	4798      	blx	r3
     800:	4816      	ldr	r0, [pc, #88]	@ (85c <main+0x6c>)
     802:	4b17      	ldr	r3, [pc, #92]	@ (860 <main+0x70>)
     804:	4798      	blx	r3
     806:	4b17      	ldr	r3, [pc, #92]	@ (864 <main+0x74>)
     808:	4798      	blx	r3
     80a:	4b17      	ldr	r3, [pc, #92]	@ (868 <main+0x78>)
     80c:	4798      	blx	r3
     80e:	4817      	ldr	r0, [pc, #92]	@ (86c <main+0x7c>)
     810:	4b17      	ldr	r3, [pc, #92]	@ (870 <main+0x80>)
     812:	4798      	blx	r3
     814:	4603      	mov	r3, r0
     816:	b29b      	uxth	r3, r3
     818:	4619      	mov	r1, r3
     81a:	4814      	ldr	r0, [pc, #80]	@ (86c <main+0x7c>)
     81c:	4b15      	ldr	r3, [pc, #84]	@ (874 <main+0x84>)
     81e:	4798      	blx	r3
     820:	4b15      	ldr	r3, [pc, #84]	@ (878 <main+0x88>)
     822:	781b      	ldrb	r3, [r3, #0]
     824:	b2db      	uxtb	r3, r3
     826:	2b00      	cmp	r3, #0
     828:	d0fa      	beq.n	820 <main+0x30>
     82a:	4814      	ldr	r0, [pc, #80]	@ (87c <main+0x8c>)
     82c:	4b10      	ldr	r3, [pc, #64]	@ (870 <main+0x80>)
     82e:	4798      	blx	r3
     830:	4603      	mov	r3, r0
     832:	b29b      	uxth	r3, r3
     834:	4619      	mov	r1, r3
     836:	4811      	ldr	r0, [pc, #68]	@ (87c <main+0x8c>)
     838:	4b0e      	ldr	r3, [pc, #56]	@ (874 <main+0x84>)
     83a:	4798      	blx	r3
     83c:	4b0e      	ldr	r3, [pc, #56]	@ (878 <main+0x88>)
     83e:	2200      	movs	r2, #0
     840:	701a      	strb	r2, [r3, #0]
     842:	2240      	movs	r2, #64	@ 0x40
     844:	2100      	movs	r1, #0
     846:	480d      	ldr	r0, [pc, #52]	@ (87c <main+0x8c>)
     848:	4b0d      	ldr	r3, [pc, #52]	@ (880 <main+0x90>)
     84a:	4798      	blx	r3
     84c:	e7e8      	b.n	820 <main+0x30>
     84e:	bf00      	nop
     850:	00000511 			@ <UNDEFINED> instruction: 00000511
     854:	000008b1 			@ <UNDEFINED> instruction: 000008b1
     858:	000008f9 	strdeq	r0, [r0], -r9
     85c:	00989680 			@ <UNDEFINED> instruction: 00989680
     860:	000007a9 			@ <UNDEFINED> instruction: 000007a9
     864:	000009a9 			@ <UNDEFINED> instruction: 000009a9
     868:	000009e9 			@ <UNDEFINED> instruction: 000009e9
     86c:	20000004 			@ <UNDEFINED> instruction: 20000004
     870:	00001081 			@ <UNDEFINED> instruction: 00001081
     874:	00000c1d 			@ <UNDEFINED> instruction: 00000c1d
     878:	2000035e 			@ <UNDEFINED> instruction: 2000035e
     87c:	2000025c 			@ <UNDEFINED> instruction: 2000025c
     880:	00000239 			@ <UNDEFINED> instruction: 00000239

00000884 <SysTick_Handler>:
     884:	b480      	push	{r7}
     886:	af00      	add	r7, sp, #0
     888:	bf00      	nop
     88a:	46bd      	mov	sp, r7
     88c:	f85d 7b04 	ldr.w	r7, [sp], #4
     890:	4770      	bx	lr
	...

00000894 <Led_Pin_Toggle>:
     894:	b480      	push	{r7}
     896:	af00      	add	r7, sp, #0
     898:	4a04      	ldr	r2, [pc, #16]	@ (8ac <Led_Pin_Toggle+0x18>)
     89a:	8a13      	ldrh	r3, [r2, #16]
     89c:	f443 7380 	orr.w	r3, r3, #256	@ 0x100
     8a0:	8213      	strh	r3, [r2, #16]
     8a2:	bf00      	nop
     8a4:	46bd      	mov	sp, r7
     8a6:	f85d 7b04 	ldr.w	r7, [sp], #4
     8aa:	4770      	bx	lr
     8ac:	40010000 			@ <UNDEFINED> instruction: 40010000

000008b0 <Led_Pin_Init>:
     8b0:	b480      	push	{r7}
     8b2:	af00      	add	r7, sp, #0
     8b4:	4a0e      	ldr	r2, [pc, #56]	@ (8f0 <Led_Pin_Init+0x40>)
     8b6:	f892 3100 	ldrb.w	r3, [r2, #256]	@ 0x100
     8ba:	f043 0301 	orr.w	r3, r3, #1
     8be:	f882 3100 	strb.w	r3, [r2, #256]	@ 0x100
     8c2:	4a0b      	ldr	r2, [pc, #44]	@ (8f0 <Led_Pin_Init+0x40>)
     8c4:	f892 3104 	ldrb.w	r3, [r2, #260]	@ 0x104
     8c8:	f043 0301 	orr.w	r3, r3, #1
     8cc:	f882 3104 	strb.w	r3, [r2, #260]	@ 0x104
     8d0:	4a08      	ldr	r2, [pc, #32]	@ (8f4 <Led_Pin_Init+0x44>)
     8d2:	8a93      	ldrh	r3, [r2, #20]
     8d4:	f443 7380 	orr.w	r3, r3, #256	@ 0x100
     8d8:	8293      	strh	r3, [r2, #20]
     8da:	4a06      	ldr	r2, [pc, #24]	@ (8f4 <Led_Pin_Init+0x44>)
     8dc:	8d93      	ldrh	r3, [r2, #44]	@ 0x2c
     8de:	f443 7380 	orr.w	r3, r3, #256	@ 0x100
     8e2:	8593      	strh	r3, [r2, #44]	@ 0x2c
     8e4:	bf00      	nop
     8e6:	46bd      	mov	sp, r7
     8e8:	f85d 7b04 	ldr.w	r7, [sp], #4
     8ec:	4770      	bx	lr
     8ee:	bf00      	nop
     8f0:	40041000 			@ <UNDEFINED> instruction: 40041000
     8f4:	40010000 			@ <UNDEFINED> instruction: 40010000

000008f8 <Button_Init>:
     8f8:	b580      	push	{r7, lr}
     8fa:	af00      	add	r7, sp, #0
     8fc:	4a16      	ldr	r2, [pc, #88]	@ (958 <Button_Init+0x60>)
     8fe:	f892 3100 	ldrb.w	r3, [r2, #256]	@ 0x100
     902:	f043 0301 	orr.w	r3, r3, #1
     906:	f882 3100 	strb.w	r3, [r2, #256]	@ 0x100
     90a:	4a13      	ldr	r2, [pc, #76]	@ (958 <Button_Init+0x60>)
     90c:	f892 3104 	ldrb.w	r3, [r2, #260]	@ 0x104
     910:	f043 0301 	orr.w	r3, r3, #1
     914:	f882 3104 	strb.w	r3, [r2, #260]	@ 0x104
     918:	4a10      	ldr	r2, [pc, #64]	@ (95c <Button_Init+0x64>)
     91a:	8a93      	ldrh	r3, [r2, #20]
     91c:	f043 0380 	orr.w	r3, r3, #128	@ 0x80
     920:	8293      	strh	r3, [r2, #20]
     922:	4a0e      	ldr	r2, [pc, #56]	@ (95c <Button_Init+0x64>)
     924:	f8b2 3068 	ldrh.w	r3, [r2, #104]	@ 0x68
     928:	f023 0380 	bic.w	r3, r3, #128	@ 0x80
     92c:	f8a2 3068 	strh.w	r3, [r2, #104]	@ 0x68
     930:	4a0a      	ldr	r2, [pc, #40]	@ (95c <Button_Init+0x64>)
     932:	f8b2 3070 	ldrh.w	r3, [r2, #112]	@ 0x70
     936:	f023 0380 	bic.w	r3, r3, #128	@ 0x80
     93a:	f8a2 3070 	strh.w	r3, [r2, #112]	@ 0x70
     93e:	4a07      	ldr	r2, [pc, #28]	@ (95c <Button_Init+0x64>)
     940:	f8b2 3060 	ldrh.w	r3, [r2, #96]	@ 0x60
     944:	f043 0380 	orr.w	r3, r3, #128	@ 0x80
     948:	f8a2 3060 	strh.w	r3, [r2, #96]	@ 0x60
     94c:	2003      	movs	r0, #3
     94e:	4b04      	ldr	r3, [pc, #16]	@ (960 <Button_Init+0x68>)
     950:	4798      	blx	r3
     952:	bf00      	nop
     954:	bd80      	pop	{r7, pc}
     956:	bf00      	nop
     958:	40041000 			@ <UNDEFINED> instruction: 40041000
     95c:	40010000 			@ <UNDEFINED> instruction: 40010000
     960:	00000719 			@ <UNDEFINED> instruction: 00000719

00000964 <GPIOA_IRQHandler>:
     964:	b580      	push	{r7, lr}
     966:	af00      	add	r7, sp, #0
     968:	4a0b      	ldr	r2, [pc, #44]	@ (998 <GPIOA_IRQHandler+0x34>)
     96a:	f8b2 3080 	ldrh.w	r3, [r2, #128]	@ 0x80
     96e:	f043 0380 	orr.w	r3, r3, #128	@ 0x80
     972:	f8a2 3080 	strh.w	r3, [r2, #128]	@ 0x80
     976:	4b09      	ldr	r3, [pc, #36]	@ (99c <GPIOA_IRQHandler+0x38>)
     978:	4798      	blx	r3
     97a:	4b07      	ldr	r3, [pc, #28]	@ (998 <GPIOA_IRQHandler+0x34>)
     97c:	681b      	ldr	r3, [r3, #0]
     97e:	09db      	lsrs	r3, r3, #7
     980:	f003 0301 	and.w	r3, r3, #1
     984:	4a06      	ldr	r2, [pc, #24]	@ (9a0 <GPIOA_IRQHandler+0x3c>)
     986:	6013      	str	r3, [r2, #0]
     988:	4b05      	ldr	r3, [pc, #20]	@ (9a0 <GPIOA_IRQHandler+0x3c>)
     98a:	681b      	ldr	r3, [r3, #0]
     98c:	2b01      	cmp	r3, #1
     98e:	d101      	bne.n	994 <GPIOA_IRQHandler+0x30>
     990:	4b04      	ldr	r3, [pc, #16]	@ (9a4 <GPIOA_IRQHandler+0x40>)
     992:	4798      	blx	r3
     994:	bf00      	nop
     996:	bd80      	pop	{r7, pc}
     998:	40010000 			@ <UNDEFINED> instruction: 40010000
     99c:	00000895 			@ <UNDEFINED> instruction: 00000895
     9a0:	20000258 			@ <UNDEFINED> instruction: 20000258
     9a4:	000009c9 			@ <UNDEFINED> instruction: 000009c9

000009a8 <Led_Pin_ON>:
     9a8:	b480      	push	{r7}
     9aa:	af00      	add	r7, sp, #0
     9ac:	4a05      	ldr	r2, [pc, #20]	@ (9c4 <Led_Pin_ON+0x1c>)
     9ae:	8913      	ldrh	r3, [r2, #8]
     9b0:	f443 7380 	orr.w	r3, r3, #256	@ 0x100
     9b4:	8113      	strh	r3, [r2, #8]
     9b6:	2301      	movs	r3, #1
     9b8:	4618      	mov	r0, r3
     9ba:	46bd      	mov	sp, r7
     9bc:	f85d 7b04 	ldr.w	r7, [sp], #4
     9c0:	4770      	bx	lr
     9c2:	bf00      	nop
     9c4:	40010000 			@ <UNDEFINED> instruction: 40010000

000009c8 <Led_Pin_OFF>:
     9c8:	b480      	push	{r7}
     9ca:	af00      	add	r7, sp, #0
     9cc:	4a05      	ldr	r2, [pc, #20]	@ (9e4 <Led_Pin_OFF+0x1c>)
     9ce:	8993      	ldrh	r3, [r2, #12]
     9d0:	f443 7380 	orr.w	r3, r3, #256	@ 0x100
     9d4:	8193      	strh	r3, [r2, #12]
     9d6:	2300      	movs	r3, #0
     9d8:	4618      	mov	r0, r3
     9da:	46bd      	mov	sp, r7
     9dc:	f85d 7b04 	ldr.w	r7, [sp], #4
     9e0:	4770      	bx	lr
     9e2:	bf00      	nop
     9e4:	40010000 			@ <UNDEFINED> instruction: 40010000

000009e8 <UART_Init>:
     9e8:	b590      	push	{r4, r7, lr}
     9ea:	b085      	sub	sp, #20
     9ec:	af00      	add	r7, sp, #0
     9ee:	4a50      	ldr	r2, [pc, #320]	@ (b30 <UART_Init+0x148>)
     9f0:	f892 3100 	ldrb.w	r3, [r2, #256]	@ 0x100
     9f4:	f043 0302 	orr.w	r3, r3, #2
     9f8:	f882 3100 	strb.w	r3, [r2, #256]	@ 0x100
     9fc:	4a4c      	ldr	r2, [pc, #304]	@ (b30 <UART_Init+0x148>)
     9fe:	f892 3104 	ldrb.w	r3, [r2, #260]	@ 0x104
     a02:	f043 0302 	orr.w	r3, r3, #2
     a06:	f882 3104 	strb.w	r3, [r2, #260]	@ 0x104
     a0a:	4a4a      	ldr	r2, [pc, #296]	@ (b34 <UART_Init+0x14c>)
     a0c:	8e93      	ldrh	r3, [r2, #52]	@ 0x34
     a0e:	f443 6380 	orr.w	r3, r3, #1024	@ 0x400
     a12:	8693      	strh	r3, [r2, #52]	@ 0x34
     a14:	4a47      	ldr	r2, [pc, #284]	@ (b34 <UART_Init+0x14c>)
     a16:	8a93      	ldrh	r3, [r2, #20]
     a18:	f443 6380 	orr.w	r3, r3, #1024	@ 0x400
     a1c:	8293      	strh	r3, [r2, #20]
     a1e:	4a45      	ldr	r2, [pc, #276]	@ (b34 <UART_Init+0x14c>)
     a20:	8e93      	ldrh	r3, [r2, #52]	@ 0x34
     a22:	f443 6300 	orr.w	r3, r3, #2048	@ 0x800
     a26:	8693      	strh	r3, [r2, #52]	@ 0x34
     a28:	4a42      	ldr	r2, [pc, #264]	@ (b34 <UART_Init+0x14c>)
     a2a:	8a93      	ldrh	r3, [r2, #20]
     a2c:	f443 6300 	orr.w	r3, r3, #2048	@ 0x800
     a30:	8293      	strh	r3, [r2, #20]
     a32:	4a3f      	ldr	r2, [pc, #252]	@ (b30 <UART_Init+0x148>)
     a34:	6e13      	ldr	r3, [r2, #96]	@ 0x60
     a36:	f423 3380 	bic.w	r3, r3, #65536	@ 0x10000
     a3a:	6613      	str	r3, [r2, #96]	@ 0x60
     a3c:	4a3c      	ldr	r2, [pc, #240]	@ (b30 <UART_Init+0x148>)
     a3e:	6e13      	ldr	r3, [r2, #96]	@ 0x60
     a40:	2101      	movs	r1, #1
     a42:	f361 2309 	bfi	r3, r1, #8, #2
     a46:	6613      	str	r3, [r2, #96]	@ 0x60
     a48:	4a39      	ldr	r2, [pc, #228]	@ (b30 <UART_Init+0x148>)
     a4a:	6e13      	ldr	r3, [r2, #96]	@ 0x60
     a4c:	f043 0310 	orr.w	r3, r3, #16
     a50:	6613      	str	r3, [r2, #96]	@ 0x60
     a52:	4a37      	ldr	r2, [pc, #220]	@ (b30 <UART_Init+0x148>)
     a54:	6e13      	ldr	r3, [r2, #96]	@ 0x60
     a56:	f043 0301 	orr.w	r3, r3, #1
     a5a:	6613      	str	r3, [r2, #96]	@ 0x60
     a5c:	4b36      	ldr	r3, [pc, #216]	@ (b38 <UART_Init+0x150>)
     a5e:	60fb      	str	r3, [r7, #12]
     a60:	f44f 33e1 	mov.w	r3, #115200	@ 0x1c200
     a64:	60bb      	str	r3, [r7, #8]
     a66:	68bb      	ldr	r3, [r7, #8]
     a68:	011b      	lsls	r3, r3, #4
     a6a:	68fa      	ldr	r2, [r7, #12]
     a6c:	fbb2 f3f3 	udiv	r3, r2, r3
     a70:	607b      	str	r3, [r7, #4]
     a72:	68fb      	ldr	r3, [r7, #12]
     a74:	ee07 3a90 	vmov	s15, r3
     a78:	eef8 6a67 	vcvt.f32.u32	s13, s15
     a7c:	68bb      	ldr	r3, [r7, #8]
     a7e:	ee07 3a90 	vmov	s15, r3
     a82:	eef8 7a67 	vcvt.f32.u32	s15, s15
     a86:	eeb3 7a00 	vmov.f32	s14, #48	@ 0x41800000  16.0
     a8a:	ee67 7a87 	vmul.f32	s15, s15, s14
     a8e:	ee86 7aa7 	vdiv.f32	s14, s13, s15
     a92:	687b      	ldr	r3, [r7, #4]
     a94:	ee07 3a90 	vmov	s15, r3
     a98:	eef8 7a67 	vcvt.f32.u32	s15, s15
     a9c:	ee77 7a67 	vsub.f32	s15, s14, s15
     aa0:	ed9f 7a26 	vldr	s14, [pc, #152]	@ b3c <UART_Init+0x154>
     aa4:	ee67 7a87 	vmul.f32	s15, s15, s14
     aa8:	4b25      	ldr	r3, [pc, #148]	@ (b40 <UART_Init+0x158>)
     aaa:	ee17 0a90 	vmov	r0, s15
     aae:	4798      	blx	r3
     ab0:	4c24      	ldr	r4, [pc, #144]	@ (b44 <UART_Init+0x15c>)
     ab2:	f04f 0200 	mov.w	r2, #0
     ab6:	4b24      	ldr	r3, [pc, #144]	@ (b48 <UART_Init+0x160>)
     ab8:	47a0      	blx	r4
     aba:	4602      	mov	r2, r0
     abc:	460b      	mov	r3, r1
     abe:	4c23      	ldr	r4, [pc, #140]	@ (b4c <UART_Init+0x164>)
     ac0:	4610      	mov	r0, r2
     ac2:	4619      	mov	r1, r3
     ac4:	47a0      	blx	r4
     ac6:	4603      	mov	r3, r0
     ac8:	603b      	str	r3, [r7, #0]
     aca:	4a21      	ldr	r2, [pc, #132]	@ (b50 <UART_Init+0x168>)
     acc:	687b      	ldr	r3, [r7, #4]
     ace:	6253      	str	r3, [r2, #36]	@ 0x24
     ad0:	4a1f      	ldr	r2, [pc, #124]	@ (b50 <UART_Init+0x168>)
     ad2:	683b      	ldr	r3, [r7, #0]
     ad4:	6293      	str	r3, [r2, #40]	@ 0x28
     ad6:	4a1e      	ldr	r2, [pc, #120]	@ (b50 <UART_Init+0x168>)
     ad8:	f892 302c 	ldrb.w	r3, [r2, #44]	@ 0x2c
     adc:	f043 0360 	orr.w	r3, r3, #96	@ 0x60
     ae0:	f882 302c 	strb.w	r3, [r2, #44]	@ 0x2c
     ae4:	4a1a      	ldr	r2, [pc, #104]	@ (b50 <UART_Init+0x168>)
     ae6:	f892 302c 	ldrb.w	r3, [r2, #44]	@ 0x2c
     aea:	f023 0308 	bic.w	r3, r3, #8
     aee:	f882 302c 	strb.w	r3, [r2, #44]	@ 0x2c
     af2:	4a17      	ldr	r2, [pc, #92]	@ (b50 <UART_Init+0x168>)
     af4:	8e13      	ldrh	r3, [r2, #48]	@ 0x30
     af6:	f443 7300 	orr.w	r3, r3, #512	@ 0x200
     afa:	8613      	strh	r3, [r2, #48]	@ 0x30
     afc:	4a14      	ldr	r2, [pc, #80]	@ (b50 <UART_Init+0x168>)
     afe:	8e13      	ldrh	r3, [r2, #48]	@ 0x30
     b00:	f443 7380 	orr.w	r3, r3, #256	@ 0x100
     b04:	8613      	strh	r3, [r2, #48]	@ 0x30
     b06:	4a12      	ldr	r2, [pc, #72]	@ (b50 <UART_Init+0x168>)
     b08:	8f13      	ldrh	r3, [r2, #56]	@ 0x38
     b0a:	f043 0310 	orr.w	r3, r3, #16
     b0e:	8713      	strh	r3, [r2, #56]	@ 0x38
     b10:	2100      	movs	r1, #0
     b12:	201a      	movs	r0, #26
     b14:	4b0f      	ldr	r3, [pc, #60]	@ (b54 <UART_Init+0x16c>)
     b16:	4798      	blx	r3
     b18:	201a      	movs	r0, #26
     b1a:	4b0f      	ldr	r3, [pc, #60]	@ (b58 <UART_Init+0x170>)
     b1c:	4798      	blx	r3
     b1e:	4a0c      	ldr	r2, [pc, #48]	@ (b50 <UART_Init+0x168>)
     b20:	8e13      	ldrh	r3, [r2, #48]	@ 0x30
     b22:	f043 0301 	orr.w	r3, r3, #1
     b26:	8613      	strh	r3, [r2, #48]	@ 0x30
     b28:	bf00      	nop
     b2a:	3714      	adds	r7, #20
     b2c:	46bd      	mov	sp, r7
     b2e:	bd90      	pop	{r4, r7, pc}
     b30:	40041000 			@ <UNDEFINED> instruction: 40041000
     b34:	40011000 			@ <UNDEFINED> instruction: 40011000
     b38:	05f5e100 			@ <UNDEFINED> instruction: 05f5e100
     b3c:	42800000 			@ <UNDEFINED> instruction: 42800000
     b40:	00000f75 			@ <UNDEFINED> instruction: 00000f75
     b44:	00000cb9 			@ <UNDEFINED> instruction: 00000cb9
     b48:	3fe00000 			@ <UNDEFINED> instruction: 3fe00000
     b4c:	00001025 			@ <UNDEFINED> instruction: 00001025
     b50:	40045000 			@ <UNDEFINED> instruction: 40045000
     b54:	00000755 			@ <UNDEFINED> instruction: 00000755
     b58:	00000719 			@ <UNDEFINED> instruction: 00000719

00000b5c <UART0_RX_IRQHandler>:
     b5c:	b580      	push	{r7, lr}
     b5e:	b082      	sub	sp, #8
     b60:	af00      	add	r7, sp, #0
     b62:	4b16      	ldr	r3, [pc, #88]	@ (bbc <UART0_RX_IRQHandler+0x60>)
     b64:	4798      	blx	r3
     b66:	4b16      	ldr	r3, [pc, #88]	@ (bc0 <UART0_RX_IRQHandler+0x64>)
     b68:	881b      	ldrh	r3, [r3, #0]
     b6a:	b29b      	uxth	r3, r3
     b6c:	2bff      	cmp	r3, #255	@ 0xff
     b6e:	d81a      	bhi.n	ba6 <UART0_RX_IRQHandler+0x4a>
     b70:	4b14      	ldr	r3, [pc, #80]	@ (bc4 <UART0_RX_IRQHandler+0x68>)
     b72:	681b      	ldr	r3, [r3, #0]
     b74:	71fb      	strb	r3, [r7, #7]
     b76:	4b12      	ldr	r3, [pc, #72]	@ (bc0 <UART0_RX_IRQHandler+0x64>)
     b78:	881b      	ldrh	r3, [r3, #0]
     b7a:	b29b      	uxth	r3, r3
     b7c:	4619      	mov	r1, r3
     b7e:	4a12      	ldr	r2, [pc, #72]	@ (bc8 <UART0_RX_IRQHandler+0x6c>)
     b80:	79fb      	ldrb	r3, [r7, #7]
     b82:	5453      	strb	r3, [r2, r1]
     b84:	79fb      	ldrb	r3, [r7, #7]
     b86:	2b0a      	cmp	r3, #10
     b88:	d106      	bne.n	b98 <UART0_RX_IRQHandler+0x3c>
     b8a:	4b0d      	ldr	r3, [pc, #52]	@ (bc0 <UART0_RX_IRQHandler+0x64>)
     b8c:	2200      	movs	r2, #0
     b8e:	801a      	strh	r2, [r3, #0]
     b90:	4b0e      	ldr	r3, [pc, #56]	@ (bcc <UART0_RX_IRQHandler+0x70>)
     b92:	2201      	movs	r2, #1
     b94:	701a      	strb	r2, [r3, #0]
     b96:	e006      	b.n	ba6 <UART0_RX_IRQHandler+0x4a>
     b98:	4b09      	ldr	r3, [pc, #36]	@ (bc0 <UART0_RX_IRQHandler+0x64>)
     b9a:	881b      	ldrh	r3, [r3, #0]
     b9c:	b29b      	uxth	r3, r3
     b9e:	3301      	adds	r3, #1
     ba0:	b29a      	uxth	r2, r3
     ba2:	4b07      	ldr	r3, [pc, #28]	@ (bc0 <UART0_RX_IRQHandler+0x64>)
     ba4:	801a      	strh	r2, [r3, #0]
     ba6:	4a07      	ldr	r2, [pc, #28]	@ (bc4 <UART0_RX_IRQHandler+0x68>)
     ba8:	f8b2 3044 	ldrh.w	r3, [r2, #68]	@ 0x44
     bac:	f043 0310 	orr.w	r3, r3, #16
     bb0:	f8a2 3044 	strh.w	r3, [r2, #68]	@ 0x44
     bb4:	bf00      	nop
     bb6:	3708      	adds	r7, #8
     bb8:	46bd      	mov	sp, r7
     bba:	bd80      	pop	{r7, pc}
     bbc:	00000895 			@ <UNDEFINED> instruction: 00000895
     bc0:	2000035c 			@ <UNDEFINED> instruction: 2000035c
     bc4:	40045000 			@ <UNDEFINED> instruction: 40045000
     bc8:	2000025c 			@ <UNDEFINED> instruction: 2000025c
     bcc:	2000035e 			@ <UNDEFINED> instruction: 2000035e

00000bd0 <UART_SendByte>:
     bd0:	b480      	push	{r7}
     bd2:	b085      	sub	sp, #20
     bd4:	af00      	add	r7, sp, #0
     bd6:	6078      	str	r0, [r7, #4]
     bd8:	4b0e      	ldr	r3, [pc, #56]	@ (c14 <Stack_Size+0x14>)
     bda:	60fb      	str	r3, [r7, #12]
     bdc:	bf00      	nop
     bde:	4b0e      	ldr	r3, [pc, #56]	@ (c18 <Stack_Size+0x18>)
     be0:	699b      	ldr	r3, [r3, #24]
     be2:	f3c3 03c0 	ubfx	r3, r3, #3, #1
     be6:	b2db      	uxtb	r3, r3
     be8:	2b01      	cmp	r3, #1
     bea:	d104      	bne.n	bf6 <UART_SendByte+0x26>
     bec:	68fb      	ldr	r3, [r7, #12]
     bee:	1e5a      	subs	r2, r3, #1
     bf0:	60fa      	str	r2, [r7, #12]
     bf2:	2b00      	cmp	r3, #0
     bf4:	d1f3      	bne.n	bde <UART_SendByte+0xe>
     bf6:	68fb      	ldr	r3, [r7, #12]
     bf8:	2b00      	cmp	r3, #0
     bfa:	d004      	beq.n	c06 <Stack_Size+0x6>
     bfc:	687b      	ldr	r3, [r7, #4]
     bfe:	781a      	ldrb	r2, [r3, #0]
     c00:	4b05      	ldr	r3, [pc, #20]	@ (c18 <Stack_Size+0x18>)
     c02:	601a      	str	r2, [r3, #0]
     c04:	e000      	b.n	c08 <Stack_Size+0x8>
     c06:	bf00      	nop
     c08:	3714      	adds	r7, #20
     c0a:	46bd      	mov	sp, r7
     c0c:	f85d 7b04 	ldr.w	r7, [sp], #4
     c10:	4770      	bx	lr
     c12:	bf00      	nop
     c14:	000f4240 			@ <UNDEFINED> instruction: 000f4240
     c18:	40045000 			@ <UNDEFINED> instruction: 40045000

00000c1c <UART_SendMessage>:
     c1c:	b580      	push	{r7, lr}
     c1e:	b084      	sub	sp, #16
     c20:	af00      	add	r7, sp, #0
     c22:	6078      	str	r0, [r7, #4]
     c24:	460b      	mov	r3, r1
     c26:	807b      	strh	r3, [r7, #2]
     c28:	2300      	movs	r3, #0
     c2a:	60fb      	str	r3, [r7, #12]
     c2c:	e008      	b.n	c40 <UART_SendMessage+0x24>
     c2e:	68fb      	ldr	r3, [r7, #12]
     c30:	687a      	ldr	r2, [r7, #4]
     c32:	4413      	add	r3, r2
     c34:	4618      	mov	r0, r3
     c36:	4b07      	ldr	r3, [pc, #28]	@ (c54 <UART_SendMessage+0x38>)
     c38:	4798      	blx	r3
     c3a:	68fb      	ldr	r3, [r7, #12]
     c3c:	3301      	adds	r3, #1
     c3e:	60fb      	str	r3, [r7, #12]
     c40:	887b      	ldrh	r3, [r7, #2]
     c42:	68fa      	ldr	r2, [r7, #12]
     c44:	429a      	cmp	r2, r3
     c46:	dbf2      	blt.n	c2e <UART_SendMessage+0x12>
     c48:	bf00      	nop
     c4a:	bf00      	nop
     c4c:	3710      	adds	r7, #16
     c4e:	46bd      	mov	sp, r7
     c50:	bd80      	pop	{r7, pc}
     c52:	bf00      	nop
     c54:	00000bd1 	ldrdeq	r0, [r0], -r1

00000c58 <Reset_Handler>:
     c58:	4c0f      	ldr	r4, [pc, #60]	@ (c98 <Reset_Handler+0x40>)
     c5a:	4d10      	ldr	r5, [pc, #64]	@ (c9c <Reset_Handler+0x44>)
     c5c:	42ac      	cmp	r4, r5
     c5e:	da09      	bge.n	c74 <Reset_Handler+0x1c>
     c60:	6821      	ldr	r1, [r4, #0]
     c62:	6862      	ldr	r2, [r4, #4]
     c64:	68a3      	ldr	r3, [r4, #8]
     c66:	3b04      	subs	r3, #4
     c68:	bfa2      	ittt	ge
     c6a:	58c8      	ldrge	r0, [r1, r3]
     c6c:	50d0      	strge	r0, [r2, r3]
     c6e:	e7fa      	bge.n	c66 <Reset_Handler+0xe>
     c70:	340c      	adds	r4, #12
     c72:	e7f3      	b.n	c5c <Reset_Handler+0x4>
     c74:	4b0a      	ldr	r3, [pc, #40]	@ (ca0 <Reset_Handler+0x48>)
     c76:	4c0b      	ldr	r4, [pc, #44]	@ (ca4 <Reset_Handler+0x4c>)
     c78:	42a3      	cmp	r3, r4
     c7a:	da08      	bge.n	c8e <Reset_Handler+0x36>
     c7c:	6819      	ldr	r1, [r3, #0]
     c7e:	685a      	ldr	r2, [r3, #4]
     c80:	2000      	movs	r0, #0
     c82:	3a04      	subs	r2, #4
     c84:	bfa4      	itt	ge
     c86:	5088      	strge	r0, [r1, r2]
     c88:	e7fb      	bge.n	c82 <Reset_Handler+0x2a>
     c8a:	3308      	adds	r3, #8
     c8c:	e7f4      	b.n	c78 <Reset_Handler+0x20>
     c8e:	f7ff fd37 	bl	700 <SystemInit>
     c92:	f7ff fa85 	bl	1a0 <_mainCRTStartup>
     c96:	11800000 			@ <UNDEFINED> instruction: 11800000
     c9a:	118c0000 			@ <UNDEFINED> instruction: 118c0000
     c9e:	118c0000 			@ <UNDEFINED> instruction: 118c0000
     ca2:	11940000 			@ <UNDEFINED> instruction: 11940000
	...

00000ca8 <ADC_DC_IRQHandler>:
     ca8:	e7fe      	b.n	ca8 <ADC_DC_IRQHandler>
     caa:	bf00      	nop

00000cac <__aeabi_drsub>:
     cac:	f081 4100 	eor.w	r1, r1, #2147483648	@ 0x80000000
     cb0:	e002      	b.n	cb8 <__adddf3>
     cb2:	bf00      	nop

00000cb4 <__aeabi_dsub>:
     cb4:	f083 4300 	eor.w	r3, r3, #2147483648	@ 0x80000000

00000cb8 <__adddf3>:
     cb8:	b530      	push	{r4, r5, lr}
     cba:	ea4f 0441 	mov.w	r4, r1, lsl #1
     cbe:	ea4f 0543 	mov.w	r5, r3, lsl #1
     cc2:	ea94 0f05 	teq	r4, r5
     cc6:	bf08      	it	eq
     cc8:	ea90 0f02 	teqeq	r0, r2
     ccc:	bf1f      	itttt	ne
     cce:	ea54 0c00 	orrsne.w	ip, r4, r0
     cd2:	ea55 0c02 	orrsne.w	ip, r5, r2
     cd6:	ea7f 5c64 	mvnsne.w	ip, r4, asr #21
     cda:	ea7f 5c65 	mvnsne.w	ip, r5, asr #21
     cde:	f000 80e2 	beq.w	ea6 <__adddf3+0x1ee>
     ce2:	ea4f 5454 	mov.w	r4, r4, lsr #21
     ce6:	ebd4 5555 	rsbs	r5, r4, r5, lsr #21
     cea:	bfb8      	it	lt
     cec:	426d      	neglt	r5, r5
     cee:	dd0c      	ble.n	d0a <__adddf3+0x52>
     cf0:	442c      	add	r4, r5
     cf2:	ea80 0202 	eor.w	r2, r0, r2
     cf6:	ea81 0303 	eor.w	r3, r1, r3
     cfa:	ea82 0000 	eor.w	r0, r2, r0
     cfe:	ea83 0101 	eor.w	r1, r3, r1
     d02:	ea80 0202 	eor.w	r2, r0, r2
     d06:	ea81 0303 	eor.w	r3, r1, r3
     d0a:	2d36      	cmp	r5, #54	@ 0x36
     d0c:	bf88      	it	hi
     d0e:	bd30      	pophi	{r4, r5, pc}
     d10:	f011 4f00 	tst.w	r1, #2147483648	@ 0x80000000
     d14:	ea4f 3101 	mov.w	r1, r1, lsl #12
     d18:	f44f 1c80 	mov.w	ip, #1048576	@ 0x100000
     d1c:	ea4c 3111 	orr.w	r1, ip, r1, lsr #12
     d20:	d002      	beq.n	d28 <__adddf3+0x70>
     d22:	4240      	negs	r0, r0
     d24:	eb61 0141 	sbc.w	r1, r1, r1, lsl #1
     d28:	f013 4f00 	tst.w	r3, #2147483648	@ 0x80000000
     d2c:	ea4f 3303 	mov.w	r3, r3, lsl #12
     d30:	ea4c 3313 	orr.w	r3, ip, r3, lsr #12
     d34:	d002      	beq.n	d3c <__adddf3+0x84>
     d36:	4252      	negs	r2, r2
     d38:	eb63 0343 	sbc.w	r3, r3, r3, lsl #1
     d3c:	ea94 0f05 	teq	r4, r5
     d40:	f000 80a7 	beq.w	e92 <__adddf3+0x1da>
     d44:	f1a4 0401 	sub.w	r4, r4, #1
     d48:	f1d5 0e20 	rsbs	lr, r5, #32
     d4c:	db0d      	blt.n	d6a <__adddf3+0xb2>
     d4e:	fa02 fc0e 	lsl.w	ip, r2, lr
     d52:	fa22 f205 	lsr.w	r2, r2, r5
     d56:	1880      	adds	r0, r0, r2
     d58:	f141 0100 	adc.w	r1, r1, #0
     d5c:	fa03 f20e 	lsl.w	r2, r3, lr
     d60:	1880      	adds	r0, r0, r2
     d62:	fa43 f305 	asr.w	r3, r3, r5
     d66:	4159      	adcs	r1, r3
     d68:	e00e      	b.n	d88 <__adddf3+0xd0>
     d6a:	f1a5 0520 	sub.w	r5, r5, #32
     d6e:	f10e 0e20 	add.w	lr, lr, #32
     d72:	2a01      	cmp	r2, #1
     d74:	fa03 fc0e 	lsl.w	ip, r3, lr
     d78:	bf28      	it	cs
     d7a:	f04c 0c02 	orrcs.w	ip, ip, #2
     d7e:	fa43 f305 	asr.w	r3, r3, r5
     d82:	18c0      	adds	r0, r0, r3
     d84:	eb51 71e3 	adcs.w	r1, r1, r3, asr #31
     d88:	f001 4500 	and.w	r5, r1, #2147483648	@ 0x80000000
     d8c:	d507      	bpl.n	d9e <__adddf3+0xe6>
     d8e:	f04f 0e00 	mov.w	lr, #0
     d92:	f1dc 0c00 	rsbs	ip, ip, #0
     d96:	eb7e 0000 	sbcs.w	r0, lr, r0
     d9a:	eb6e 0101 	sbc.w	r1, lr, r1
     d9e:	f5b1 1f80 	cmp.w	r1, #1048576	@ 0x100000
     da2:	d31b      	bcc.n	ddc <__adddf3+0x124>
     da4:	f5b1 1f00 	cmp.w	r1, #2097152	@ 0x200000
     da8:	d30c      	bcc.n	dc4 <__adddf3+0x10c>
     daa:	0849      	lsrs	r1, r1, #1
     dac:	ea5f 0030 	movs.w	r0, r0, rrx
     db0:	ea4f 0c3c 	mov.w	ip, ip, rrx
     db4:	f104 0401 	add.w	r4, r4, #1
     db8:	ea4f 5244 	mov.w	r2, r4, lsl #21
     dbc:	f512 0f80 	cmn.w	r2, #4194304	@ 0x400000
     dc0:	f080 809a 	bcs.w	ef8 <__adddf3+0x240>
     dc4:	f1bc 4f00 	cmp.w	ip, #2147483648	@ 0x80000000
     dc8:	bf08      	it	eq
     dca:	ea5f 0c50 	movseq.w	ip, r0, lsr #1
     dce:	f150 0000 	adcs.w	r0, r0, #0
     dd2:	eb41 5104 	adc.w	r1, r1, r4, lsl #20
     dd6:	ea41 0105 	orr.w	r1, r1, r5
     dda:	bd30      	pop	{r4, r5, pc}
     ddc:	ea5f 0c4c 	movs.w	ip, ip, lsl #1
     de0:	4140      	adcs	r0, r0
     de2:	eb41 0101 	adc.w	r1, r1, r1
     de6:	3c01      	subs	r4, #1
     de8:	bf28      	it	cs
     dea:	f5b1 1f80 	cmpcs.w	r1, #1048576	@ 0x100000
     dee:	d2e9      	bcs.n	dc4 <__adddf3+0x10c>
     df0:	f091 0f00 	teq	r1, #0
     df4:	bf04      	itt	eq
     df6:	4601      	moveq	r1, r0
     df8:	2000      	moveq	r0, #0
     dfa:	fab1 f381 	clz	r3, r1
     dfe:	bf08      	it	eq
     e00:	3320      	addeq	r3, #32
     e02:	f1a3 030b 	sub.w	r3, r3, #11
     e06:	f1b3 0220 	subs.w	r2, r3, #32
     e0a:	da0c      	bge.n	e26 <__adddf3+0x16e>
     e0c:	320c      	adds	r2, #12
     e0e:	dd08      	ble.n	e22 <__adddf3+0x16a>
     e10:	f102 0c14 	add.w	ip, r2, #20
     e14:	f1c2 020c 	rsb	r2, r2, #12
     e18:	fa01 f00c 	lsl.w	r0, r1, ip
     e1c:	fa21 f102 	lsr.w	r1, r1, r2
     e20:	e00c      	b.n	e3c <__adddf3+0x184>
     e22:	f102 0214 	add.w	r2, r2, #20
     e26:	bfd8      	it	le
     e28:	f1c2 0c20 	rsble	ip, r2, #32
     e2c:	fa01 f102 	lsl.w	r1, r1, r2
     e30:	fa20 fc0c 	lsr.w	ip, r0, ip
     e34:	bfdc      	itt	le
     e36:	ea41 010c 	orrle.w	r1, r1, ip
     e3a:	4090      	lslle	r0, r2
     e3c:	1ae4      	subs	r4, r4, r3
     e3e:	bfa2      	ittt	ge
     e40:	eb01 5104 	addge.w	r1, r1, r4, lsl #20
     e44:	4329      	orrge	r1, r5
     e46:	bd30      	popge	{r4, r5, pc}
     e48:	ea6f 0404 	mvn.w	r4, r4
     e4c:	3c1f      	subs	r4, #31
     e4e:	da1c      	bge.n	e8a <__adddf3+0x1d2>
     e50:	340c      	adds	r4, #12
     e52:	dc0e      	bgt.n	e72 <__adddf3+0x1ba>
     e54:	f104 0414 	add.w	r4, r4, #20
     e58:	f1c4 0220 	rsb	r2, r4, #32
     e5c:	fa20 f004 	lsr.w	r0, r0, r4
     e60:	fa01 f302 	lsl.w	r3, r1, r2
     e64:	ea40 0003 	orr.w	r0, r0, r3
     e68:	fa21 f304 	lsr.w	r3, r1, r4
     e6c:	ea45 0103 	orr.w	r1, r5, r3
     e70:	bd30      	pop	{r4, r5, pc}
     e72:	f1c4 040c 	rsb	r4, r4, #12
     e76:	f1c4 0220 	rsb	r2, r4, #32
     e7a:	fa20 f002 	lsr.w	r0, r0, r2
     e7e:	fa01 f304 	lsl.w	r3, r1, r4
     e82:	ea40 0003 	orr.w	r0, r0, r3
     e86:	4629      	mov	r1, r5
     e88:	bd30      	pop	{r4, r5, pc}
     e8a:	fa21 f004 	lsr.w	r0, r1, r4
     e8e:	4629      	mov	r1, r5
     e90:	bd30      	pop	{r4, r5, pc}
     e92:	f094 0f00 	teq	r4, #0
     e96:	f483 1380 	eor.w	r3, r3, #1048576	@ 0x100000
     e9a:	bf06      	itte	eq
     e9c:	f481 1180 	eoreq.w	r1, r1, #1048576	@ 0x100000
     ea0:	3401      	addeq	r4, #1
     ea2:	3d01      	subne	r5, #1
     ea4:	e74e      	b.n	d44 <__adddf3+0x8c>
     ea6:	ea7f 5c64 	mvns.w	ip, r4, asr #21
     eaa:	bf18      	it	ne
     eac:	ea7f 5c65 	mvnsne.w	ip, r5, asr #21
     eb0:	d029      	beq.n	f06 <__adddf3+0x24e>
     eb2:	ea94 0f05 	teq	r4, r5
     eb6:	bf08      	it	eq
     eb8:	ea90 0f02 	teqeq	r0, r2
     ebc:	d005      	beq.n	eca <__adddf3+0x212>
     ebe:	ea54 0c00 	orrs.w	ip, r4, r0
     ec2:	bf04      	itt	eq
     ec4:	4619      	moveq	r1, r3
     ec6:	4610      	moveq	r0, r2
     ec8:	bd30      	pop	{r4, r5, pc}
     eca:	ea91 0f03 	teq	r1, r3
     ece:	bf1e      	ittt	ne
     ed0:	2100      	movne	r1, #0
     ed2:	2000      	movne	r0, #0
     ed4:	bd30      	popne	{r4, r5, pc}
     ed6:	ea5f 5c54 	movs.w	ip, r4, lsr #21
     eda:	d105      	bne.n	ee8 <__adddf3+0x230>
     edc:	0040      	lsls	r0, r0, #1
     ede:	4149      	adcs	r1, r1
     ee0:	bf28      	it	cs
     ee2:	f041 4100 	orrcs.w	r1, r1, #2147483648	@ 0x80000000
     ee6:	bd30      	pop	{r4, r5, pc}
     ee8:	f514 0480 	adds.w	r4, r4, #4194304	@ 0x400000
     eec:	bf3c      	itt	cc
     eee:	f501 1180 	addcc.w	r1, r1, #1048576	@ 0x100000
     ef2:	bd30      	popcc	{r4, r5, pc}
     ef4:	f001 4500 	and.w	r5, r1, #2147483648	@ 0x80000000
     ef8:	f045 41fe 	orr.w	r1, r5, #2130706432	@ 0x7f000000
     efc:	f441 0170 	orr.w	r1, r1, #15728640	@ 0xf00000
     f00:	f04f 0000 	mov.w	r0, #0
     f04:	bd30      	pop	{r4, r5, pc}
     f06:	ea7f 5c64 	mvns.w	ip, r4, asr #21
     f0a:	bf1a      	itte	ne
     f0c:	4619      	movne	r1, r3
     f0e:	4610      	movne	r0, r2
     f10:	ea7f 5c65 	mvnseq.w	ip, r5, asr #21
     f14:	bf1c      	itt	ne
     f16:	460b      	movne	r3, r1
     f18:	4602      	movne	r2, r0
     f1a:	ea50 3401 	orrs.w	r4, r0, r1, lsl #12
     f1e:	bf06      	itte	eq
     f20:	ea52 3503 	orrseq.w	r5, r2, r3, lsl #12
     f24:	ea91 0f03 	teqeq	r1, r3
     f28:	f441 2100 	orrne.w	r1, r1, #524288	@ 0x80000
     f2c:	bd30      	pop	{r4, r5, pc}
     f2e:	bf00      	nop

00000f30 <__aeabi_ui2d>:
     f30:	f090 0f00 	teq	r0, #0
     f34:	bf04      	itt	eq
     f36:	2100      	moveq	r1, #0
     f38:	4770      	bxeq	lr
     f3a:	b530      	push	{r4, r5, lr}
     f3c:	f44f 6480 	mov.w	r4, #1024	@ 0x400
     f40:	f104 0432 	add.w	r4, r4, #50	@ 0x32
     f44:	f04f 0500 	mov.w	r5, #0
     f48:	f04f 0100 	mov.w	r1, #0
     f4c:	e750      	b.n	df0 <__adddf3+0x138>
     f4e:	bf00      	nop

00000f50 <__aeabi_i2d>:
     f50:	f090 0f00 	teq	r0, #0
     f54:	bf04      	itt	eq
     f56:	2100      	moveq	r1, #0
     f58:	4770      	bxeq	lr
     f5a:	b530      	push	{r4, r5, lr}
     f5c:	f44f 6480 	mov.w	r4, #1024	@ 0x400
     f60:	f104 0432 	add.w	r4, r4, #50	@ 0x32
     f64:	f010 4500 	ands.w	r5, r0, #2147483648	@ 0x80000000
     f68:	bf48      	it	mi
     f6a:	4240      	negmi	r0, r0
     f6c:	f04f 0100 	mov.w	r1, #0
     f70:	e73e      	b.n	df0 <__adddf3+0x138>
     f72:	bf00      	nop

00000f74 <__aeabi_f2d>:
     f74:	0042      	lsls	r2, r0, #1
     f76:	ea4f 01e2 	mov.w	r1, r2, asr #3
     f7a:	ea4f 0131 	mov.w	r1, r1, rrx
     f7e:	ea4f 7002 	mov.w	r0, r2, lsl #28
     f82:	bf1f      	itttt	ne
     f84:	f012 437f 	andsne.w	r3, r2, #4278190080	@ 0xff000000
     f88:	f093 4f7f 	teqne	r3, #4278190080	@ 0xff000000
     f8c:	f081 5160 	eorne.w	r1, r1, #939524096	@ 0x38000000
     f90:	4770      	bxne	lr
     f92:	f032 427f 	bics.w	r2, r2, #4278190080	@ 0xff000000
     f96:	bf08      	it	eq
     f98:	4770      	bxeq	lr
     f9a:	f093 4f7f 	teq	r3, #4278190080	@ 0xff000000
     f9e:	bf04      	itt	eq
     fa0:	f441 2100 	orreq.w	r1, r1, #524288	@ 0x80000
     fa4:	4770      	bxeq	lr
     fa6:	b530      	push	{r4, r5, lr}
     fa8:	f44f 7460 	mov.w	r4, #896	@ 0x380
     fac:	f001 4500 	and.w	r5, r1, #2147483648	@ 0x80000000
     fb0:	f021 4100 	bic.w	r1, r1, #2147483648	@ 0x80000000
     fb4:	e71c      	b.n	df0 <__adddf3+0x138>
     fb6:	bf00      	nop

00000fb8 <__aeabi_ul2d>:
     fb8:	ea50 0201 	orrs.w	r2, r0, r1
     fbc:	bf08      	it	eq
     fbe:	4770      	bxeq	lr
     fc0:	b530      	push	{r4, r5, lr}
     fc2:	f04f 0500 	mov.w	r5, #0
     fc6:	e00a      	b.n	fde <__aeabi_l2d+0x16>

00000fc8 <__aeabi_l2d>:
     fc8:	ea50 0201 	orrs.w	r2, r0, r1
     fcc:	bf08      	it	eq
     fce:	4770      	bxeq	lr
     fd0:	b530      	push	{r4, r5, lr}
     fd2:	f011 4500 	ands.w	r5, r1, #2147483648	@ 0x80000000
     fd6:	d502      	bpl.n	fde <__aeabi_l2d+0x16>
     fd8:	4240      	negs	r0, r0
     fda:	eb61 0141 	sbc.w	r1, r1, r1, lsl #1
     fde:	f44f 6480 	mov.w	r4, #1024	@ 0x400
     fe2:	f104 0432 	add.w	r4, r4, #50	@ 0x32
     fe6:	ea5f 5c91 	movs.w	ip, r1, lsr #22
     fea:	f43f aed8 	beq.w	d9e <__adddf3+0xe6>
     fee:	f04f 0203 	mov.w	r2, #3
     ff2:	ea5f 0cdc 	movs.w	ip, ip, lsr #3
     ff6:	bf18      	it	ne
     ff8:	3203      	addne	r2, #3
     ffa:	ea5f 0cdc 	movs.w	ip, ip, lsr #3
     ffe:	bf18      	it	ne
    1000:	3203      	addne	r2, #3
    1002:	eb02 02dc 	add.w	r2, r2, ip, lsr #3
    1006:	f1c2 0320 	rsb	r3, r2, #32
    100a:	fa00 fc03 	lsl.w	ip, r0, r3
    100e:	fa20 f002 	lsr.w	r0, r0, r2
    1012:	fa01 fe03 	lsl.w	lr, r1, r3
    1016:	ea40 000e 	orr.w	r0, r0, lr
    101a:	fa21 f102 	lsr.w	r1, r1, r2
    101e:	4414      	add	r4, r2
    1020:	e6bd      	b.n	d9e <__adddf3+0xe6>
    1022:	bf00      	nop

00001024 <__aeabi_d2uiz>:
    1024:	004a      	lsls	r2, r1, #1
    1026:	d211      	bcs.n	104c <__aeabi_d2uiz+0x28>
    1028:	f512 1200 	adds.w	r2, r2, #2097152	@ 0x200000
    102c:	d211      	bcs.n	1052 <__aeabi_d2uiz+0x2e>
    102e:	d50d      	bpl.n	104c <__aeabi_d2uiz+0x28>
    1030:	f46f 7378 	mvn.w	r3, #992	@ 0x3e0
    1034:	ebb3 5262 	subs.w	r2, r3, r2, asr #21
    1038:	d40e      	bmi.n	1058 <__aeabi_d2uiz+0x34>
    103a:	ea4f 23c1 	mov.w	r3, r1, lsl #11
    103e:	f043 4300 	orr.w	r3, r3, #2147483648	@ 0x80000000
    1042:	ea43 5350 	orr.w	r3, r3, r0, lsr #21
    1046:	fa23 f002 	lsr.w	r0, r3, r2
    104a:	4770      	bx	lr
    104c:	f04f 0000 	mov.w	r0, #0
    1050:	4770      	bx	lr
    1052:	ea50 3001 	orrs.w	r0, r0, r1, lsl #12
    1056:	d102      	bne.n	105e <__aeabi_d2uiz+0x3a>
    1058:	f04f 30ff 	mov.w	r0, #4294967295
    105c:	4770      	bx	lr
    105e:	f04f 0000 	mov.w	r0, #0
    1062:	4770      	bx	lr
	...

00001080 <strlen>:
    1080:	b430      	push	{r4, r5}
    1082:	f890 f000 	pld	[r0]
    1086:	f020 0107 	bic.w	r1, r0, #7
    108a:	f06f 0c00 	mvn.w	ip, #0
    108e:	f010 0407 	ands.w	r4, r0, #7
    1092:	f891 f020 	pld	[r1, #32]
    1096:	f040 8048 	bne.w	112a <strlen+0xaa>
    109a:	f04f 0400 	mov.w	r4, #0
    109e:	f06f 0007 	mvn.w	r0, #7
    10a2:	e9d1 2300 	ldrd	r2, r3, [r1]
    10a6:	f891 f040 	pld	[r1, #64]	@ 0x40
    10aa:	f100 0008 	add.w	r0, r0, #8
    10ae:	fa82 f24c 	uadd8	r2, r2, ip
    10b2:	faa4 f28c 	sel	r2, r4, ip
    10b6:	fa83 f34c 	uadd8	r3, r3, ip
    10ba:	faa2 f38c 	sel	r3, r2, ip
    10be:	bb4b      	cbnz	r3, 1114 <strlen+0x94>
    10c0:	e9d1 2302 	ldrd	r2, r3, [r1, #8]
    10c4:	fa82 f24c 	uadd8	r2, r2, ip
    10c8:	f100 0008 	add.w	r0, r0, #8
    10cc:	faa4 f28c 	sel	r2, r4, ip
    10d0:	fa83 f34c 	uadd8	r3, r3, ip
    10d4:	faa2 f38c 	sel	r3, r2, ip
    10d8:	b9e3      	cbnz	r3, 1114 <strlen+0x94>
    10da:	e9d1 2304 	ldrd	r2, r3, [r1, #16]
    10de:	fa82 f24c 	uadd8	r2, r2, ip
    10e2:	f100 0008 	add.w	r0, r0, #8
    10e6:	faa4 f28c 	sel	r2, r4, ip
    10ea:	fa83 f34c 	uadd8	r3, r3, ip
    10ee:	faa2 f38c 	sel	r3, r2, ip
    10f2:	b97b      	cbnz	r3, 1114 <strlen+0x94>
    10f4:	e9d1 2306 	ldrd	r2, r3, [r1, #24]
    10f8:	f101 0120 	add.w	r1, r1, #32
    10fc:	fa82 f24c 	uadd8	r2, r2, ip
    1100:	f100 0008 	add.w	r0, r0, #8
    1104:	faa4 f28c 	sel	r2, r4, ip
    1108:	fa83 f34c 	uadd8	r3, r3, ip
    110c:	faa2 f38c 	sel	r3, r2, ip
    1110:	2b00      	cmp	r3, #0
    1112:	d0c6      	beq.n	10a2 <strlen+0x22>
    1114:	2a00      	cmp	r2, #0
    1116:	bf04      	itt	eq
    1118:	3004      	addeq	r0, #4
    111a:	461a      	moveq	r2, r3
    111c:	ba12      	rev	r2, r2
    111e:	fab2 f282 	clz	r2, r2
    1122:	eb00 00d2 	add.w	r0, r0, r2, lsr #3
    1126:	bc30      	pop	{r4, r5}
    1128:	4770      	bx	lr
    112a:	e9d1 2300 	ldrd	r2, r3, [r1]
    112e:	f004 0503 	and.w	r5, r4, #3
    1132:	f1c4 0000 	rsb	r0, r4, #0
    1136:	ea4f 05c5 	mov.w	r5, r5, lsl #3
    113a:	f014 0f04 	tst.w	r4, #4
    113e:	f891 f040 	pld	[r1, #64]	@ 0x40
    1142:	fa0c f505 	lsl.w	r5, ip, r5
    1146:	ea62 0205 	orn	r2, r2, r5
    114a:	bf1c      	itt	ne
    114c:	ea63 0305 	ornne	r3, r3, r5
    1150:	4662      	movne	r2, ip
    1152:	f04f 0400 	mov.w	r4, #0
    1156:	e7aa      	b.n	10ae <strlen+0x2e>

00001158 <_exit>:
    1158:	e7fe      	b.n	1158 <_exit>
    115a:	bf00      	nop

0000115c <_init>:
    115c:	b5f8      	push	{r3, r4, r5, r6, r7, lr}
    115e:	bf00      	nop
    1160:	bcf8      	pop	{r3, r4, r5, r6, r7}
    1162:	bc08      	pop	{r3}
    1164:	469e      	mov	lr, r3
    1166:	4770      	bx	lr

00001168 <_fini>:
    1168:	b5f8      	push	{r3, r4, r5, r6, r7, lr}
    116a:	bf00      	nop
    116c:	bcf8      	pop	{r3, r4, r5, r6, r7}
    116e:	bc08      	pop	{r3}
    1170:	469e      	mov	lr, r3
    1172:	4770      	bx	lr

00001174 <__EH_FRAME_BEGIN__>:
    1174:	00000000 			@ <UNDEFINED> instruction: 00000000

Disassembly of section .ARM.exidx:

00001178 <__exidx_end-0x8>:
    1178:	7ffff020 			@ <UNDEFINED> instruction: 7ffff020
    117c:	00000001 			@ <UNDEFINED> instruction: 00000001

Disassembly of section .copy.table:

00001180 <__copy_table_start__>:
    1180:	00001194 			@ <UNDEFINED> instruction: 00001194
    1184:	20000000 			@ <UNDEFINED> instruction: 20000000
    1188:	0000004c 			@ <UNDEFINED> instruction: 0000004c

Disassembly of section .data:

20000000 <__atexit_recursive_mutex>:
20000000:	200001bc 			@ <UNDEFINED> instruction: 200001bc

20000004 <msg>:
20000004:	6c6c6548 			@ <UNDEFINED> instruction: 6c6c6548
20000008:	7266206f 			@ <UNDEFINED> instruction: 7266206f
2000000c:	4b206d6f 			@ <UNDEFINED> instruction: 4b206d6f
20000010:	31323931 			@ <UNDEFINED> instruction: 31323931
20000014:	33304b56 			@ <UNDEFINED> instruction: 33304b56
20000018:	696d2035 			@ <UNDEFINED> instruction: 696d2035
2000001c:	636f7263 			@ <UNDEFINED> instruction: 636f7263
20000020:	72746e6f 			@ <UNDEFINED> instruction: 72746e6f
20000024:	656c6c6f 			@ <UNDEFINED> instruction: 656c6c6f
20000028:	000a0d72 			@ <UNDEFINED> instruction: 000a0d72
	...

20000044 <__frame_dummy_init_array_entry>:
20000044:	0000017d 			@ <UNDEFINED> instruction: 0000017d

20000048 <__do_global_dtors_aux_fini_array_entry>:
20000048:	00000159 			@ <UNDEFINED> instruction: 00000159

Disassembly of section .zero.table:

0000118c <__zero_table_start__>:
    118c:	2000004c 			@ <UNDEFINED> instruction: 2000004c
    1190:	00000314 			@ <UNDEFINED> instruction: 00000314

Disassembly of section .stack_dummy:

20000360 <__HeapBase>:
	...

Disassembly of section .ARM.attributes:

00000000 <.ARM.attributes>:
   0:	00002f41 			@ <UNDEFINED> instruction: 00002f41
   4:	61656100 			@ <UNDEFINED> instruction: 61656100
   8:	01006962 			@ <UNDEFINED> instruction: 01006962
   c:	00000025 			@ <UNDEFINED> instruction: 00000025
  10:	2d453705 			@ <UNDEFINED> instruction: 2d453705
  14:	0d06004d 			@ <UNDEFINED> instruction: 0d06004d
  18:	02094d07 			@ <UNDEFINED> instruction: 02094d07
  1c:	0412060a 			@ <UNDEFINED> instruction: 0412060a
  20:	01150114 			@ <UNDEFINED> instruction: 01150114
  24:	01180317 			@ <UNDEFINED> instruction: 01180317
  28:	011b011a 			@ <UNDEFINED> instruction: 011b011a
  2c:	0122011c 			@ <UNDEFINED> instruction: 0122011c

Disassembly of section .comment:

00000000 <.comment>:
   0:	3a434347 			@ <UNDEFINED> instruction: 3a434347
   4:	4e472820 			@ <UNDEFINED> instruction: 4e472820
   8:	31202955 			@ <UNDEFINED> instruction: 31202955
   c:	2e332e33 			@ <UNDEFINED> instruction: 2e332e33
  10:	Address 0x10 is out of bounds.


Disassembly of section .debug_line_str:

00000000 <.debug_line_str>:
   0:	4d5c3a43 	vldrmi	s7, [ip, #-268]	@ 0xfffffef4
   4:	735c425c 			@ <UNDEFINED> instruction: 735c425c
   8:	625c6372 			@ <UNDEFINED> instruction: 625c6372
   c:	646c6975 			@ <UNDEFINED> instruction: 646c6975
  10:	4e494d2d 			@ <UNDEFINED> instruction: 4e494d2d
  14:	34365747 			@ <UNDEFINED> instruction: 34365747
  18:	6d72615c 			@ <UNDEFINED> instruction: 6d72615c
  1c:	6e6f6e2d 			@ <UNDEFINED> instruction: 6e6f6e2d
  20:	61652d65 			@ <UNDEFINED> instruction: 61652d65
  24:	745c6962 			@ <UNDEFINED> instruction: 745c6962
  28:	626d7568 			@ <UNDEFINED> instruction: 626d7568
  2c:	6537765c 			@ <UNDEFINED> instruction: 6537765c
  30:	662b6d2d 			@ <UNDEFINED> instruction: 662b6d2d
  34:	61685c70 			@ <UNDEFINED> instruction: 61685c70
  38:	6c5c6472 	mrrcvs	4, 7, r6, ip, cr2
  3c:	6c676269 			@ <UNDEFINED> instruction: 6c676269
  40:	0073736f 			@ <UNDEFINED> instruction: 0073736f
  44:	4d2f3a43 	vstmdbmi	pc!, {s6-s72}
  48:	732f422f 			@ <UNDEFINED> instruction: 732f422f
  4c:	6e2f6372 			@ <UNDEFINED> instruction: 6e2f6372
  50:	696c7765 			@ <UNDEFINED> instruction: 696c7765
  54:	2e342d62 			@ <UNDEFINED> instruction: 2e342d62
  58:	2e302e35 			@ <UNDEFINED> instruction: 2e302e35
  5c:	34323032 			@ <UNDEFINED> instruction: 34323032
  60:	31333231 			@ <UNDEFINED> instruction: 31333231
  64:	62696c2f 			@ <UNDEFINED> instruction: 62696c2f
  68:	736f6c67 			@ <UNDEFINED> instruction: 736f6c67
  6c:	72612f73 			@ <UNDEFINED> instruction: 72612f73
  70:	7263006d 			@ <UNDEFINED> instruction: 7263006d
  74:	532e3074 			@ <UNDEFINED> instruction: 532e3074
  78:	5c3a4300 			@ <UNDEFINED> instruction: 5c3a4300
  7c:	5c425c4d 	mcrrpl	12, 4, r5, r2, cr13
  80:	5c637273 			@ <UNDEFINED> instruction: 5c637273
  84:	6c697562 			@ <UNDEFINED> instruction: 6c697562
  88:	494d2d64 			@ <UNDEFINED> instruction: 494d2d64
  8c:	3657474e 			@ <UNDEFINED> instruction: 3657474e
  90:	72615c34 			@ <UNDEFINED> instruction: 72615c34
  94:	6f6e2d6d 			@ <UNDEFINED> instruction: 6f6e2d6d
  98:	652d656e 			@ <UNDEFINED> instruction: 652d656e
  9c:	5c696261 			@ <UNDEFINED> instruction: 5c696261
  a0:	6d756874 			@ <UNDEFINED> instruction: 6d756874
  a4:	37765c62 			@ <UNDEFINED> instruction: 37765c62
  a8:	2b6d2d65 			@ <UNDEFINED> instruction: 2b6d2d65
  ac:	685c7066 			@ <UNDEFINED> instruction: 685c7066
  b0:	5c647261 			@ <UNDEFINED> instruction: 5c647261
  b4:	6762696c 			@ <UNDEFINED> instruction: 6762696c
  b8:	43006363 	movwmi	r6, #867	@ 0x363
  bc:	2f4d2f3a 			@ <UNDEFINED> instruction: 2f4d2f3a
  c0:	72732f42 			@ <UNDEFINED> instruction: 72732f42
  c4:	63672f63 			@ <UNDEFINED> instruction: 63672f63
  c8:	33312d63 			@ <UNDEFINED> instruction: 33312d63
  cc:	302e332e 			@ <UNDEFINED> instruction: 302e332e
  d0:	62696c2f 			@ <UNDEFINED> instruction: 62696c2f
  d4:	2f636367 			@ <UNDEFINED> instruction: 2f636367
  d8:	666e6f63 			@ <UNDEFINED> instruction: 666e6f63
  dc:	612f6769 			@ <UNDEFINED> instruction: 612f6769
  e0:	69006d72 			@ <UNDEFINED> instruction: 69006d72
  e4:	37656565 			@ <UNDEFINED> instruction: 37656565
  e8:	642d3435 			@ <UNDEFINED> instruction: 642d3435
  ec:	00532e66 			@ <UNDEFINED> instruction: 00532e66
  f0:	4d5c3a43 	vldrmi	s7, [ip, #-268]	@ 0xfffffef4
  f4:	735c425c 			@ <UNDEFINED> instruction: 735c425c
  f8:	6e5c6372 			@ <UNDEFINED> instruction: 6e5c6372
  fc:	2d6f6e61 			@ <UNDEFINED> instruction: 2d6f6e61
 100:	6c697562 			@ <UNDEFINED> instruction: 6c697562
 104:	494d2d64 			@ <UNDEFINED> instruction: 494d2d64
 108:	3657474e 			@ <UNDEFINED> instruction: 3657474e
 10c:	72615c34 			@ <UNDEFINED> instruction: 72615c34
 110:	6f6e2d6d 			@ <UNDEFINED> instruction: 6f6e2d6d
 114:	652d656e 			@ <UNDEFINED> instruction: 652d656e
 118:	5c696261 			@ <UNDEFINED> instruction: 5c696261
 11c:	6d756874 			@ <UNDEFINED> instruction: 6d756874
 120:	37765c62 			@ <UNDEFINED> instruction: 37765c62
 124:	2b6d2d65 			@ <UNDEFINED> instruction: 2b6d2d65
 128:	685c7066 			@ <UNDEFINED> instruction: 685c7066
 12c:	5c647261 			@ <UNDEFINED> instruction: 5c647261
 130:	6c77656e 			@ <UNDEFINED> instruction: 6c77656e
 134:	43006269 	movwmi	r6, #617	@ 0x269
 138:	2f4d2f3a 			@ <UNDEFINED> instruction: 2f4d2f3a
 13c:	72732f42 			@ <UNDEFINED> instruction: 72732f42
 140:	656e2f63 			@ <UNDEFINED> instruction: 656e2f63
 144:	62696c77 			@ <UNDEFINED> instruction: 62696c77
 148:	352e342d 			@ <UNDEFINED> instruction: 352e342d
 14c:	322e302e 			@ <UNDEFINED> instruction: 322e302e
 150:	31343230 			@ <UNDEFINED> instruction: 31343230
 154:	2f313332 			@ <UNDEFINED> instruction: 2f313332
 158:	6c77656e 			@ <UNDEFINED> instruction: 6c77656e
 15c:	6c2f6269 			@ <UNDEFINED> instruction: 6c2f6269
 160:	2f636269 			@ <UNDEFINED> instruction: 2f636269
 164:	6863616d 			@ <UNDEFINED> instruction: 6863616d
 168:	2f656e69 			@ <UNDEFINED> instruction: 2f656e69
 16c:	006d7261 			@ <UNDEFINED> instruction: 006d7261
 170:	6c727473 			@ <UNDEFINED> instruction: 6c727473
 174:	612d6e65 			@ <UNDEFINED> instruction: 612d6e65
 178:	37766d72 			@ <UNDEFINED> instruction: 37766d72
 17c:	Address 0x17c is out of bounds.


Disassembly of section .debug_info:

00000000 <.debug_info>:
       0:	0000011a 			@ <UNDEFINED> instruction: 0000011a
       4:	04010005 			@ <UNDEFINED> instruction: 04010005
       8:	00000000 			@ <UNDEFINED> instruction: 00000000
       c:	0000cf05 			@ <UNDEFINED> instruction: 0000cf05
      10:	00921d00 			@ <UNDEFINED> instruction: 00921d00
      14:	001d0000 			@ <UNDEFINED> instruction: 001d0000
      18:	02080000 			@ <UNDEFINED> instruction: 02080000
      1c:	000c0000 			@ <UNDEFINED> instruction: 000c0000
      20:	00000000 			@ <UNDEFINED> instruction: 00000000
      24:	08010000 			@ <UNDEFINED> instruction: 08010000
      28:	00006407 			@ <UNDEFINED> instruction: 00006407
      2c:	07040100 			@ <UNDEFINED> instruction: 07040100
      30:	0000006e 			@ <UNDEFINED> instruction: 0000006e
      34:	69050406 			@ <UNDEFINED> instruction: 69050406
      38:	0100746e 			@ <UNDEFINED> instruction: 0100746e
      3c:	00000508 			@ <UNDEFINED> instruction: 00000508
      40:	08010000 			@ <UNDEFINED> instruction: 08010000
      44:	00015604 			@ <UNDEFINED> instruction: 00015604
      48:	06010100 			@ <UNDEFINED> instruction: 06010100
      4c:	00000086 			@ <UNDEFINED> instruction: 00000086
      50:	84080101 			@ <UNDEFINED> instruction: 84080101
      54:	01000000 			@ <UNDEFINED> instruction: 01000000
      58:	01620502 			@ <UNDEFINED> instruction: 01620502
      5c:	02010000 			@ <UNDEFINED> instruction: 02010000
      60:	00014307 			@ <UNDEFINED> instruction: 00014307
      64:	05040100 			@ <UNDEFINED> instruction: 05040100
      68:	00000005 			@ <UNDEFINED> instruction: 00000005
      6c:	69070401 			@ <UNDEFINED> instruction: 69070401
      70:	07000000 			@ <UNDEFINED> instruction: 07000000
      74:	7b040804 			@ <UNDEFINED> instruction: 7b040804
      78:	09000000 			@ <UNDEFINED> instruction: 09000000
      7c:	8d080101 			@ <UNDEFINED> instruction: 8d080101
      80:	0a000000 			@ <UNDEFINED> instruction: 0a000000
      84:	0000000e 			@ <UNDEFINED> instruction: 0000000e
      88:	00500107 			@ <UNDEFINED> instruction: 00500107
      8c:	05020000 			@ <UNDEFINED> instruction: 05020000
      90:	0000a806 			@ <UNDEFINED> instruction: 0000a806
      94:	016c0400 			@ <UNDEFINED> instruction: 016c0400
      98:	04000000 			@ <UNDEFINED> instruction: 04000000
      9c:	00000178 			@ <UNDEFINED> instruction: 00000178
      a0:	007b0401 			@ <UNDEFINED> instruction: 007b0401
      a4:	00020000 			@ <UNDEFINED> instruction: 00020000
      a8:	00012f0b 			@ <UNDEFINED> instruction: 00012f0b
      ac:	050d0200 			@ <UNDEFINED> instruction: 050d0200
      b0:	00000034 			@ <UNDEFINED> instruction: 00000034
      b4:	000000cd 			@ <UNDEFINED> instruction: 000000cd
      b8:	00003402 			@ <UNDEFINED> instruction: 00003402
      bc:	00750200 			@ <UNDEFINED> instruction: 00750200
      c0:	73020000 	movwvc	r0, #8192	@ 0x2000
      c4:	02000000 			@ <UNDEFINED> instruction: 02000000
      c8:	00000073 			@ <UNDEFINED> instruction: 00000073
      cc:	0ad00c00 			@ <UNDEFINED> instruction: 0ad00c00
      d0:	4c030000 			@ <UNDEFINED> instruction: 4c030000
      d4:	00003405 			@ <UNDEFINED> instruction: 00003405
      d8:	00020800 			@ <UNDEFINED> instruction: 00020800
      dc:	00000c00 			@ <UNDEFINED> instruction: 00000c00
      e0:	0d9c0100 			@ <UNDEFINED> instruction: 0d9c0100
      e4:	01006e66 			@ <UNDEFINED> instruction: 01006e66
      e8:	00751038 			@ <UNDEFINED> instruction: 00751038
      ec:	00120000 			@ <UNDEFINED> instruction: 00120000
      f0:	000c0000 			@ <UNDEFINED> instruction: 000c0000
      f4:	140e0000 			@ <UNDEFINED> instruction: 140e0000
      f8:	a8000002 			@ <UNDEFINED> instruction: a8000002
      fc:	03000000 	movweq	r0, #0
     100:	30015001 			@ <UNDEFINED> instruction: 30015001
     104:	09510103 			@ <UNDEFINED> instruction: 09510103
     108:	00a503a3 			@ <UNDEFINED> instruction: 00a503a3
     10c:	a82da826 			@ <UNDEFINED> instruction: a82da826
     110:	52010300 			@ <UNDEFINED> instruction: 52010300
     114:	01033001 			@ <UNDEFINED> instruction: 01033001
     118:	00300153 			@ <UNDEFINED> instruction: 00300153
     11c:	01170000 			@ <UNDEFINED> instruction: 01170000
     120:	00050000 			@ <UNDEFINED> instruction: 00050000
     124:	00c10401 			@ <UNDEFINED> instruction: 00c10401
     128:	cf050000 			@ <UNDEFINED> instruction: cf050000
     12c:	1d000000 			@ <UNDEFINED> instruction: 1d000000
     130:	0000019b 			@ <UNDEFINED> instruction: 0000019b
     134:	0000001d 			@ <UNDEFINED> instruction: 0000001d
     138:	00000214 			@ <UNDEFINED> instruction: 00000214
     13c:	00000024 			@ <UNDEFINED> instruction: 00000024
     140:	000000c8 			@ <UNDEFINED> instruction: 000000c8
     144:	6e070401 			@ <UNDEFINED> instruction: 6e070401
     148:	06000000 			@ <UNDEFINED> instruction: 06000000
     14c:	6e690504 			@ <UNDEFINED> instruction: 6e690504
     150:	08010074 			@ <UNDEFINED> instruction: 08010074
     154:	00000005 			@ <UNDEFINED> instruction: 00000005
     158:	04080100 			@ <UNDEFINED> instruction: 04080100
     15c:	00000156 			@ <UNDEFINED> instruction: 00000156
     160:	86060101 			@ <UNDEFINED> instruction: 86060101
     164:	01000000 			@ <UNDEFINED> instruction: 01000000
     168:	00840801 			@ <UNDEFINED> instruction: 00840801
     16c:	02010000 			@ <UNDEFINED> instruction: 02010000
     170:	00016205 			@ <UNDEFINED> instruction: 00016205
     174:	07020100 			@ <UNDEFINED> instruction: 07020100
     178:	00000143 			@ <UNDEFINED> instruction: 00000143
     17c:	05050401 			@ <UNDEFINED> instruction: 05050401
     180:	01000000 			@ <UNDEFINED> instruction: 01000000
     184:	00690704 			@ <UNDEFINED> instruction: 00690704
     188:	08010000 			@ <UNDEFINED> instruction: 08010000
     18c:	00006407 			@ <UNDEFINED> instruction: 00006407
     190:	08040700 			@ <UNDEFINED> instruction: 08040700
     194:	00007b04 			@ <UNDEFINED> instruction: 00007b04
     198:	01010900 			@ <UNDEFINED> instruction: 01010900
     19c:	00008d08 			@ <UNDEFINED> instruction: 00008d08
     1a0:	01db0a00 			@ <UNDEFINED> instruction: 01db0a00
     1a4:	98020000 			@ <UNDEFINED> instruction: 98020000
     1a8:	00750f03 			@ <UNDEFINED> instruction: 00750f03
     1ac:	840b0000 			@ <UNDEFINED> instruction: 840b0000
     1b0:	03000001 	movweq	r0, #1
     1b4:	00a20612 			@ <UNDEFINED> instruction: 00a20612
     1b8:	2d020000 			@ <UNDEFINED> instruction: 2d020000
     1bc:	00000000 			@ <UNDEFINED> instruction: 00000000
     1c0:	00018a04 			@ <UNDEFINED> instruction: 00018a04
     1c4:	0000b600 			@ <UNDEFINED> instruction: 0000b600
     1c8:	002d0200 			@ <UNDEFINED> instruction: 002d0200
     1cc:	73020000 	movwvc	r0, #8192	@ 0x2000
     1d0:	00000000 			@ <UNDEFINED> instruction: 00000000
     1d4:	0001850c 			@ <UNDEFINED> instruction: 0001850c
     1d8:	065d0400 			@ <UNDEFINED> instruction: 065d0400
     1dc:	00000214 			@ <UNDEFINED> instruction: 00000214
     1e0:	00000024 			@ <UNDEFINED> instruction: 00000024
     1e4:	d60d9c01 			@ <UNDEFINED> instruction: d60d9c01
     1e8:	01000001 			@ <UNDEFINED> instruction: 01000001
     1ec:	002d0b35 			@ <UNDEFINED> instruction: 002d0b35
     1f0:	003b0000 			@ <UNDEFINED> instruction: 003b0000
     1f4:	00370000 			@ <UNDEFINED> instruction: 00370000
     1f8:	8a040000 			@ <UNDEFINED> instruction: 8a040000
     1fc:	f0000001 			@ <UNDEFINED> instruction: f0000001
     200:	02000000 			@ <UNDEFINED> instruction: 02000000
     204:	0000002d 			@ <UNDEFINED> instruction: 0000002d
     208:	00007302 			@ <UNDEFINED> instruction: 00007302
     20c:	220e0000 			@ <UNDEFINED> instruction: 220e0000
     210:	a2000002 			@ <UNDEFINED> instruction: a2000002
     214:	09000000 			@ <UNDEFINED> instruction: 09000000
     218:	03000001 	movweq	r0, #1
     21c:	74025001 			@ <UNDEFINED> instruction: 74025001
     220:	51010300 			@ <UNDEFINED> instruction: 51010300
     224:	0f003001 			@ <UNDEFINED> instruction: 0f003001
     228:	00000230 			@ <UNDEFINED> instruction: 00000230
     22c:	00000090 			@ <UNDEFINED> instruction: 00000090
     230:	02500103 			@ <UNDEFINED> instruction: 02500103
     234:	00000074 			@ <UNDEFINED> instruction: 00000074
     238:	0010c000 			@ <UNDEFINED> instruction: 0010c000
     23c:	01000500 			@ <UNDEFINED> instruction: 01000500
     240:	00019904 			@ <UNDEFINED> instruction: 00019904
     244:	00cf3100 			@ <UNDEFINED> instruction: 00cf3100
     248:	e71d0000 			@ <UNDEFINED> instruction: e71d0000
     24c:	1d000004 			@ <UNDEFINED> instruction: 1d000004
     250:	00000000 			@ <UNDEFINED> instruction: 00000000
     254:	dc000000 			@ <UNDEFINED> instruction: dc000000
     258:	f0000002 			@ <UNDEFINED> instruction: f0000002
     25c:	08000001 			@ <UNDEFINED> instruction: 08000001
     260:	00640708 			@ <UNDEFINED> instruction: 00640708
     264:	04080000 			@ <UNDEFINED> instruction: 04080000
     268:	00006e07 			@ <UNDEFINED> instruction: 00006e07
     26c:	05043200 			@ <UNDEFINED> instruction: 05043200
     270:	00746e69 			@ <UNDEFINED> instruction: 00746e69
     274:	0003bf0b 			@ <UNDEFINED> instruction: 0003bf0b
     278:	17d60200 			@ <UNDEFINED> instruction: 17d60200
     27c:	0000002d 			@ <UNDEFINED> instruction: 0000002d
     280:	00050808 			@ <UNDEFINED> instruction: 00050808
     284:	08000000 			@ <UNDEFINED> instruction: 08000000
     288:	01560408 			@ <UNDEFINED> instruction: 01560408
     28c:	01080000 			@ <UNDEFINED> instruction: 01080000
     290:	00008606 			@ <UNDEFINED> instruction: 00008606
     294:	08010800 			@ <UNDEFINED> instruction: 08010800
     298:	00000084 			@ <UNDEFINED> instruction: 00000084
     29c:	62050208 			@ <UNDEFINED> instruction: 62050208
     2a0:	08000001 			@ <UNDEFINED> instruction: 08000001
     2a4:	01430702 			@ <UNDEFINED> instruction: 01430702
     2a8:	04080000 			@ <UNDEFINED> instruction: 04080000
     2ac:	00000505 			@ <UNDEFINED> instruction: 00000505
     2b0:	07040800 			@ <UNDEFINED> instruction: 07040800
     2b4:	00000069 			@ <UNDEFINED> instruction: 00000069
     2b8:	00063f24 			@ <UNDEFINED> instruction: 00063f24
     2bc:	01670200 			@ <UNDEFINED> instruction: 01670200
     2c0:	00002d17 			@ <UNDEFINED> instruction: 00002d17
     2c4:	06fb0b00 			@ <UNDEFINED> instruction: 06fb0b00
     2c8:	2e030000 			@ <UNDEFINED> instruction: 2e030000
     2cc:	0000710e 			@ <UNDEFINED> instruction: 0000710e
     2d0:	02b40b00 			@ <UNDEFINED> instruction: 02b40b00
     2d4:	74030000 			@ <UNDEFINED> instruction: 74030000
     2d8:	0000710e 			@ <UNDEFINED> instruction: 0000710e
     2dc:	03043300 	movweq	r3, #17152	@ 0x4300
     2e0:	00c403a5 			@ <UNDEFINED> instruction: 00c403a5
     2e4:	b6250000 			@ <UNDEFINED> instruction: b6250000
     2e8:	a7000004 			@ <UNDEFINED> instruction: a7000004
     2ec:	00007f0c 			@ <UNDEFINED> instruction: 00007f0c
     2f0:	05ca2500 			@ <UNDEFINED> instruction: 05ca2500
     2f4:	13a80000 			@ <UNDEFINED> instruction: 13a80000
     2f8:	000000c4 			@ <UNDEFINED> instruction: 000000c4
     2fc:	005c0c00 			@ <UNDEFINED> instruction: 005c0c00
     300:	00d40000 			@ <UNDEFINED> instruction: 00d40000
     304:	2d0d0000 			@ <UNDEFINED> instruction: 2d0d0000
     308:	03000000 	movweq	r0, #0
     30c:	03083400 	movweq	r3, #33792	@ 0x8400
     310:	00f809a2 			@ <UNDEFINED> instruction: 00f809a2
     314:	22030000 			@ <UNDEFINED> instruction: 22030000
     318:	03000003 	movweq	r0, #3
     31c:	003407a4 			@ <UNDEFINED> instruction: 003407a4
     320:	03000000 	movweq	r0, #0
     324:	00000429 			@ <UNDEFINED> instruction: 00000429
     328:	a405a903 			@ <UNDEFINED> instruction: a405a903
     32c:	04000000 			@ <UNDEFINED> instruction: 04000000
     330:	05680b00 			@ <UNDEFINED> instruction: 05680b00
     334:	aa030000 			@ <UNDEFINED> instruction: aa030000
     338:	0000d403 			@ <UNDEFINED> instruction: 0000d403
     33c:	0b043500 			@ <UNDEFINED> instruction: 0b043500
     340:	00000540 			@ <UNDEFINED> instruction: 00000540
     344:	78191704 			@ <UNDEFINED> instruction: 78191704
     348:	0b000000 			@ <UNDEFINED> instruction: 0b000000
     34c:	000005b0 			@ <UNDEFINED> instruction: 000005b0
     350:	1e192205 			@ <UNDEFINED> instruction: 1e192205
     354:	05000001 			@ <UNDEFINED> instruction: 05000001
     358:	00000123 			@ <UNDEFINED> instruction: 00000123
     35c:	00064626 			@ <UNDEFINED> instruction: 00064626
     360:	04ad0b00 			@ <UNDEFINED> instruction: 04ad0b00
     364:	24040000 			@ <UNDEFINED> instruction: 24040000
     368:	0001121b 			@ <UNDEFINED> instruction: 0001121b
     36c:	02d51000 			@ <UNDEFINED> instruction: 02d51000
     370:	04180000 			@ <UNDEFINED> instruction: 04180000
     374:	00018b35 			@ <UNDEFINED> instruction: 00018b35
     378:	072e0300 			@ <UNDEFINED> instruction: 072e0300
     37c:	37040000 			@ <UNDEFINED> instruction: 37040000
     380:	00018b13 			@ <UNDEFINED> instruction: 00018b13
     384:	5f090000 			@ <UNDEFINED> instruction: 5f090000
     388:	0738006b 			@ <UNDEFINED> instruction: 0738006b
     38c:	00000034 			@ <UNDEFINED> instruction: 00000034
     390:	06130304 			@ <UNDEFINED> instruction: 06130304
     394:	38040000 			@ <UNDEFINED> instruction: 38040000
     398:	0000340b 			@ <UNDEFINED> instruction: 0000340b
     39c:	c4030800 			@ <UNDEFINED> instruction: c4030800
     3a0:	04000005 			@ <UNDEFINED> instruction: 04000005
     3a4:	00341438 			@ <UNDEFINED> instruction: 00341438
     3a8:	030c0000 	movweq	r0, #49152	@ 0xc000
     3ac:	00000367 			@ <UNDEFINED> instruction: 00000367
     3b0:	341b3804 			@ <UNDEFINED> instruction: 341b3804
     3b4:	10000000 			@ <UNDEFINED> instruction: 10000000
     3b8:	00785f09 			@ <UNDEFINED> instruction: 00785f09
     3bc:	01900b39 			@ <UNDEFINED> instruction: 01900b39
     3c0:	00140000 			@ <UNDEFINED> instruction: 00140000
     3c4:	00013405 			@ <UNDEFINED> instruction: 00013405
     3c8:	01060c00 			@ <UNDEFINED> instruction: 01060c00
     3cc:	01a00000 			@ <UNDEFINED> instruction: 01a00000
     3d0:	2d0d0000 			@ <UNDEFINED> instruction: 2d0d0000
     3d4:	00000000 			@ <UNDEFINED> instruction: 00000000
     3d8:	062e1000 			@ <UNDEFINED> instruction: 062e1000
     3dc:	04240000 			@ <UNDEFINED> instruction: 04240000
     3e0:	0002223d 			@ <UNDEFINED> instruction: 0002223d
     3e4:	03c60300 			@ <UNDEFINED> instruction: 03c60300
     3e8:	3f040000 			@ <UNDEFINED> instruction: 3f040000
     3ec:	00003409 			@ <UNDEFINED> instruction: 00003409
     3f0:	2a030000 			@ <UNDEFINED> instruction: 2a030000
     3f4:	04000003 			@ <UNDEFINED> instruction: 04000003
     3f8:	00340940 			@ <UNDEFINED> instruction: 00340940
     3fc:	03040000 	movweq	r0, #16384	@ 0x4000
     400:	00000318 			@ <UNDEFINED> instruction: 00000318
     404:	34094104 			@ <UNDEFINED> instruction: 34094104
     408:	08000000 			@ <UNDEFINED> instruction: 08000000
     40c:	00046403 			@ <UNDEFINED> instruction: 00046403
     410:	09420400 			@ <UNDEFINED> instruction: 09420400
     414:	00000034 			@ <UNDEFINED> instruction: 00000034
     418:	05a7030c 			@ <UNDEFINED> instruction: 05a7030c
     41c:	43040000 	movwmi	r0, #16384	@ 0x4000
     420:	00003409 			@ <UNDEFINED> instruction: 00003409
     424:	d1031000 			@ <UNDEFINED> instruction: d1031000
     428:	04000005 			@ <UNDEFINED> instruction: 04000005
     42c:	00340944 			@ <UNDEFINED> instruction: 00340944
     430:	03140000 			@ <UNDEFINED> instruction: 03140000
     434:	000002e2 			@ <UNDEFINED> instruction: 000002e2
     438:	34094504 			@ <UNDEFINED> instruction: 34094504
     43c:	18000000 			@ <UNDEFINED> instruction: 18000000
     440:	0003f803 			@ <UNDEFINED> instruction: 0003f803
     444:	09460400 			@ <UNDEFINED> instruction: 09460400
     448:	00000034 			@ <UNDEFINED> instruction: 00000034
     44c:	057a031c 			@ <UNDEFINED> instruction: 057a031c
     450:	47040000 			@ <UNDEFINED> instruction: 47040000
     454:	00003409 			@ <UNDEFINED> instruction: 00003409
     458:	05002000 			@ <UNDEFINED> instruction: 05002000
     45c:	00000227 			@ <UNDEFINED> instruction: 00000227
     460:	06721036 			@ <UNDEFINED> instruction: 06721036
     464:	04080000 			@ <UNDEFINED> instruction: 04080000
     468:	00024f74 			@ <UNDEFINED> instruction: 00024f74
     46c:	05230300 			@ <UNDEFINED> instruction: 05230300
     470:	75040000 			@ <UNDEFINED> instruction: 75040000
     474:	00024f11 			@ <UNDEFINED> instruction: 00024f11
     478:	f5030000 			@ <UNDEFINED> instruction: f5030000
     47c:	04000006 			@ <UNDEFINED> instruction: 04000006
     480:	00340676 			@ <UNDEFINED> instruction: 00340676
     484:	00040000 			@ <UNDEFINED> instruction: 00040000
     488:	00005c05 			@ <UNDEFINED> instruction: 00005c05
     48c:	035f1000 			@ <UNDEFINED> instruction: 035f1000
     490:	04680000 			@ <UNDEFINED> instruction: 04680000
     494:	00038e99 			@ <UNDEFINED> instruction: 00038e99
     498:	705f0900 			@ <UNDEFINED> instruction: 705f0900
     49c:	4f129a00 			@ <UNDEFINED> instruction: 4f129a00
     4a0:	00000002 			@ <UNDEFINED> instruction: 00000002
     4a4:	00725f09 			@ <UNDEFINED> instruction: 00725f09
     4a8:	0034079b 			@ <UNDEFINED> instruction: 0x0034079b
     4ac:	09040000 			@ <UNDEFINED> instruction: 09040000
     4b0:	9c00775f 			@ <UNDEFINED> instruction: 9c00775f
     4b4:	00003407 			@ <UNDEFINED> instruction: 00003407
     4b8:	4f030800 			@ <UNDEFINED> instruction: 4f030800
     4bc:	04000002 			@ <UNDEFINED> instruction: 04000002
     4c0:	0063099d 	mlseq	r3, sp, r9, r0
     4c4:	030c0000 	movweq	r0, #49152	@ 0xc000
     4c8:	000004cb 			@ <UNDEFINED> instruction: 000004cb
     4cc:	63099e04 	movwvs	r9, #40452	@ 0x9e04
     4d0:	0e000000 			@ <UNDEFINED> instruction: 0e000000
     4d4:	66625f09 			@ <UNDEFINED> instruction: 66625f09
     4d8:	28119f00 			@ <UNDEFINED> instruction: 28119f00
     4dc:	10000002 			@ <UNDEFINED> instruction: 10000002
     4e0:	00024603 			@ <UNDEFINED> instruction: 00024603
     4e4:	07a00400 			@ <UNDEFINED> instruction: 07a00400
     4e8:	00000034 			@ <UNDEFINED> instruction: 00000034
     4ec:	033a0318 			@ <UNDEFINED> instruction: 033a0318
     4f0:	a3040000 	movwge	r0, #16384	@ 0x4000
     4f4:	00049312 			@ <UNDEFINED> instruction: 00049312
     4f8:	c2031c00 			@ <UNDEFINED> instruction: c2031c00
     4fc:	04000002 			@ <UNDEFINED> instruction: 04000002
     500:	01040aa7 	smlatbeq	r4, r7, sl, r0
     504:	03200000 	nopeq	{0}	@ <UNPREDICTABLE>
     508:	00000290 			@ <UNDEFINED> instruction: 00000290
     50c:	c71da904 			@ <UNDEFINED> instruction: c71da904
     510:	24000004 			@ <UNDEFINED> instruction: 24000004
     514:	0005b803 			@ <UNDEFINED> instruction: 0005b803
     518:	1dab0400 			@ <UNDEFINED> instruction: 1dab0400
     51c:	000004ef 			@ <UNDEFINED> instruction: 000004ef
     520:	073f0328 			@ <UNDEFINED> instruction: 073f0328
     524:	ae040000 			@ <UNDEFINED> instruction: ae040000
     528:	0005120d 			@ <UNDEFINED> instruction: 0005120d
     52c:	1f032c00 			@ <UNDEFINED> instruction: 1f032c00
     530:	04000009 			@ <UNDEFINED> instruction: 04000009
     534:	052b09af 			@ <UNDEFINED> instruction: 052b09af
     538:	09300000 			@ <UNDEFINED> instruction: 09300000
     53c:	0062755f 			@ <UNDEFINED> instruction: 0062755f
     540:	022811b2 			@ <UNDEFINED> instruction: 022811b2
     544:	09340000 			@ <UNDEFINED> instruction: 09340000
     548:	0070755f 			@ <UNDEFINED> instruction: 0070755f
     54c:	024f12b3 			@ <UNDEFINED> instruction: 024f12b3
     550:	093c0000 			@ <UNDEFINED> instruction: 093c0000
     554:	0072755f 			@ <UNDEFINED> instruction: 0072755f
     558:	003407b4 	ldrhteq	r0, [r4], -r4
     55c:	03400000 	movteq	r0, #0
     560:	0000074d 			@ <UNDEFINED> instruction: 0000074d
     564:	3011b704 			@ <UNDEFINED> instruction: 3011b704
     568:	44000005 			@ <UNDEFINED> instruction: 44000005
     56c:	00070203 			@ <UNDEFINED> instruction: 00070203
     570:	11b80400 			@ <UNDEFINED> instruction: 11b80400
     574:	00000540 			@ <UNDEFINED> instruction: 00000540
     578:	6c5f0947 	mrrcvs	9, 4, r0, pc, cr7	@ <UNPREDICTABLE>
     57c:	11bb0062 			@ <UNDEFINED> instruction: 11bb0062
     580:	00000228 			@ <UNDEFINED> instruction: 00000228
     584:	06250348 			@ <UNDEFINED> instruction: 06250348
     588:	be040000 			@ <UNDEFINED> instruction: be040000
     58c:	00003407 			@ <UNDEFINED> instruction: 00003407
     590:	86035000 			@ <UNDEFINED> instruction: 86035000
     594:	04000003 			@ <UNDEFINED> instruction: 04000003
     598:	008c0abf 			@ <UNDEFINED> instruction: 008c0abf
     59c:	03540000 			@ <UNDEFINED> instruction: 03540000
     5a0:	00000647 			@ <UNDEFINED> instruction: 00000647
     5a4:	280cc604 			@ <UNDEFINED> instruction: 280cc604
     5a8:	58000001 			@ <UNDEFINED> instruction: 58000001
     5ac:	00028703 			@ <UNDEFINED> instruction: 00028703
     5b0:	0ec80400 			@ <UNDEFINED> instruction: 0ec80400
     5b4:	000000f8 	strdeq	r0, [r0], -r8
     5b8:	0708035c 	smlsdeq	r8, ip, r3, r0
     5bc:	c9040000 			@ <UNDEFINED> instruction: c9040000
     5c0:	00003409 			@ <UNDEFINED> instruction: 00003409
     5c4:	11006400 			@ <UNDEFINED> instruction: 11006400
     5c8:	000005e6 			@ <UNDEFINED> instruction: 000005e6
     5cc:	93017b4c 	movwls	r7, #6988	@ 0x1b4c
     5d0:	02000004 			@ <UNDEFINED> instruction: 02000004
     5d4:	00000268 			@ <UNDEFINED> instruction: 00000268
     5d8:	3407017f 			@ <UNDEFINED> instruction: 3407017f
     5dc:	00000000 			@ <UNDEFINED> instruction: 00000000
     5e0:	0004d102 			@ <UNDEFINED> instruction: 0004d102
     5e4:	0b018400 			@ <UNDEFINED> instruction: 0b018400
     5e8:	000005b3 			@ <UNDEFINED> instruction: 000005b3
     5ec:	02ac0204 			@ <UNDEFINED> instruction: 02ac0204
     5f0:	01840000 			@ <UNDEFINED> instruction: 01840000
     5f4:	0005b314 			@ <UNDEFINED> instruction: 0005b314
     5f8:	45020800 			@ <UNDEFINED> instruction: 45020800
     5fc:	84000007 			@ <UNDEFINED> instruction: 84000007
     600:	05b31e01 			@ <UNDEFINED> instruction: 05b31e01
     604:	020c0000 			@ <UNDEFINED> instruction: 020c0000
     608:	00000402 			@ <UNDEFINED> instruction: 00000402
     60c:	34080186 			@ <UNDEFINED> instruction: 34080186
     610:	10000000 			@ <UNDEFINED> instruction: 10000000
     614:	0003a402 			@ <UNDEFINED> instruction: 0003a402
     618:	09018800 			@ <UNDEFINED> instruction: 09018800
     61c:	000004b6 			@ <UNDEFINED> instruction: 000004b6
     620:	06a20214 	ssateq	r0, #3, r4, lsl #4
     624:	018e0000 			@ <UNDEFINED> instruction: 018e0000
     628:	00070d16 			@ <UNDEFINED> instruction: 00070d16
     62c:	5f371800 			@ <UNDEFINED> instruction: 5f371800
     630:	0400706d 			@ <UNDEFINED> instruction: 0400706d
     634:	12120190 			@ <UNDEFINED> instruction: 12120190
     638:	1c000007 			@ <UNDEFINED> instruction: 1c000007
     63c:	00055e02 			@ <UNDEFINED> instruction: 00055e02
     640:	0a019200 			@ <UNDEFINED> instruction: 0a019200
     644:	00000722 			@ <UNDEFINED> instruction: 00000722
     648:	04d80220 			@ <UNDEFINED> instruction: 04d80220
     64c:	01940000 			@ <UNDEFINED> instruction: 01940000
     650:	00003407 			@ <UNDEFINED> instruction: 00003407
     654:	0b022400 			@ <UNDEFINED> instruction: 0b022400
     658:	97000006 			@ <UNDEFINED> instruction: 97000006
     65c:	00340701 			@ <UNDEFINED> instruction: 00340701
     660:	02280000 			@ <UNDEFINED> instruction: 02280000
     664:	0000064d 			@ <UNDEFINED> instruction: 0000064d
     668:	b6090198 			@ <UNDEFINED> instruction: b6090198
     66c:	2c000004 			@ <UNDEFINED> instruction: 2c000004
     670:	00022702 			@ <UNDEFINED> instruction: 00022702
     674:	13019a00 	movwne	r9, #6656	@ 0x1a00
     678:	00000727 			@ <UNDEFINED> instruction: 00000727
     67c:	05f70230 			@ <UNDEFINED> instruction: 05f70230
     680:	019b0000 			@ <UNDEFINED> instruction: 019b0000
     684:	00072c10 			@ <UNDEFINED> instruction: 00072c10
     688:	52023400 			@ <UNDEFINED> instruction: 52023400
     68c:	9c000003 			@ <UNDEFINED> instruction: 9c000003
     690:	04b60901 			@ <UNDEFINED> instruction: 04b60901
     694:	02380000 			@ <UNDEFINED> instruction: 02380000
     698:	0000046e 			@ <UNDEFINED> instruction: 0000046e
     69c:	3c0c019f 			@ <UNDEFINED> instruction: 3c0c019f
     6a0:	3c000007 			@ <UNDEFINED> instruction: 3c000007
     6a4:	00060602 			@ <UNDEFINED> instruction: 00060602
     6a8:	0b01a700 			@ <UNDEFINED> instruction: 0b01a700
     6ac:	000005b3 			@ <UNDEFINED> instruction: 000005b3
     6b0:	01ff0240 			@ <UNDEFINED> instruction: 01ff0240
     6b4:	01a80000 			@ <UNDEFINED> instruction: 01a80000
     6b8:	00074617 			@ <UNDEFINED> instruction: 00074617
     6bc:	3a024400 			@ <UNDEFINED> instruction: 3a024400
     6c0:	a9000002 			@ <UNDEFINED> instruction: a9000002
     6c4:	04b60901 			@ <UNDEFINED> instruction: 04b60901
     6c8:	00480000 			@ <UNDEFINED> instruction: 00480000
     6cc:	00038e05 			@ <UNDEFINED> instruction: 00038e05
     6d0:	00341200 			@ <UNDEFINED> instruction: 00341200
     6d4:	04b60000 			@ <UNDEFINED> instruction: 04b60000
     6d8:	93010000 	movwls	r0, #4096	@ 0x1000
     6dc:	01000004 			@ <UNDEFINED> instruction: 01000004
     6e0:	00000104 			@ <UNDEFINED> instruction: 00000104
     6e4:	0004b601 			@ <UNDEFINED> instruction: 0004b601
     6e8:	00340100 			@ <UNDEFINED> instruction: 00340100
     6ec:	05000000 			@ <UNDEFINED> instruction: 05000000
     6f0:	000004bb 			@ <UNDEFINED> instruction: 000004bb
     6f4:	8d080108 			@ <UNDEFINED> instruction: 8d080108
     6f8:	38000000 			@ <UNDEFINED> instruction: 38000000
     6fc:	000004bb 			@ <UNDEFINED> instruction: 000004bb
     700:	00049805 			@ <UNDEFINED> instruction: 00049805
     704:	00341200 			@ <UNDEFINED> instruction: 00341200
     708:	04ea0000 			@ <UNDEFINED> instruction: 04ea0000
     70c:	93010000 	movwls	r0, #4096	@ 0x1000
     710:	01000004 			@ <UNDEFINED> instruction: 01000004
     714:	00000104 			@ <UNDEFINED> instruction: 00000104
     718:	0004ea01 			@ <UNDEFINED> instruction: 0004ea01
     71c:	00340100 			@ <UNDEFINED> instruction: 00340100
     720:	05000000 			@ <UNDEFINED> instruction: 05000000
     724:	000004c2 			@ <UNDEFINED> instruction: 000004c2
     728:	0004cc05 			@ <UNDEFINED> instruction: 0004cc05
     72c:	00981200 			@ <UNDEFINED> instruction: 00981200
     730:	05120000 			@ <UNDEFINED> instruction: 05120000
     734:	93010000 	movwls	r0, #4096	@ 0x1000
     738:	01000004 			@ <UNDEFINED> instruction: 01000004
     73c:	00000104 			@ <UNDEFINED> instruction: 00000104
     740:	00009801 			@ <UNDEFINED> instruction: 00009801
     744:	00340100 			@ <UNDEFINED> instruction: 00340100
     748:	05000000 			@ <UNDEFINED> instruction: 05000000
     74c:	000004f4 	strdeq	r0, [r0], -r4
     750:	00003412 			@ <UNDEFINED> instruction: 00003412
     754:	00052b00 			@ <UNDEFINED> instruction: 00052b00
     758:	04930100 			@ <UNDEFINED> instruction: 04930100
     75c:	04010000 			@ <UNDEFINED> instruction: 04010000
     760:	00000001 			@ <UNDEFINED> instruction: 00000001
     764:	00051705 			@ <UNDEFINED> instruction: 00051705
     768:	005c0c00 			@ <UNDEFINED> instruction: 005c0c00
     76c:	05400000 			@ <UNDEFINED> instruction: 05400000
     770:	2d0d0000 			@ <UNDEFINED> instruction: 2d0d0000
     774:	02000000 			@ <UNDEFINED> instruction: 02000000
     778:	005c0c00 			@ <UNDEFINED> instruction: 005c0c00
     77c:	05500000 			@ <UNDEFINED> instruction: 05500000
     780:	2d0d0000 			@ <UNDEFINED> instruction: 2d0d0000
     784:	00000000 			@ <UNDEFINED> instruction: 00000000
     788:	037f2400 			@ <UNDEFINED> instruction: 037f2400
     78c:	0e040000 			@ <UNDEFINED> instruction: 0e040000
     790:	02541a01 			@ <UNDEFINED> instruction: 02541a01
     794:	500c0000 			@ <UNDEFINED> instruction: 500c0000
     798:	6d000005 			@ <UNDEFINED> instruction: 6d000005
     79c:	0d000005 			@ <UNDEFINED> instruction: 0d000005
     7a0:	0000002d 			@ <UNDEFINED> instruction: 0000002d
     7a4:	06130002 			@ <UNDEFINED> instruction: 06130002
     7a8:	04000006 			@ <UNDEFINED> instruction: 04000006
     7ac:	5d0f0112 			@ <UNDEFINED> instruction: 5d0f0112
     7b0:	11000005 			@ <UNDEFINED> instruction: 11000005
     7b4:	00000679 			@ <UNDEFINED> instruction: 00000679
     7b8:	ae01140c 			@ <UNDEFINED> instruction: ae01140c
     7bc:	02000005 			@ <UNDEFINED> instruction: 02000005
     7c0:	0000072e 			@ <UNDEFINED> instruction: 0000072e
     7c4:	ae110116 			@ <UNDEFINED> instruction: ae110116
     7c8:	00000005 			@ <UNDEFINED> instruction: 00000005
     7cc:	00063802 			@ <UNDEFINED> instruction: 00063802
     7d0:	07011700 			@ <UNDEFINED> instruction: 07011700
     7d4:	00000034 			@ <UNDEFINED> instruction: 00000034
     7d8:	04bc0204 			@ <UNDEFINED> instruction: 04bc0204
     7dc:	01180000 			@ <UNDEFINED> instruction: 01180000
     7e0:	0005b30b 			@ <UNDEFINED> instruction: 0005b30b
     7e4:	05000800 			@ <UNDEFINED> instruction: 05000800
     7e8:	0000057a 			@ <UNDEFINED> instruction: 0000057a
     7ec:	00055005 			@ <UNDEFINED> instruction: 00055005
     7f0:	067f1300 			@ <UNDEFINED> instruction: 067f1300
     7f4:	1b040000 			@ <UNDEFINED> instruction: 1b040000
     7f8:	057a1501 			@ <UNDEFINED> instruction: 057a1501
     7fc:	40110000 			@ <UNDEFINED> instruction: 40110000
     800:	18000003 			@ <UNDEFINED> instruction: 18000003
     804:	06060132 			@ <UNDEFINED> instruction: 06060132
     808:	23020000 	movwcs	r0, #8192	@ 0x2000
     80c:	33000007 	movwcc	r0, #7
     810:	06061201 			@ <UNDEFINED> instruction: 06061201
     814:	02000000 			@ <UNDEFINED> instruction: 02000000
     818:	0000053a 			@ <UNDEFINED> instruction: 0000053a
     81c:	06120134 			@ <UNDEFINED> instruction: 06120134
     820:	06000006 			@ <UNDEFINED> instruction: 06000006
     824:	00066702 			@ <UNDEFINED> instruction: 00066702
     828:	12013500 			@ <UNDEFINED> instruction: 12013500
     82c:	0000006a 			@ <UNDEFINED> instruction: 0000006a
     830:	0729020c 			@ <UNDEFINED> instruction: 0729020c
     834:	01380000 			@ <UNDEFINED> instruction: 01380000
     838:	00002624 			@ <UNDEFINED> instruction: 00002624
     83c:	0c001000 			@ <UNDEFINED> instruction: 0c001000
     840:	0000006a 			@ <UNDEFINED> instruction: 0000006a
     844:	00000616 			@ <UNDEFINED> instruction: 00000616
     848:	00002d0d 			@ <UNDEFINED> instruction: 00002d0d
     84c:	11000200 			@ <UNDEFINED> instruction: 11000200
     850:	00000573 			@ <UNDEFINED> instruction: 00000573
     854:	57015c10 	smladpl	r1, r0, ip, r5
     858:	02000006 			@ <UNDEFINED> instruction: 02000006
     85c:	00000302 			@ <UNDEFINED> instruction: 00000302
     860:	8b13015f 			@ <UNDEFINED> instruction: 8b13015f
     864:	00000001 			@ <UNDEFINED> instruction: 00000001
     868:	00034802 			@ <UNDEFINED> instruction: 00034802
     86c:	07016000 			@ <UNDEFINED> instruction: 07016000
     870:	00000034 			@ <UNDEFINED> instruction: 00000034
     874:	04310204 			@ <UNDEFINED> instruction: 04310204
     878:	01610000 			@ <UNDEFINED> instruction: 01610000
     87c:	00018b13 			@ <UNDEFINED> instruction: 00018b13
     880:	30020800 			@ <UNDEFINED> instruction: 30020800
     884:	62000005 			@ <UNDEFINED> instruction: 62000005
     888:	06571401 			@ <UNDEFINED> instruction: 06571401
     88c:	000c0000 			@ <UNDEFINED> instruction: 000c0000
     890:	00018b05 			@ <UNDEFINED> instruction: 00018b05
     894:	05e11100 			@ <UNDEFINED> instruction: 05e11100
     898:	66500000 			@ <UNDEFINED> instruction: 66500000
     89c:	0006f801 			@ <UNDEFINED> instruction: 0006f801
     8a0:	06870200 			@ <UNDEFINED> instruction: 06870200
     8a4:	01690000 			@ <UNDEFINED> instruction: 01690000
     8a8:	0004b609 			@ <UNDEFINED> instruction: 0004b609
     8ac:	51020000 			@ <UNDEFINED> instruction: 51020000
     8b0:	6a000004 			@ <UNDEFINED> instruction: 6a000004
     8b4:	00f80e01 			@ <UNDEFINED> instruction: 00f80e01
     8b8:	02040000 			@ <UNDEFINED> instruction: 02040000
     8bc:	00000205 			@ <UNDEFINED> instruction: 00000205
     8c0:	f80e016b 			@ <UNDEFINED> instruction: f80e016b
     8c4:	0c000000 			@ <UNDEFINED> instruction: 0c000000
     8c8:	00069402 			@ <UNDEFINED> instruction: 00069402
     8cc:	0e016c00 			@ <UNDEFINED> instruction: 0e016c00
     8d0:	000000f8 	strdeq	r0, [r0], -r8
     8d4:	061b0214 			@ <UNDEFINED> instruction: 061b0214
     8d8:	016d0000 			@ <UNDEFINED> instruction: 016d0000
     8dc:	0006f808 			@ <UNDEFINED> instruction: 0006f808
     8e0:	5a021c00 			@ <UNDEFINED> instruction: 5a021c00
     8e4:	6e000006 			@ <UNDEFINED> instruction: 6e000006
     8e8:	00340701 			@ <UNDEFINED> instruction: 00340701
     8ec:	02240000 			@ <UNDEFINED> instruction: 02240000
     8f0:	00000296 			@ <UNDEFINED> instruction: 00000296
     8f4:	f80e016f 			@ <UNDEFINED> instruction: f80e016f
     8f8:	28000000 			@ <UNDEFINED> instruction: 28000000
     8fc:	00047802 			@ <UNDEFINED> instruction: 00047802
     900:	0e017000 			@ <UNDEFINED> instruction: 0e017000
     904:	000000f8 	strdeq	r0, [r0], -r8
     908:	040d0230 			@ <UNDEFINED> instruction: 040d0230
     90c:	01710000 			@ <UNDEFINED> instruction: 01710000
     910:	0000f80e 			@ <UNDEFINED> instruction: 0000f80e
     914:	48023800 			@ <UNDEFINED> instruction: 48023800
     918:	72000005 			@ <UNDEFINED> instruction: 72000005
     91c:	00f80e01 			@ <UNDEFINED> instruction: 00f80e01
     920:	02400000 			@ <UNDEFINED> instruction: 02400000
     924:	00000440 			@ <UNDEFINED> instruction: 00000440
     928:	f80e0173 			@ <UNDEFINED> instruction: f80e0173
     92c:	48000000 			@ <UNDEFINED> instruction: 48000000
     930:	04bb0c00 			@ <UNDEFINED> instruction: 04bb0c00
     934:	07080000 			@ <UNDEFINED> instruction: 07080000
     938:	2d0d0000 			@ <UNDEFINED> instruction: 2d0d0000
     93c:	07000000 			@ <UNDEFINED> instruction: 07000000
     940:	07342600 			@ <UNDEFINED> instruction: 07342600
     944:	08050000 			@ <UNDEFINED> instruction: 08050000
     948:	05000007 			@ <UNDEFINED> instruction: 05000007
     94c:	00000616 			@ <UNDEFINED> instruction: 00000616
     950:	00072227 			@ <UNDEFINED> instruction: 00072227
     954:	04930100 			@ <UNDEFINED> instruction: 04930100
     958:	05000000 			@ <UNDEFINED> instruction: 05000000
     95c:	00000717 			@ <UNDEFINED> instruction: 00000717
     960:	0005c505 			@ <UNDEFINED> instruction: 0005c505
     964:	01a00500 			@ <UNDEFINED> instruction: 01a00500
     968:	3c270000 			@ <UNDEFINED> instruction: 3c270000
     96c:	01000007 			@ <UNDEFINED> instruction: 01000007
     970:	00000034 			@ <UNDEFINED> instruction: 00000034
     974:	07410500 			@ <UNDEFINED> instruction: 07410500
     978:	31050000 			@ <UNDEFINED> instruction: 31050000
     97c:	05000007 			@ <UNDEFINED> instruction: 05000007
     980:	0000065c 			@ <UNDEFINED> instruction: 0000065c
     984:	00033313 			@ <UNDEFINED> instruction: 00033313
     988:	03230400 			@ <UNDEFINED> instruction: 03230400
     98c:	00038e16 			@ <UNDEFINED> instruction: 00038e16
     990:	01db1300 			@ <UNDEFINED> instruction: 01db1300
     994:	98040000 			@ <UNDEFINED> instruction: 98040000
     998:	02220f03 			@ <UNDEFINED> instruction: 02220f03
     99c:	810b0000 			@ <UNDEFINED> instruction: 810b0000
     9a0:	06000003 			@ <UNDEFINED> instruction: 06000003
     9a4:	05501042 			@ <UNDEFINED> instruction: 05501042
     9a8:	5c280000 			@ <UNDEFINED> instruction: 5c280000
     9ac:	3a000000 			@ <UNDEFINED> instruction: 3a000000
     9b0:	0007b901 			@ <UNDEFINED> instruction: 0007b901
     9b4:	03b50600 			@ <UNDEFINED> instruction: 03b50600
     9b8:	06000000 			@ <UNDEFINED> instruction: 06000000
     9bc:	0000045e 			@ <UNDEFINED> instruction: 0000045e
     9c0:	05290601 			@ <UNDEFINED> instruction: 05290601
     9c4:	06020000 			@ <UNDEFINED> instruction: 06020000
     9c8:	00000407 			@ <UNDEFINED> instruction: 00000407
     9cc:	06330603 			@ <UNDEFINED> instruction: 06330603
     9d0:	39040000 			@ <UNDEFINED> instruction: 39040000
     9d4:	00544f44 			@ <UNDEFINED> instruction: 00544f44
     9d8:	026f0605 			@ <UNDEFINED> instruction: 026f0605
     9dc:	06060000 			@ <UNDEFINED> instruction: 06060000
     9e0:	0000066d 			@ <UNDEFINED> instruction: 0000066d
     9e4:	02130607 			@ <UNDEFINED> instruction: 02130607
     9e8:	06080000 			@ <UNDEFINED> instruction: 06080000
     9ec:	00000716 			@ <UNDEFINED> instruction: 00000716
     9f0:	5c280009 			@ <UNDEFINED> instruction: 5c280009
     9f4:	47000000 			@ <UNDEFINED> instruction: 47000000
     9f8:	00081301 			@ <UNDEFINED> instruction: 00081301
     9fc:	05db0600 			@ <UNDEFINED> instruction: 05db0600
     a00:	06000000 			@ <UNDEFINED> instruction: 06000000
     a04:	0000066c 			@ <UNDEFINED> instruction: 0000066c
     a08:	01f10601 			@ <UNDEFINED> instruction: 01f10601
     a0c:	06020000 			@ <UNDEFINED> instruction: 06020000
     a10:	000003af 			@ <UNDEFINED> instruction: 000003af
     a14:	02dd0603 			@ <UNDEFINED> instruction: 02dd0603
     a18:	06040000 			@ <UNDEFINED> instruction: 06040000
     a1c:	000005bf 			@ <UNDEFINED> instruction: 000005bf
     a20:	04a80605 			@ <UNDEFINED> instruction: 04a80605
     a24:	06060000 			@ <UNDEFINED> instruction: 06060000
     a28:	00000497 			@ <UNDEFINED> instruction: 00000497
     a2c:	06550607 			@ <UNDEFINED> instruction: 06550607
     a30:	06080000 			@ <UNDEFINED> instruction: 06080000
     a34:	000001f0 	strdeq	r0, [r0], -r0	@ <UNPREDICTABLE>
     a38:	07100609 			@ <UNDEFINED> instruction: 07100609
     a3c:	060a0000 			@ <UNDEFINED> instruction: 060a0000
     a40:	000003ba 			@ <UNDEFINED> instruction: 000003ba
     a44:	039a060b 			@ <UNDEFINED> instruction: 039a060b
     a48:	000c0000 			@ <UNDEFINED> instruction: 000c0000
     a4c:	0007581c 			@ <UNDEFINED> instruction: 0007581c
     a50:	a0030500 			@ <UNDEFINED> instruction: a0030500
     a54:	1c200001 			@ <UNDEFINED> instruction: 1c200001
     a58:	0000056d 			@ <UNDEFINED> instruction: 0000056d
     a5c:	00680305 			@ <UNDEFINED> instruction: 00680305
     a60:	b81c2000 			@ <UNDEFINED> instruction: b81c2000
     a64:	05000005 			@ <UNDEFINED> instruction: 05000005
     a68:	00000003 			@ <UNDEFINED> instruction: 00000003
     a6c:	04c21000 			@ <UNDEFINED> instruction: 04c21000
     a70:	01740000 			@ <UNDEFINED> instruction: 01740000
     a74:	00085b83 			@ <UNDEFINED> instruction: 00085b83
     a78:	067a0300 			@ <UNDEFINED> instruction: 067a0300
     a7c:	84010000 			@ <UNDEFINED> instruction: 84010000
     a80:	00057a10 			@ <UNDEFINED> instruction: 00057a10
     a84:	cc030000 			@ <UNDEFINED> instruction: cc030000
     a88:	01000004 			@ <UNDEFINED> instruction: 01000004
     a8c:	07650885 			@ <UNDEFINED> instruction: 07650885
     a90:	000c0000 			@ <UNDEFINED> instruction: 000c0000
     a94:	0006aa13 			@ <UNDEFINED> instruction: 0006aa13
     a98:	01080100 			@ <UNDEFINED> instruction: 01080100
     a9c:	00012301 			@ <UNDEFINED> instruction: 00012301
     aa0:	06b13a00 			@ <UNDEFINED> instruction: 06b13a00
     aa4:	08010000 			@ <UNDEFINED> instruction: 08010000
     aa8:	01120101 			@ <UNDEFINED> instruction: 01120101
     aac:	851d0000 			@ <UNDEFINED> instruction: 851d0000
     ab0:	3c000005 			@ <UNDEFINED> instruction: 3c000005
     ab4:	00000885 			@ <UNDEFINED> instruction: 00000885
     ab8:	00011201 			@ <UNDEFINED> instruction: 00011201
     abc:	c71d0000 			@ <UNDEFINED> instruction: c71d0000
     ac0:	33000006 	movwcc	r0, #6
     ac4:	00000895 			@ <UNDEFINED> instruction: 00000895
     ac8:	00011201 			@ <UNDEFINED> instruction: 00011201
     acc:	361e0000 			@ <UNDEFINED> instruction: 361e0000
     ad0:	08000004 			@ <UNDEFINED> instruction: 08000004
     ad4:	04080128 			@ <UNDEFINED> instruction: 04080128
     ad8:	b1000001 			@ <UNDEFINED> instruction: b1000001
     adc:	01000008 			@ <UNDEFINED> instruction: 01000008
     ae0:	00000493 			@ <UNDEFINED> instruction: 00000493
     ae4:	00003b01 			@ <UNDEFINED> instruction: 00003b01
     ae8:	f6140000 			@ <UNDEFINED> instruction: f6140000
     aec:	07000001 			@ <UNDEFINED> instruction: 07000001
     af0:	00340fb4 	ldrhteq	r0, [r4], -r4
     af4:	08cc0000 			@ <UNDEFINED> instruction: 08cc0000
     af8:	93010000 	movwls	r0, #4096	@ 0x1000
     afc:	01000004 			@ <UNDEFINED> instruction: 01000004
     b00:	00000104 			@ <UNDEFINED> instruction: 00000104
     b04:	07531400 			@ <UNDEFINED> instruction: 07531400
     b08:	b3070000 	movwlt	r0, #28672	@ 0x7000
     b0c:	00009810 			@ <UNDEFINED> instruction: 00009810
     b10:	0008f100 			@ <UNDEFINED> instruction: 0008f100
     b14:	04930100 			@ <UNDEFINED> instruction: 04930100
     b18:	04010000 			@ <UNDEFINED> instruction: 04010000
     b1c:	01000001 			@ <UNDEFINED> instruction: 01000001
     b20:	00000098 			@ <UNDEFINED> instruction: 00000098
     b24:	00003401 			@ <UNDEFINED> instruction: 00003401
     b28:	ec140000 			@ <UNDEFINED> instruction: ec140000
     b2c:	07000002 			@ <UNDEFINED> instruction: 07000002
     b30:	003420b0 	ldrhteq	r2, [r4], -r0
     b34:	09160000 			@ <UNDEFINED> instruction: 09160000
     b38:	93010000 	movwls	r0, #4096	@ 0x1000
     b3c:	01000004 			@ <UNDEFINED> instruction: 01000004
     b40:	00000104 			@ <UNDEFINED> instruction: 00000104
     b44:	0004ea01 			@ <UNDEFINED> instruction: 0004ea01
     b48:	00340100 			@ <UNDEFINED> instruction: 00340100
     b4c:	14000000 			@ <UNDEFINED> instruction: 14000000
     b50:	000002a4 			@ <UNDEFINED> instruction: 000002a4
     b54:	3420ab07 			@ <UNDEFINED> instruction: 3420ab07
     b58:	3b000000 			@ <UNDEFINED> instruction: 3b000000
     b5c:	01000009 			@ <UNDEFINED> instruction: 01000009
     b60:	00000493 			@ <UNDEFINED> instruction: 00000493
     b64:	00010401 			@ <UNDEFINED> instruction: 00010401
     b68:	04b60100 			@ <UNDEFINED> instruction: 04b60100
     b6c:	34010000 			@ <UNDEFINED> instruction: 34010000
     b70:	00000000 			@ <UNDEFINED> instruction: 00000000
     b74:	0005ed1e 			@ <UNDEFINED> instruction: 0005ed1e
     b78:	01a10600 			@ <UNDEFINED> instruction: 01a10600
     b7c:	00003405 			@ <UNDEFINED> instruction: 00003405
     b80:	00095700 			@ <UNDEFINED> instruction: 00095700
     b84:	04930100 			@ <UNDEFINED> instruction: 04930100
     b88:	57010000 			@ <UNDEFINED> instruction: 57010000
     b8c:	00000009 			@ <UNDEFINED> instruction: 00000009
     b90:	00076505 			@ <UNDEFINED> instruction: 00076505
     b94:	02f51e00 			@ <UNDEFINED> instruction: 02f51e00
     b98:	9c040000 			@ <UNDEFINED> instruction: 9c040000
     b9c:	00340c03 			@ <UNDEFINED> instruction: 00340c03
     ba0:	097d0000 			@ <UNDEFINED> instruction: 097d0000
     ba4:	93010000 	movwls	r0, #4096	@ 0x1000
     ba8:	01000004 			@ <UNDEFINED> instruction: 01000004
     bac:	0000097d 			@ <UNDEFINED> instruction: 0000097d
     bb0:	0005ae01 			@ <UNDEFINED> instruction: 0005ae01
     bb4:	82050000 			@ <UNDEFINED> instruction: 82050000
     bb8:	12000009 			@ <UNDEFINED> instruction: 12000009
     bbc:	00000034 			@ <UNDEFINED> instruction: 00000034
     bc0:	00000996 			@ <UNDEFINED> instruction: 00000996
     bc4:	00049301 			@ <UNDEFINED> instruction: 00049301
     bc8:	05b30100 			@ <UNDEFINED> instruction: 05b30100
     bcc:	14000000 			@ <UNDEFINED> instruction: 14000000
     bd0:	00000557 			@ <UNDEFINED> instruction: 00000557
     bd4:	04092109 			@ <UNDEFINED> instruction: 04092109
     bd8:	b6000001 			@ <UNDEFINED> instruction: b6000001
     bdc:	01000009 			@ <UNDEFINED> instruction: 01000009
     be0:	00000104 			@ <UNDEFINED> instruction: 00000104
     be4:	00003401 			@ <UNDEFINED> instruction: 00003401
     be8:	003b0100 			@ <UNDEFINED> instruction: 003b0100
     bec:	1d000000 			@ <UNDEFINED> instruction: 1d000000
     bf0:	000003cf 			@ <UNDEFINED> instruction: 000003cf
     bf4:	0009c62b 			@ <UNDEFINED> instruction: 0009c62b
     bf8:	09c60100 			@ <UNDEFINED> instruction: 09c60100
     bfc:	05000000 			@ <UNDEFINED> instruction: 05000000
     c00:	00000112 			@ <UNDEFINED> instruction: 00000112
     c04:	00048729 			@ <UNDEFINED> instruction: 00048729
     c08:	00013200 			@ <UNDEFINED> instruction: 00013200
     c0c:	24000000 			@ <UNDEFINED> instruction: 24000000
     c10:	01000000 			@ <UNDEFINED> instruction: 01000000
     c14:	000a209c 			@ <UNDEFINED> instruction: 000a209c
     c18:	0ac31f00 			@ <UNDEFINED> instruction: 0ac31f00
     c1c:	00000000 			@ <UNDEFINED> instruction: 00000000
     c20:	94010000 			@ <UNDEFINED> instruction: 94010000
     c24:	35000000 			@ <UNDEFINED> instruction: 35000000
     c28:	0009fe01 			@ <UNDEFINED> instruction: 0009fe01
     c2c:	00001500 			@ <UNDEFINED> instruction: 00001500
     c30:	08750000 			@ <UNDEFINED> instruction: 08750000
     c34:	16000000 			@ <UNDEFINED> instruction: 16000000
     c38:	00000000 			@ <UNDEFINED> instruction: 00000000
     c3c:	0000095c 			@ <UNDEFINED> instruction: 0000095c
     c40:	01500104 			@ <UNDEFINED> instruction: 01500104
     c44:	51010430 			@ <UNDEFINED> instruction: 51010430
     c48:	00000305 			@ <UNDEFINED> instruction: 00000305
     c4c:	01040000 			@ <UNDEFINED> instruction: 01040000
     c50:	00030552 			@ <UNDEFINED> instruction: 00030552
     c54:	00000000 			@ <UNDEFINED> instruction: 00000000
     c58:	02192900 			@ <UNDEFINED> instruction: 02192900
     c5c:	012b0000 			@ <UNDEFINED> instruction: 012b0000
     c60:	00000000 			@ <UNDEFINED> instruction: 00000000
     c64:	00000024 			@ <UNDEFINED> instruction: 00000024
     c68:	0a759c01 			@ <UNDEFINED> instruction: 0a759c01
     c6c:	ca1f0000 			@ <UNDEFINED> instruction: ca1f0000
     c70:	0000000a 			@ <UNDEFINED> instruction: 0000000a
     c74:	02000000 			@ <UNDEFINED> instruction: 02000000
     c78:	00000089 			@ <UNDEFINED> instruction: 00000089
     c7c:	0a53012d 			@ <UNDEFINED> instruction: 0a53012d
     c80:	000a0000 			@ <UNDEFINED> instruction: 000a0000
     c84:	85000000 			@ <UNDEFINED> instruction: 85000000
     c88:	00000008 			@ <UNDEFINED> instruction: 00000008
     c8c:	00000018 			@ <UNDEFINED> instruction: 00000018
     c90:	00095c00 			@ <UNDEFINED> instruction: 00095c00
     c94:	50010400 			@ <UNDEFINED> instruction: 50010400
     c98:	01043001 			@ <UNDEFINED> instruction: 01043001
     c9c:	00030551 			@ <UNDEFINED> instruction: 00030551
     ca0:	04000000 			@ <UNDEFINED> instruction: 04000000
     ca4:	03055201 	movweq	r5, #20993	@ 0x5201
     ca8:	00000000 			@ <UNDEFINED> instruction: 00000000
     cac:	8e2a0000 			@ <UNDEFINED> instruction: 8e2a0000
     cb0:	22000003 			@ <UNDEFINED> instruction: 22000003
     cb4:	00003401 			@ <UNDEFINED> instruction: 00003401
     cb8:	000a9c00 			@ <UNDEFINED> instruction: 000a9c00
     cbc:	74701900 			@ <UNDEFINED> instruction: 74701900
     cc0:	01220072 			@ <UNDEFINED> instruction: 01220072
     cc4:	0004931e 			@ <UNDEFINED> instruction: 0004931e
     cc8:	70661900 			@ <UNDEFINED> instruction: 70661900
     ccc:	33012200 	movwcc	r2, #4608	@ 0x1200
     cd0:	00000957 			@ <UNDEFINED> instruction: 00000957
     cd4:	03ee2a00 			@ <UNDEFINED> instruction: 03ee2a00
     cd8:	01180000 			@ <UNDEFINED> instruction: 01180000
     cdc:	00000034 			@ <UNDEFINED> instruction: 00000034
     ce0:	00000ac3 			@ <UNDEFINED> instruction: 00000ac3
     ce4:	72747019 			@ <UNDEFINED> instruction: 72747019
     ce8:	1c011800 			@ <UNDEFINED> instruction: 1c011800
     cec:	00000493 			@ <UNDEFINED> instruction: 00000493
     cf0:	00706619 			@ <UNDEFINED> instruction: 00706619
     cf4:	57310118 			@ <UNDEFINED> instruction: 57310118
     cf8:	00000009 			@ <UNDEFINED> instruction: 00000009
     cfc:	0002742b 			@ <UNDEFINED> instruction: 0002742b
     d00:	2b011100 			@ <UNDEFINED> instruction: 2b011100
     d04:	0000036c 			@ <UNDEFINED> instruction: 0000036c
     d08:	2c3b010b 			@ <UNDEFINED> instruction: 2c3b010b
     d0c:	01000002 			@ <UNDEFINED> instruction: 01000002
     d10:	000001f5 	strdeq	r0, [r0], -r5
     d14:	00400000 			@ <UNDEFINED> instruction: 00400000
     d18:	9c010000 			@ <UNDEFINED> instruction: 9c010000
     d1c:	00000b58 			@ <UNDEFINED> instruction: 00000b58
     d20:	f5007320 			@ <UNDEFINED> instruction: f5007320
     d24:	00049319 			@ <UNDEFINED> instruction: 00049319
     d28:	00005c00 			@ <UNDEFINED> instruction: 00005c00
     d2c:	00005200 			@ <UNDEFINED> instruction: 00005200
     d30:	0aca1700 			@ <UNDEFINED> instruction: 0aca1700
     d34:	00000000 			@ <UNDEFINED> instruction: 00000000
     d38:	54020000 			@ <UNDEFINED> instruction: 54020000
     d3c:	f7000000 			@ <UNDEFINED> instruction: f7000000
     d40:	000b1603 			@ <UNDEFINED> instruction: 000b1603
     d44:	00000a00 			@ <UNDEFINED> instruction: 00000a00
     d48:	08850000 			@ <UNDEFINED> instruction: 08850000
     d4c:	1f000000 			@ <UNDEFINED> instruction: 1f000000
     d50:	00000d4a 			@ <UNDEFINED> instruction: 00000d4a
     d54:	00000000 			@ <UNDEFINED> instruction: 00000000
     d58:	00005f01 			@ <UNDEFINED> instruction: 00005f01
     d5c:	34010200 			@ <UNDEFINED> instruction: 34010200
     d60:	0a00000b 			@ <UNDEFINED> instruction: 0a00000b
     d64:	00000000 			@ <UNDEFINED> instruction: 00000000
     d68:	00000ee1 			@ <UNDEFINED> instruction: 00000ee1
     d6c:	0ac31a00 			@ <UNDEFINED> instruction: 0ac31a00
     d70:	00000000 			@ <UNDEFINED> instruction: 00000000
     d74:	74010000 			@ <UNDEFINED> instruction: 74010000
     d78:	fb000000 	blx	d82 <__adddf3+0xca>
     d7c:	00001507 			@ <UNDEFINED> instruction: 00001507
     d80:	08750000 			@ <UNDEFINED> instruction: 08750000
     d84:	00150000 			@ <UNDEFINED> instruction: 00150000
     d88:	75000000 			@ <UNDEFINED> instruction: 75000000
     d8c:	00000008 			@ <UNDEFINED> instruction: 00000008
     d90:	030a2c00 	movweq	r2, #44032	@ 0xac00
     d94:	00e60000 			@ <UNDEFINED> instruction: 00e60000
     d98:	40000000 			@ <UNDEFINED> instruction: 40000000
     d9c:	01000000 			@ <UNDEFINED> instruction: 01000000
     da0:	000bbf9c 			@ <UNDEFINED> instruction: 000bbf9c
     da4:	74702000 			@ <UNDEFINED> instruction: 74702000
     da8:	1fe60072 			@ <UNDEFINED> instruction: 1fe60072
     dac:	00000493 			@ <UNDEFINED> instruction: 00000493
     db0:	0000009e 			@ <UNDEFINED> instruction: 0000009e
     db4:	00000092 			@ <UNDEFINED> instruction: 00000092
     db8:	0000000e 			@ <UNDEFINED> instruction: 0000000e
     dbc:	00093b00 			@ <UNDEFINED> instruction: 00093b00
     dc0:	000b9300 			@ <UNDEFINED> instruction: 000b9300
     dc4:	50010400 			@ <UNDEFINED> instruction: 50010400
     dc8:	00007402 			@ <UNDEFINED> instruction: 00007402
     dcc:	0000000e 			@ <UNDEFINED> instruction: 0000000e
     dd0:	00093b00 			@ <UNDEFINED> instruction: 00093b00
     dd4:	000ba700 			@ <UNDEFINED> instruction: 000ba700
     dd8:	50010400 			@ <UNDEFINED> instruction: 50010400
     ddc:	00007402 			@ <UNDEFINED> instruction: 00007402
     de0:	00000018 			@ <UNDEFINED> instruction: 00000018
     de4:	00093b00 			@ <UNDEFINED> instruction: 00093b00
     de8:	50010400 			@ <UNDEFINED> instruction: 50010400
     dec:	a503a309 			@ <UNDEFINED> instruction: a503a309
     df0:	2da82600 			@ <UNDEFINED> instruction: 2da82600
     df4:	000000a8 			@ <UNDEFINED> instruction: 000000a8
     df8:	0002343c 			@ <UNDEFINED> instruction: 0002343c
     dfc:	01ae0100 			@ <UNDEFINED> instruction: 01ae0100
     e00:	00000957 			@ <UNDEFINED> instruction: 00000957
     e04:	00000000 			@ <UNDEFINED> instruction: 00000000
     e08:	000000c0 			@ <UNDEFINED> instruction: 000000c0
     e0c:	0d4a9c01 			@ <UNDEFINED> instruction: 0d4a9c01
     e10:	64200000 			@ <UNDEFINED> instruction: 64200000
     e14:	9317ae00 			@ <UNDEFINED> instruction: 9317ae00
     e18:	d3000004 	movwle	r0, #4
     e1c:	cf000000 			@ <UNDEFINED> instruction: cf000000
     e20:	21000000 			@ <UNDEFINED> instruction: 21000000
     e24:	b0007066 			@ <UNDEFINED> instruction: b0007066
     e28:	00095709 			@ <UNDEFINED> instruction: 00095709
     e2c:	0000e600 			@ <UNDEFINED> instruction: 0000e600
     e30:	0000e200 			@ <UNDEFINED> instruction: 0000e200
     e34:	006e2100 			@ <UNDEFINED> instruction: 006e2100
     e38:	003407b1 	ldrhteq	r0, [r4], -r1
     e3c:	01030000 			@ <UNDEFINED> instruction: 01030000
     e40:	00f50000 			@ <UNDEFINED> instruction: 00f50000
     e44:	67210000 			@ <UNDEFINED> instruction: 67210000
     e48:	ae11b200 			@ <UNDEFINED> instruction: ae11b200
     e4c:	3f000005 			@ <UNDEFINED> instruction: 3f000005
     e50:	3b000001 			@ <UNDEFINED> instruction: 3b000001
     e54:	3d000001 			@ <UNDEFINED> instruction: 3d000001
     e58:	000002bc 			@ <UNDEFINED> instruction: 000002bc
     e5c:	0001c401 			@ <UNDEFINED> instruction: 0001c401
     e60:	17000000 			@ <UNDEFINED> instruction: 17000000
     e64:	00000aca 			@ <UNDEFINED> instruction: 00000aca
     e68:	00000000 			@ <UNDEFINED> instruction: 00000000
     e6c:	00003305 			@ <UNDEFINED> instruction: 00003305
     e70:	4803b400 			@ <UNDEFINED> instruction: 4803b400
     e74:	0a00000c 			@ <UNDEFINED> instruction: 0a00000c
     e78:	00000000 			@ <UNDEFINED> instruction: 00000000
     e7c:	00000885 			@ <UNDEFINED> instruction: 00000885
     e80:	0d4a1700 			@ <UNDEFINED> instruction: 0d4a1700
     e84:	00000000 			@ <UNDEFINED> instruction: 00000000
     e88:	3e010000 			@ <UNDEFINED> instruction: 3e010000
     e8c:	b5000000 			@ <UNDEFINED> instruction: b5000000
     e90:	000c6603 			@ <UNDEFINED> instruction: 000c6603
     e94:	00000a00 			@ <UNDEFINED> instruction: 00000a00
     e98:	0ee10000 			@ <UNDEFINED> instruction: 0ee10000
     e9c:	22000000 			@ <UNDEFINED> instruction: 22000000
     ea0:	00000ac3 			@ <UNDEFINED> instruction: 00000ac3
     ea4:	00000000 			@ <UNDEFINED> instruction: 00000000
     ea8:	00000001 			@ <UNDEFINED> instruction: 00000001
     eac:	00000600 			@ <UNDEFINED> instruction: 00000600
     eb0:	8803cb00 			@ <UNDEFINED> instruction: 8803cb00
     eb4:	0a00000c 			@ <UNDEFINED> instruction: 0a00000c
     eb8:	00000000 			@ <UNDEFINED> instruction: 00000000
     ebc:	00000875 			@ <UNDEFINED> instruction: 00000875
     ec0:	0d7b2200 			@ <UNDEFINED> instruction: 0d7b2200
	...
     ecc:	24000000 			@ <UNDEFINED> instruction: 24000000
     ed0:	bd000000 			@ <UNDEFINED> instruction: bd000000
     ed4:	000cfa10 			@ <UNDEFINED> instruction: 000cfa10
     ed8:	0d950700 			@ <UNDEFINED> instruction: 0d950700
     edc:	01520000 			@ <UNDEFINED> instruction: 01520000
     ee0:	01500000 			@ <UNDEFINED> instruction: 01500000
     ee4:	8c070000 			@ <UNDEFINED> instruction: 8c070000
     ee8:	5d00000d 			@ <UNDEFINED> instruction: 5d00000d
     eec:	5b000001 			@ <UNDEFINED> instruction: 5b000001
     ef0:	3e000001 			@ <UNDEFINED> instruction: 3e000001
     ef4:	00000d9e 			@ <UNDEFINED> instruction: 00000d9e
     ef8:	00000169 			@ <UNDEFINED> instruction: 00000169
     efc:	00000165 			@ <UNDEFINED> instruction: 00000165
     f00:	0000000e 			@ <UNDEFINED> instruction: 0000000e
     f04:	00089500 			@ <UNDEFINED> instruction: 00089500
     f08:	000ce200 			@ <UNDEFINED> instruction: 000ce200
     f0c:	50010400 			@ <UNDEFINED> instruction: 50010400
     f10:	04007602 			@ <UNDEFINED> instruction: 04007602
     f14:	0a035101 			@ <UNDEFINED> instruction: 0a035101
     f18:	160001ac 			@ <UNDEFINED> instruction: 160001ac
     f1c:	00000000 			@ <UNDEFINED> instruction: 00000000
     f20:	00000996 			@ <UNDEFINED> instruction: 00000996
     f24:	02500104 			@ <UNDEFINED> instruction: 02500104
     f28:	01040c74 			@ <UNDEFINED> instruction: 01040c74
     f2c:	a00a0352 			@ <UNDEFINED> instruction: a00a0352
     f30:	17000001 			@ <UNDEFINED> instruction: 17000001
     f34:	00000ac3 			@ <UNDEFINED> instruction: 00000ac3
     f38:	00000000 			@ <UNDEFINED> instruction: 00000000
     f3c:	00004901 			@ <UNDEFINED> instruction: 00004901
     f40:	1803c000 			@ <UNDEFINED> instruction: 1803c000
     f44:	0a00000d 			@ <UNDEFINED> instruction: 0a00000d
     f48:	00000000 			@ <UNDEFINED> instruction: 00000000
     f4c:	00000875 			@ <UNDEFINED> instruction: 00000875
     f50:	00000e00 			@ <UNDEFINED> instruction: 00000e00
     f54:	09b60000 			@ <UNDEFINED> instruction: 09b60000
     f58:	0d2d0000 			@ <UNDEFINED> instruction: 0d2d0000
     f5c:	01040000 			@ <UNDEFINED> instruction: 01040000
     f60:	d8740350 			@ <UNDEFINED> instruction: d8740350
     f64:	00160000 			@ <UNDEFINED> instruction: 00160000
     f68:	96000000 			@ <UNDEFINED> instruction: 96000000
     f6c:	04000009 			@ <UNDEFINED> instruction: 04000009
     f70:	74035001 			@ <UNDEFINED> instruction: 74035001
     f74:	010400dc 	ldrdeq	r0, [r4, -ip]
     f78:	00750251 			@ <UNDEFINED> instruction: 00750251
     f7c:	01520104 			@ <UNDEFINED> instruction: 01520104
     f80:	3f000038 			@ <UNDEFINED> instruction: 3f000038
     f84:	00000256 			@ <UNDEFINED> instruction: 00000256
     f88:	01019f01 			@ <UNDEFINED> instruction: 01019f01
     f8c:	0001dd2c 			@ <UNDEFINED> instruction: 0001dd2c
     f90:	00009900 			@ <UNDEFINED> instruction: 00009900
     f94:	00180000 			@ <UNDEFINED> instruction: 00180000
     f98:	9c010000 			@ <UNDEFINED> instruction: 9c010000
     f9c:	00000d7b 			@ <UNDEFINED> instruction: 00000d7b
     fa0:	00000018 			@ <UNDEFINED> instruction: 00000018
     fa4:	00095c00 			@ <UNDEFINED> instruction: 00095c00
     fa8:	52010400 			@ <UNDEFINED> instruction: 52010400
     fac:	00000305 			@ <UNDEFINED> instruction: 00000305
     fb0:	00000000 			@ <UNDEFINED> instruction: 00000000
     fb4:	0002ca40 			@ <UNDEFINED> instruction: 0002ca40
     fb8:	01890100 			@ <UNDEFINED> instruction: 01890100
     fbc:	000005ae 			@ <UNDEFINED> instruction: 000005ae
     fc0:	000da901 			@ <UNDEFINED> instruction: 000da901
     fc4:	00640f00 			@ <UNDEFINED> instruction: 00640f00
     fc8:	04931c89 			@ <UNDEFINED> instruction: 04931c89
     fcc:	6e0f0000 			@ <UNDEFINED> instruction: 6e0f0000
     fd0:	34238900 			@ <UNDEFINED> instruction: 34238900
     fd4:	41000000 			@ <UNDEFINED> instruction: 41000000
     fd8:	8b010067 			@ <UNDEFINED> instruction: 8b010067
     fdc:	000da91a 			@ <UNDEFINED> instruction: 000da91a
     fe0:	34050000 			@ <UNDEFINED> instruction: 34050000
     fe4:	23000008 	movwcs	r0, #8
     fe8:	0000049c 			@ <UNDEFINED> instruction: 0000049c
     fec:	000dc47c 			@ <UNDEFINED> instruction: 000dc47c
     ff0:	74700f00 			@ <UNDEFINED> instruction: 74700f00
     ff4:	137c0072 			@ <UNDEFINED> instruction: 137c0072
     ff8:	00000957 			@ <UNDEFINED> instruction: 00000957
     ffc:	06e92300 			@ <UNDEFINED> instruction: 06e92300
    1000:	da6c0000 			@ <UNDEFINED> instruction: da6c0000
    1004:	0f00000d 			@ <UNDEFINED> instruction: 0f00000d
    1008:	00727470 			@ <UNDEFINED> instruction: 00727470
    100c:	0957136c 			@ <UNDEFINED> instruction: 0957136c
    1010:	23000000 	movwcs	r0, #0
    1014:	0000041e 			@ <UNDEFINED> instruction: 0000041e
    1018:	000df066 			@ <UNDEFINED> instruction: 000df066
    101c:	74700f00 			@ <UNDEFINED> instruction: 74700f00
    1020:	12660072 			@ <UNDEFINED> instruction: 12660072
    1024:	00000957 			@ <UNDEFINED> instruction: 00000957
    1028:	74734200 			@ <UNDEFINED> instruction: 74734200
    102c:	3e010064 			@ <UNDEFINED> instruction: 3e010064
    1030:	0e1d0101 			@ <UNDEFINED> instruction: 0e1d0101
    1034:	700f0000 			@ <UNDEFINED> instruction: 700f0000
    1038:	3e007274 			@ <UNDEFINED> instruction: 3e007274
    103c:	0009570c 			@ <UNDEFINED> instruction: 0009570c
    1040:	02502d00 			@ <UNDEFINED> instruction: 02502d00
    1044:	343f0000 			@ <UNDEFINED> instruction: 343f0000
    1048:	2d000000 			@ <UNDEFINED> instruction: 2d000000
    104c:	000004cc 			@ <UNDEFINED> instruction: 000004cc
    1050:	00003440 			@ <UNDEFINED> instruction: 00003440
    1054:	9c1b0000 			@ <UNDEFINED> instruction: 9c1b0000
    1058:	0000000a 			@ <UNDEFINED> instruction: 0000000a
    105c:	1c000000 			@ <UNDEFINED> instruction: 1c000000
    1060:	01000000 			@ <UNDEFINED> instruction: 01000000
    1064:	000e7f9c 			@ <UNDEFINED> instruction: 000e7f9c
    1068:	0aab0700 			@ <UNDEFINED> instruction: 0aab0700
    106c:	01800000 			@ <UNDEFINED> instruction: 01800000
    1070:	01780000 			@ <UNDEFINED> instruction: 01780000
    1074:	b7070000 			@ <UNDEFINED> instruction: b7070000
    1078:	ab00000a 			@ <UNDEFINED> instruction: ab00000a
    107c:	a7000001 			@ <UNDEFINED> instruction: a7000001
    1080:	2e000001 			@ <UNDEFINED> instruction: 2e000001
    1084:	00000a9c 			@ <UNDEFINED> instruction: 00000a9c
    1088:	00000000 			@ <UNDEFINED> instruction: 00000000
    108c:	00000c00 			@ <UNDEFINED> instruction: 00000c00
    1090:	07011800 			@ <UNDEFINED> instruction: 07011800
    1094:	00000aab 			@ <UNDEFINED> instruction: 00000aab
    1098:	000001c5 			@ <UNDEFINED> instruction: 000001c5
    109c:	000001bf 			@ <UNDEFINED> instruction: 000001bf
    10a0:	000ab707 			@ <UNDEFINED> instruction: 000ab707
    10a4:	0001e400 			@ <UNDEFINED> instruction: 0001e400
    10a8:	0001de00 			@ <UNDEFINED> instruction: 0001de00
    10ac:	00000a00 			@ <UNDEFINED> instruction: 00000a00
    10b0:	08850000 			@ <UNDEFINED> instruction: 08850000
    10b4:	00000000 			@ <UNDEFINED> instruction: 00000000
    10b8:	000a751b 			@ <UNDEFINED> instruction: 000a751b
    10bc:	00000000 			@ <UNDEFINED> instruction: 00000000
    10c0:	00001c00 			@ <UNDEFINED> instruction: 00001c00
    10c4:	e19c0100 			@ <UNDEFINED> instruction: e19c0100
    10c8:	0700000e 			@ <UNDEFINED> instruction: 0700000e
    10cc:	00000a84 			@ <UNDEFINED> instruction: 00000a84
    10d0:	00000205 			@ <UNDEFINED> instruction: 00000205
    10d4:	000001fd 	strdeq	r0, [r0], -sp
    10d8:	000a9007 			@ <UNDEFINED> instruction: 000a9007
    10dc:	00023700 			@ <UNDEFINED> instruction: 00023700
    10e0:	00023300 			@ <UNDEFINED> instruction: 00023300
    10e4:	0a752e00 			@ <UNDEFINED> instruction: 0a752e00
    10e8:	00000000 			@ <UNDEFINED> instruction: 00000000
    10ec:	13000000 	movwne	r0, #0
    10f0:	22000000 			@ <UNDEFINED> instruction: 22000000
    10f4:	0a840701 			@ <UNDEFINED> instruction: 0a840701
    10f8:	02540000 			@ <UNDEFINED> instruction: 02540000
    10fc:	024e0000 			@ <UNDEFINED> instruction: 024e0000
    1100:	90070000 			@ <UNDEFINED> instruction: 90070000
    1104:	7800000a 			@ <UNDEFINED> instruction: 7800000a
    1108:	72000002 			@ <UNDEFINED> instruction: 72000002
    110c:	0a000002 			@ <UNDEFINED> instruction: 0a000002
    1110:	00000000 			@ <UNDEFINED> instruction: 00000000
    1114:	00000875 			@ <UNDEFINED> instruction: 00000875
    1118:	4a1b0000 			@ <UNDEFINED> instruction: 4a1b0000
    111c:	0000000d 			@ <UNDEFINED> instruction: 0000000d
    1120:	ec000000 			@ <UNDEFINED> instruction: ec000000
    1124:	01000000 			@ <UNDEFINED> instruction: 01000000
    1128:	00108d9c 			@ <UNDEFINED> instruction: 00108d9c
    112c:	0dda1700 			@ <UNDEFINED> instruction: 0dda1700
    1130:	00000000 			@ <UNDEFINED> instruction: 00000000
    1134:	1d010000 			@ <UNDEFINED> instruction: 1d010000
    1138:	a3000000 	movwge	r0, #0
    113c:	000f7f05 			@ <UNDEFINED> instruction: 000f7f05
    1140:	0de40700 			@ <UNDEFINED> instruction: 0de40700
    1144:	02980000 			@ <UNDEFINED> instruction: 02980000
    1148:	02960000 			@ <UNDEFINED> instruction: 02960000
    114c:	f01a0000 			@ <UNDEFINED> instruction: f01a0000
    1150:	0000000d 			@ <UNDEFINED> instruction: 0000000d
    1154:	03000000 	movweq	r0, #0
    1158:	0000001d 			@ <UNDEFINED> instruction: 0000001d
    115c:	12070368 			@ <UNDEFINED> instruction: 12070368
    1160:	a700000e 			@ <UNDEFINED> instruction: a700000e
    1164:	a5000002 			@ <UNDEFINED> instruction: a5000002
    1168:	07000002 			@ <UNDEFINED> instruction: 07000002
    116c:	00000e08 			@ <UNDEFINED> instruction: 00000e08
    1170:	000002b2 			@ <UNDEFINED> instruction: 000002b2
    1174:	000002b0 			@ <UNDEFINED> instruction: 000002b0
    1178:	000dfd07 			@ <UNDEFINED> instruction: 000dfd07
    117c:	0002bd00 			@ <UNDEFINED> instruction: 0002bd00
    1180:	0002bb00 			@ <UNDEFINED> instruction: 0002bb00
    1184:	00000e00 			@ <UNDEFINED> instruction: 00000e00
    1188:	09960000 			@ <UNDEFINED> instruction: 09960000
    118c:	0f6c0000 			@ <UNDEFINED> instruction: 0f6c0000
    1190:	01040000 			@ <UNDEFINED> instruction: 01040000
    1194:	dc740350 			@ <UNDEFINED> instruction: dc740350
    1198:	51010400 			@ <UNDEFINED> instruction: 51010400
    119c:	04007502 			@ <UNDEFINED> instruction: 04007502
    11a0:	38015201 			@ <UNDEFINED> instruction: 38015201
    11a4:	00001600 			@ <UNDEFINED> instruction: 00001600
    11a8:	09b60000 			@ <UNDEFINED> instruction: 09b60000
    11ac:	01040000 			@ <UNDEFINED> instruction: 01040000
    11b0:	d8740350 			@ <UNDEFINED> instruction: d8740350
    11b4:	00000000 			@ <UNDEFINED> instruction: 00000000
    11b8:	000dc422 			@ <UNDEFINED> instruction: 000dc422
    11bc:	00000000 			@ <UNDEFINED> instruction: 00000000
    11c0:	00000200 			@ <UNDEFINED> instruction: 00000200
    11c4:	003a0000 			@ <UNDEFINED> instruction: 003a0000
    11c8:	05a40000 			@ <UNDEFINED> instruction: 05a40000
    11cc:	00001013 			@ <UNDEFINED> instruction: 00001013
    11d0:	000dce07 			@ <UNDEFINED> instruction: 000dce07
    11d4:	0002cc00 			@ <UNDEFINED> instruction: 0002cc00
    11d8:	0002ca00 			@ <UNDEFINED> instruction: 0002ca00
    11dc:	0df04300 			@ <UNDEFINED> instruction: 0df04300
    11e0:	00000000 			@ <UNDEFINED> instruction: 00000000
    11e4:	00040000 			@ <UNDEFINED> instruction: 00040000
    11e8:	3a000000 			@ <UNDEFINED> instruction: 3a000000
    11ec:	01000000 			@ <UNDEFINED> instruction: 01000000
    11f0:	12070377 			@ <UNDEFINED> instruction: 12070377
    11f4:	db00000e 			@ <UNDEFINED> instruction: db00000e
    11f8:	d9000002 			@ <UNDEFINED> instruction: d9000002
    11fc:	07000002 			@ <UNDEFINED> instruction: 07000002
    1200:	00000e08 			@ <UNDEFINED> instruction: 00000e08
    1204:	000002e6 			@ <UNDEFINED> instruction: 000002e6
    1208:	000002e4 			@ <UNDEFINED> instruction: 000002e4
    120c:	000dfd07 			@ <UNDEFINED> instruction: 000dfd07
    1210:	0002f100 			@ <UNDEFINED> instruction: 0002f100
    1214:	0002ef00 			@ <UNDEFINED> instruction: 0002ef00
    1218:	00000e00 			@ <UNDEFINED> instruction: 00000e00
    121c:	09960000 			@ <UNDEFINED> instruction: 09960000
    1220:	10000000 			@ <UNDEFINED> instruction: 10000000
    1224:	01040000 			@ <UNDEFINED> instruction: 01040000
    1228:	c4740350 			@ <UNDEFINED> instruction: c4740350
    122c:	51010401 			@ <UNDEFINED> instruction: 51010401
    1230:	04007502 			@ <UNDEFINED> instruction: 04007502
    1234:	38015201 			@ <UNDEFINED> instruction: 38015201
    1238:	00001600 			@ <UNDEFINED> instruction: 00001600
    123c:	09b60000 			@ <UNDEFINED> instruction: 09b60000
    1240:	01040000 			@ <UNDEFINED> instruction: 01040000
    1244:	c0740350 			@ <UNDEFINED> instruction: c0740350
    1248:	00000001 			@ <UNDEFINED> instruction: 00000001
    124c:	000dae1a 			@ <UNDEFINED> instruction: 000dae1a
    1250:	00000000 			@ <UNDEFINED> instruction: 00000000
    1254:	00280200 			@ <UNDEFINED> instruction: 00280200
    1258:	05a50000 			@ <UNDEFINED> instruction: 05a50000
    125c:	000db82f 			@ <UNDEFINED> instruction: 000db82f
    1260:	38030600 			@ <UNDEFINED> instruction: 38030600
    1264:	9f200001 			@ <UNDEFINED> instruction: 9f200001
    1268:	000df01a 			@ <UNDEFINED> instruction: 000df01a
    126c:	00000000 			@ <UNDEFINED> instruction: 00000000
    1270:	00280400 			@ <UNDEFINED> instruction: 00280400
    1274:	03800000 			@ <UNDEFINED> instruction: 03800000
    1278:	000e1230 			@ <UNDEFINED> instruction: 000e1230
    127c:	08300200 			@ <UNDEFINED> instruction: 08300200
    1280:	1200000e 			@ <UNDEFINED> instruction: 1200000e
    1284:	000dfd2f 			@ <UNDEFINED> instruction: 000dfd2f
    1288:	38030600 			@ <UNDEFINED> instruction: 38030600
    128c:	9f200001 			@ <UNDEFINED> instruction: 9f200001
    1290:	0000000e 			@ <UNDEFINED> instruction: 0000000e
    1294:	00099600 			@ <UNDEFINED> instruction: 00099600
    1298:	00107700 			@ <UNDEFINED> instruction: 00107700
    129c:	50010400 			@ <UNDEFINED> instruction: 50010400
    12a0:	02ac7403 			@ <UNDEFINED> instruction: 02ac7403
    12a4:	02510104 			@ <UNDEFINED> instruction: 02510104
    12a8:	01040075 			@ <UNDEFINED> instruction: 01040075
    12ac:	00380152 			@ <UNDEFINED> instruction: 00380152
    12b0:	00000018 			@ <UNDEFINED> instruction: 00000018
    12b4:	0009b600 			@ <UNDEFINED> instruction: 0009b600
    12b8:	50010400 			@ <UNDEFINED> instruction: 50010400
    12bc:	01900305 			@ <UNDEFINED> instruction: 01900305
    12c0:	00002000 			@ <UNDEFINED> instruction: 00002000
    12c4:	ca1b0000 			@ <UNDEFINED> instruction: ca1b0000
    12c8:	0000000a 			@ <UNDEFINED> instruction: 0000000a
    12cc:	0c000000 			@ <UNDEFINED> instruction: 0c000000
    12d0:	01000000 			@ <UNDEFINED> instruction: 01000000
    12d4:	0010aa9c 			@ <UNDEFINED> instruction: 0010aa9c
    12d8:	00001500 			@ <UNDEFINED> instruction: 00001500
    12dc:	08850000 			@ <UNDEFINED> instruction: 08850000
    12e0:	44000000 			@ <UNDEFINED> instruction: 44000000
    12e4:	00000ac3 			@ <UNDEFINED> instruction: 00000ac3
    12e8:	00000000 			@ <UNDEFINED> instruction: 00000000
    12ec:	0000000c 			@ <UNDEFINED> instruction: 0000000c
    12f0:	00159c01 			@ <UNDEFINED> instruction: 00159c01
    12f4:	75000000 			@ <UNDEFINED> instruction: 75000000
    12f8:	00000008 			@ <UNDEFINED> instruction: 00000008
    12fc:	00013100 			@ <UNDEFINED> instruction: 00013100
    1300:	01000500 			@ <UNDEFINED> instruction: 01000500
    1304:	0005df04 			@ <UNDEFINED> instruction: 0005df04
    1308:	00cf0600 			@ <UNDEFINED> instruction: 00cf0600
    130c:	5b1d0000 			@ <UNDEFINED> instruction: 5b1d0000
    1310:	1d000007 			@ <UNDEFINED> instruction: 1d000007
    1314:	38000000 			@ <UNDEFINED> instruction: 38000000
    1318:	a2000002 			@ <UNDEFINED> instruction: a2000002
    131c:	5d000000 			@ <UNDEFINED> instruction: 5d000000
    1320:	01000008 			@ <UNDEFINED> instruction: 01000008
    1324:	00640708 			@ <UNDEFINED> instruction: 00640708
    1328:	04010000 			@ <UNDEFINED> instruction: 04010000
    132c:	00006e07 			@ <UNDEFINED> instruction: 00006e07
    1330:	05040700 			@ <UNDEFINED> instruction: 05040700
    1334:	00746e69 			@ <UNDEFINED> instruction: 00746e69
    1338:	0003bf08 			@ <UNDEFINED> instruction: 0003bf08
    133c:	17d60200 			@ <UNDEFINED> instruction: 17d60200
    1340:	0000002d 			@ <UNDEFINED> instruction: 0000002d
    1344:	00050801 			@ <UNDEFINED> instruction: 00050801
    1348:	01000000 			@ <UNDEFINED> instruction: 01000000
    134c:	01560408 			@ <UNDEFINED> instruction: 01560408
    1350:	01010000 			@ <UNDEFINED> instruction: 01010000
    1354:	00008606 			@ <UNDEFINED> instruction: 00008606
    1358:	08010100 			@ <UNDEFINED> instruction: 08010100
    135c:	00000084 			@ <UNDEFINED> instruction: 00000084
    1360:	62050201 			@ <UNDEFINED> instruction: 62050201
    1364:	01000001 			@ <UNDEFINED> instruction: 01000001
    1368:	01430702 			@ <UNDEFINED> instruction: 01430702
    136c:	04010000 			@ <UNDEFINED> instruction: 04010000
    1370:	00000505 			@ <UNDEFINED> instruction: 00000505
    1374:	07040100 			@ <UNDEFINED> instruction: 07040100
    1378:	00000069 			@ <UNDEFINED> instruction: 00000069
    137c:	86030409 			@ <UNDEFINED> instruction: 86030409
    1380:	01000000 			@ <UNDEFINED> instruction: 01000000
    1384:	008d0801 			@ <UNDEFINED> instruction: 008d0801
    1388:	570a0000 			@ <UNDEFINED> instruction: 570a0000
    138c:	03000005 	movweq	r0, #5
    1390:	007f0921 			@ <UNDEFINED> instruction: 007f0921
    1394:	02380000 			@ <UNDEFINED> instruction: 02380000
    1398:	00a20000 			@ <UNDEFINED> instruction: 00a20000
    139c:	9c010000 			@ <UNDEFINED> instruction: 9c010000
    13a0:	0000012f 			@ <UNDEFINED> instruction: 0000012f
    13a4:	01006d0b 			@ <UNDEFINED> instruction: 01006d0b
    13a8:	007f0f26 			@ <UNDEFINED> instruction: 007f0f26
    13ac:	50010000 			@ <UNDEFINED> instruction: 50010000
    13b0:	27006304 			@ <UNDEFINED> instruction: 27006304
    13b4:	00003406 			@ <UNDEFINED> instruction: 00003406
    13b8:	00031000 			@ <UNDEFINED> instruction: 00031000
    13bc:	00030a00 			@ <UNDEFINED> instruction: 00030a00
    13c0:	006e0400 			@ <UNDEFINED> instruction: 006e0400
    13c4:	003b0928 			@ <UNDEFINED> instruction: 003b0928
    13c8:	03420000 	movteq	r0, #8192	@ 0x2000
    13cc:	032e0000 			@ <UNDEFINED> instruction: 032e0000
    13d0:	73020000 	movwvc	r0, #8192	@ 0x2000
    13d4:	81092a00 			@ <UNDEFINED> instruction: 81092a00
    13d8:	99000000 			@ <UNDEFINED> instruction: 99000000
    13dc:	83000003 	movwhi	r0, #3
    13e0:	02000003 			@ <UNDEFINED> instruction: 02000003
    13e4:	102d0069 			@ <UNDEFINED> instruction: 102d0069
    13e8:	0000002d 			@ <UNDEFINED> instruction: 0000002d
    13ec:	000003e8 			@ <UNDEFINED> instruction: 000003e8
    13f0:	000003e2 			@ <UNDEFINED> instruction: 000003e2
    13f4:	0007a505 			@ <UNDEFINED> instruction: 0007a505
    13f8:	78112e00 			@ <UNDEFINED> instruction: 78112e00
    13fc:	0a000000 			@ <UNDEFINED> instruction: 0a000000
    1400:	02000004 			@ <UNDEFINED> instruction: 02000004
    1404:	05000004 			@ <UNDEFINED> instruction: 05000004
    1408:	00000798 			@ <UNDEFINED> instruction: 00000798
    140c:	012f122f 			@ <UNDEFINED> instruction: 012f122f
    1410:	04440000 			@ <UNDEFINED> instruction: 04440000
    1414:	042c0000 			@ <UNDEFINED> instruction: 042c0000
    1418:	64020000 			@ <UNDEFINED> instruction: 64020000
    141c:	2d103000 			@ <UNDEFINED> instruction: 2d103000
    1420:	95000000 			@ <UNDEFINED> instruction: 95000000
    1424:	8f000004 			@ <UNDEFINED> instruction: 8f000004
    1428:	00000004 			@ <UNDEFINED> instruction: 00000004
    142c:	00007803 			@ <UNDEFINED> instruction: 00007803
    1430:	01070000 			@ <UNDEFINED> instruction: 01070000
    1434:	00050000 			@ <UNDEFINED> instruction: 00050000
    1438:	06960401 			@ <UNDEFINED> instruction: 06960401
    143c:	cf030000 			@ <UNDEFINED> instruction: cf030000
    1440:	1d000000 			@ <UNDEFINED> instruction: 1d000000
    1444:	000007e7 			@ <UNDEFINED> instruction: 000007e7
    1448:	0000001d 			@ <UNDEFINED> instruction: 0000001d
    144c:	000002dc 	ldrdeq	r0, [r0], -ip
    1450:	00000050 			@ <UNDEFINED> instruction: 00000050
    1454:	00000a27 			@ <UNDEFINED> instruction: 00000a27
    1458:	86060101 			@ <UNDEFINED> instruction: 86060101
    145c:	01000000 			@ <UNDEFINED> instruction: 01000000
    1460:	00840801 			@ <UNDEFINED> instruction: 00840801
    1464:	02010000 			@ <UNDEFINED> instruction: 02010000
    1468:	00016205 			@ <UNDEFINED> instruction: 00016205
    146c:	07020100 			@ <UNDEFINED> instruction: 07020100
    1470:	00000143 			@ <UNDEFINED> instruction: 00000143
    1474:	05050401 			@ <UNDEFINED> instruction: 05050401
    1478:	01000000 			@ <UNDEFINED> instruction: 01000000
    147c:	00690704 			@ <UNDEFINED> instruction: 00690704
    1480:	08010000 			@ <UNDEFINED> instruction: 08010000
    1484:	00000005 			@ <UNDEFINED> instruction: 00000005
    1488:	07080100 			@ <UNDEFINED> instruction: 07080100
    148c:	00000064 			@ <UNDEFINED> instruction: 00000064
    1490:	69050404 			@ <UNDEFINED> instruction: 69050404
    1494:	0100746e 			@ <UNDEFINED> instruction: 0100746e
    1498:	006e0704 			@ <UNDEFINED> instruction: 006e0704
    149c:	bf050000 			@ <UNDEFINED> instruction: bf050000
    14a0:	02000003 			@ <UNDEFINED> instruction: 02000003
    14a4:	006517d6 	ldrdeq	r1, [r5], #-118	@ 0xffffff8a	@ <UNPREDICTABLE>
    14a8:	08010000 			@ <UNDEFINED> instruction: 08010000
    14ac:	00015604 			@ <UNDEFINED> instruction: 00015604
    14b0:	08010100 			@ <UNDEFINED> instruction: 08010100
    14b4:	0000008d 			@ <UNDEFINED> instruction: 0000008d
    14b8:	00009106 			@ <UNDEFINED> instruction: 00009106
    14bc:	00009100 			@ <UNDEFINED> instruction: 00009100
    14c0:	08000700 			@ <UNDEFINED> instruction: 08000700
    14c4:	00009704 			@ <UNDEFINED> instruction: 00009704
    14c8:	d1020900 			@ <UNDEFINED> instruction: d1020900
    14cc:	13000007 	movwne	r0, #7
    14d0:	00000086 			@ <UNDEFINED> instruction: 00000086
    14d4:	00082002 			@ <UNDEFINED> instruction: 00082002
    14d8:	00861400 			@ <UNDEFINED> instruction: 00861400
    14dc:	ac020000 			@ <UNDEFINED> instruction: ac020000
    14e0:	15000007 			@ <UNDEFINED> instruction: 15000007
    14e4:	00000086 			@ <UNDEFINED> instruction: 00000086
    14e8:	00083402 			@ <UNDEFINED> instruction: 00083402
    14ec:	00861600 			@ <UNDEFINED> instruction: 00861600
    14f0:	6e0a0000 			@ <UNDEFINED> instruction: 6e0a0000
    14f4:	01000009 			@ <UNDEFINED> instruction: 01000009
    14f8:	bf0b0d19 			@ <UNDEFINED> instruction: bf0b0d19
    14fc:	01000007 			@ <UNDEFINED> instruction: 01000007
    1500:	02dc011e 			@ <UNDEFINED> instruction: 02dc011e
    1504:	00500000 			@ <UNDEFINED> instruction: 00500000
    1508:	9c010000 			@ <UNDEFINED> instruction: 9c010000
    150c:	0003240c 			@ <UNDEFINED> instruction: 0003240c
    1510:	0a200100 			@ <UNDEFINED> instruction: 0a200100
    1514:	0000006c 			@ <UNDEFINED> instruction: 0000006c
    1518:	000004d2 	ldrdeq	r0, [r0], -r2
    151c:	000004cc 			@ <UNDEFINED> instruction: 000004cc
    1520:	0100690d 			@ <UNDEFINED> instruction: 0100690d
    1524:	006c0a21 			@ <UNDEFINED> instruction: 006c0a21
    1528:	04f60000 			@ <UNDEFINED> instruction: 04f60000
    152c:	04e60000 			@ <UNDEFINED> instruction: 04e60000
    1530:	fe0e0000 	cdp2	0, 0, cr0, cr14, cr0, {0}
    1534:	c0000002 			@ <UNDEFINED> instruction: c0000002
    1538:	00000000 			@ <UNDEFINED> instruction: 00000000
    153c:	0000f300 			@ <UNDEFINED> instruction: 0000f300
    1540:	01000500 			@ <UNDEFINED> instruction: 01000500
    1544:	00075f04 			@ <UNDEFINED> instruction: 00075f04
    1548:	00cf0300 			@ <UNDEFINED> instruction: 00cf0300
    154c:	581d0000 			@ <UNDEFINED> instruction: 581d0000
    1550:	1d000008 			@ <UNDEFINED> instruction: 1d000008
    1554:	2c000000 			@ <UNDEFINED> instruction: 2c000000
    1558:	28000003 			@ <UNDEFINED> instruction: 28000003
    155c:	63000000 	movwvs	r0, #0
    1560:	0100000b 			@ <UNDEFINED> instruction: 0100000b
    1564:	00860601 			@ <UNDEFINED> instruction: 00860601
    1568:	01010000 			@ <UNDEFINED> instruction: 01010000
    156c:	00008408 			@ <UNDEFINED> instruction: 00008408
    1570:	05020100 			@ <UNDEFINED> instruction: 05020100
    1574:	00000162 			@ <UNDEFINED> instruction: 00000162
    1578:	43070201 	movwmi	r0, #29185	@ 0x7201
    157c:	01000001 			@ <UNDEFINED> instruction: 01000001
    1580:	00050504 			@ <UNDEFINED> instruction: 00050504
    1584:	04010000 			@ <UNDEFINED> instruction: 04010000
    1588:	00006907 			@ <UNDEFINED> instruction: 00006907
    158c:	05080100 			@ <UNDEFINED> instruction: 05080100
    1590:	00000000 			@ <UNDEFINED> instruction: 00000000
    1594:	64070801 			@ <UNDEFINED> instruction: 64070801
    1598:	04000000 			@ <UNDEFINED> instruction: 04000000
    159c:	6e690504 			@ <UNDEFINED> instruction: 6e690504
    15a0:	04010074 			@ <UNDEFINED> instruction: 04010074
    15a4:	00006e07 			@ <UNDEFINED> instruction: 00006e07
    15a8:	03bf0500 			@ <UNDEFINED> instruction: 03bf0500
    15ac:	d6020000 			@ <UNDEFINED> instruction: d6020000
    15b0:	00006517 			@ <UNDEFINED> instruction: 00006517
    15b4:	04080100 			@ <UNDEFINED> instruction: 04080100
    15b8:	00000156 			@ <UNDEFINED> instruction: 00000156
    15bc:	8d080101 			@ <UNDEFINED> instruction: 8d080101
    15c0:	06000000 			@ <UNDEFINED> instruction: 06000000
    15c4:	00000091 			@ <UNDEFINED> instruction: 00000091
    15c8:	00000091 			@ <UNDEFINED> instruction: 00000091
    15cc:	04080007 			@ <UNDEFINED> instruction: 04080007
    15d0:	00000097 			@ <UNDEFINED> instruction: 00000097
    15d4:	08450209 			@ <UNDEFINED> instruction: 08450209
    15d8:	86110000 			@ <UNDEFINED> instruction: 86110000
    15dc:	02000000 			@ <UNDEFINED> instruction: 02000000
    15e0:	00000891 			@ <UNDEFINED> instruction: 00000891
    15e4:	00008612 			@ <UNDEFINED> instruction: 00008612
    15e8:	08a20a00 			@ <UNDEFINED> instruction: 08a20a00
    15ec:	15010000 			@ <UNDEFINED> instruction: 15010000
    15f0:	08a80b0d 			@ <UNDEFINED> instruction: 08a80b0d
    15f4:	1a010000 			@ <UNDEFINED> instruction: 1a010000
    15f8:	00032c01 			@ <UNDEFINED> instruction: 00032c01
    15fc:	00002800 			@ <UNDEFINED> instruction: 00002800
    1600:	0c9c0100 			@ <UNDEFINED> instruction: 0c9c0100
    1604:	00000324 			@ <UNDEFINED> instruction: 00000324
    1608:	6c0a1c01 			@ <UNDEFINED> instruction: 6c0a1c01
    160c:	35000000 			@ <UNDEFINED> instruction: 35000000
    1610:	31000005 			@ <UNDEFINED> instruction: 31000005
    1614:	0d000005 			@ <UNDEFINED> instruction: 0d000005
    1618:	1d010069 			@ <UNDEFINED> instruction: 1d010069
    161c:	00006c0a 			@ <UNDEFINED> instruction: 00006c0a
    1620:	00054c00 			@ <UNDEFINED> instruction: 00054c00
    1624:	00054400 			@ <UNDEFINED> instruction: 00054400
    1628:	034c0e00 	movteq	r0, #52736	@ 0xce00
    162c:	00ac0000 			@ <UNDEFINED> instruction: 00ac0000
    1630:	00000000 			@ <UNDEFINED> instruction: 00000000
    1634:	00000214 			@ <UNDEFINED> instruction: 00000214
    1638:	04010005 			@ <UNDEFINED> instruction: 04010005
    163c:	0000082b 			@ <UNDEFINED> instruction: 0000082b
    1640:	0000cf06 			@ <UNDEFINED> instruction: 0000cf06
    1644:	08ba1d00 			@ <UNDEFINED> instruction: 08ba1d00
    1648:	001d0000 			@ <UNDEFINED> instruction: 001d0000
    164c:	03540000 			@ <UNDEFINED> instruction: 03540000
    1650:	00260000 			@ <UNDEFINED> instruction: 00260000
    1654:	0c530000 	mrrceq	0, 0, r0, r3, cr0
    1658:	08040000 			@ <UNDEFINED> instruction: 08040000
    165c:	00006407 			@ <UNDEFINED> instruction: 00006407
    1660:	07040400 			@ <UNDEFINED> instruction: 07040400
    1664:	0000006e 			@ <UNDEFINED> instruction: 0000006e
    1668:	0005b007 			@ <UNDEFINED> instruction: 0005b007
    166c:	19220200 			@ <UNDEFINED> instruction: 19220200
    1670:	00000040 			@ <UNDEFINED> instruction: 00000040
    1674:	00004505 			@ <UNDEFINED> instruction: 00004505
    1678:	06460800 			@ <UNDEFINED> instruction: 06460800
    167c:	01010000 			@ <UNDEFINED> instruction: 01010000
    1680:	00600858 			@ <UNDEFINED> instruction: 00600858
    1684:	58090000 			@ <UNDEFINED> instruction: 58090000
    1688:	01000009 			@ <UNDEFINED> instruction: 01000009
    168c:	00600859 			@ <UNDEFINED> instruction: 00600859
    1690:	00000000 			@ <UNDEFINED> instruction: 00000000
    1694:	8d080104 			@ <UNDEFINED> instruction: 8d080104
    1698:	02000000 			@ <UNDEFINED> instruction: 02000000
    169c:	000006aa 			@ <UNDEFINED> instruction: 000006aa
    16a0:	0000455c 			@ <UNDEFINED> instruction: 0000455c
    16a4:	c0030500 			@ <UNDEFINED> instruction: c0030500
    16a8:	02200001 			@ <UNDEFINED> instruction: 02200001
    16ac:	00000a0e 			@ <UNDEFINED> instruction: 00000a0e
    16b0:	0000455d 			@ <UNDEFINED> instruction: 0000455d
    16b4:	bc030500 			@ <UNDEFINED> instruction: bc030500
    16b8:	02200001 			@ <UNDEFINED> instruction: 02200001
    16bc:	00000a57 			@ <UNDEFINED> instruction: 00000a57
    16c0:	0000455e 			@ <UNDEFINED> instruction: 0000455e
    16c4:	b8030500 			@ <UNDEFINED> instruction: b8030500
    16c8:	02200001 			@ <UNDEFINED> instruction: 02200001
    16cc:	0000099a 			@ <UNDEFINED> instruction: 0000099a
    16d0:	0000455f 			@ <UNDEFINED> instruction: 0000455f
    16d4:	b4030500 			@ <UNDEFINED> instruction: b4030500
    16d8:	02200001 			@ <UNDEFINED> instruction: 02200001
    16dc:	000008f3 	strdeq	r0, [r0], -r3
    16e0:	00004560 			@ <UNDEFINED> instruction: 00004560
    16e4:	b0030500 			@ <UNDEFINED> instruction: b0030500
    16e8:	02200001 			@ <UNDEFINED> instruction: 02200001
    16ec:	00000a45 			@ <UNDEFINED> instruction: 00000a45
    16f0:	00004561 			@ <UNDEFINED> instruction: 00004561
    16f4:	ac030500 			@ <UNDEFINED> instruction: ac030500
    16f8:	02200001 			@ <UNDEFINED> instruction: 02200001
    16fc:	00000a2e 			@ <UNDEFINED> instruction: 00000a2e
    1700:	00004562 			@ <UNDEFINED> instruction: 00004562
    1704:	a8030500 			@ <UNDEFINED> instruction: a8030500
    1708:	02200001 			@ <UNDEFINED> instruction: 02200001
    170c:	00000926 			@ <UNDEFINED> instruction: 00000926
    1710:	00004563 			@ <UNDEFINED> instruction: 00004563
    1714:	a4030500 			@ <UNDEFINED> instruction: a4030500
    1718:	03200001 			@ <UNDEFINED> instruction: 03200001
    171c:	00000585 			@ <UNDEFINED> instruction: 00000585
    1720:	0000fd3c 			@ <UNDEFINED> instruction: 0000fd3c
    1724:	06480100 			@ <UNDEFINED> instruction: 06480100
    1728:	2c950000 			@ <UNDEFINED> instruction: 2c950000
    172c:	00000034 			@ <UNDEFINED> instruction: 00000034
    1730:	09400300 			@ <UNDEFINED> instruction: 09400300
    1734:	133a0000 			@ <UNDEFINED> instruction: 133a0000
    1738:	01000001 			@ <UNDEFINED> instruction: 01000001
    173c:	00000648 			@ <UNDEFINED> instruction: 00000648
    1740:	00342290 			@ <UNDEFINED> instruction: 0x00342290
    1744:	0a000000 			@ <UNDEFINED> instruction: 0a000000
    1748:	00000974 			@ <UNDEFINED> instruction: 00000974
    174c:	2f0c3702 			@ <UNDEFINED> instruction: 2f0c3702
    1750:	2f000001 			@ <UNDEFINED> instruction: 2f000001
    1754:	01000001 			@ <UNDEFINED> instruction: 01000001
    1758:	00000648 			@ <UNDEFINED> instruction: 00000648
    175c:	00342f8a 			@ <UNDEFINED> instruction: 00342f8a
    1760:	0b000000 			@ <UNDEFINED> instruction: 0b000000
    1764:	6e690504 			@ <UNDEFINED> instruction: 6e690504
    1768:	da0c0074 			@ <UNDEFINED> instruction: da0c0074
    176c:	02000009 			@ <UNDEFINED> instruction: 02000009
    1770:	012f0c35 			@ <UNDEFINED> instruction: 012f0c35
    1774:	53010000 	movwpl	r0, #4096	@ 0x1000
    1778:	01000001 			@ <UNDEFINED> instruction: 01000001
    177c:	00000648 			@ <UNDEFINED> instruction: 00000648
    1780:	00342584 			@ <UNDEFINED> instruction: 00342584
    1784:	03000000 	movweq	r0, #0
    1788:	000006c7 			@ <UNDEFINED> instruction: 000006c7
    178c:	00016933 			@ <UNDEFINED> instruction: 00016933
    1790:	06480100 			@ <UNDEFINED> instruction: 06480100
    1794:	2c7f0000 			@ <UNDEFINED> instruction: 2c7f0000
    1798:	00000034 			@ <UNDEFINED> instruction: 00000034
    179c:	09f60300 			@ <UNDEFINED> instruction: 09f60300
    17a0:	7f310000 			@ <UNDEFINED> instruction: 7f310000
    17a4:	01000001 			@ <UNDEFINED> instruction: 01000001
    17a8:	00000648 			@ <UNDEFINED> instruction: 00000648
    17ac:	0034227a 			@ <UNDEFINED> instruction: 0034227a
    17b0:	03000000 	movweq	r0, #0
    17b4:	000009ba 			@ <UNDEFINED> instruction: 000009ba
    17b8:	0001952f 			@ <UNDEFINED> instruction: 0001952f
    17bc:	06480100 			@ <UNDEFINED> instruction: 06480100
    17c0:	29750000 			@ <UNDEFINED> instruction: 29750000
    17c4:	00000034 			@ <UNDEFINED> instruction: 00000034
    17c8:	09100300 			@ <UNDEFINED> instruction: 09100300
    17cc:	ab2d0000 			@ <UNDEFINED> instruction: ab2d0000
    17d0:	01000001 			@ <UNDEFINED> instruction: 01000001
    17d4:	00000648 			@ <UNDEFINED> instruction: 00000648
    17d8:	00341f70 			@ <UNDEFINED> instruction: 00341f70
    17dc:	03000000 	movweq	r0, #0
    17e0:	000003cf 			@ <UNDEFINED> instruction: 000003cf
    17e4:	0001c12b 			@ <UNDEFINED> instruction: 0001c12b
    17e8:	06480100 			@ <UNDEFINED> instruction: 06480100
    17ec:	296b0000 			@ <UNDEFINED> instruction: 296b0000
    17f0:	000001c1 			@ <UNDEFINED> instruction: 000001c1
    17f4:	00340500 			@ <UNDEFINED> instruction: 00340500
    17f8:	5f0d0000 			@ <UNDEFINED> instruction: 5f0d0000
    17fc:	02000009 			@ <UNDEFINED> instruction: 02000009
    1800:	df010d29 			@ <UNDEFINED> instruction: df010d29
    1804:	01000001 			@ <UNDEFINED> instruction: 01000001
    1808:	00000648 			@ <UNDEFINED> instruction: 00000648
    180c:	01c12066 			@ <UNDEFINED> instruction: 01c12066
    1810:	0e000000 			@ <UNDEFINED> instruction: 0e000000
    1814:	000001c6 			@ <UNDEFINED> instruction: 000001c6
    1818:	00000354 			@ <UNDEFINED> instruction: 00000354
    181c:	00000002 			@ <UNDEFINED> instruction: 00000002
    1820:	01fa9c01 			@ <UNDEFINED> instruction: 01fa9c01
    1824:	d30f0000 	movwle	r0, #61440	@ 0xf000
    1828:	01000001 			@ <UNDEFINED> instruction: 01000001
    182c:	36100050 			@ <UNDEFINED> instruction: 36100050
    1830:	6c000001 			@ <UNDEFINED> instruction: 6c000001
    1834:	04000003 			@ <UNDEFINED> instruction: 04000003
    1838:	01000000 			@ <UNDEFINED> instruction: 01000000
    183c:	0147119c 			@ <UNDEFINED> instruction: 0147119c
    1840:	05770000 			@ <UNDEFINED> instruction: 05770000
    1844:	05730000 			@ <UNDEFINED> instruction: 05730000
    1848:	00000000 			@ <UNDEFINED> instruction: 00000000
    184c:	000002e3 			@ <UNDEFINED> instruction: 000002e3
    1850:	04010005 			@ <UNDEFINED> instruction: 04010005
    1854:	00000940 			@ <UNDEFINED> instruction: 00000940
    1858:	0000cf0f 			@ <UNDEFINED> instruction: 0000cf0f
    185c:	0a831d00 			@ <UNDEFINED> instruction: 0a831d00
    1860:	001d0000 			@ <UNDEFINED> instruction: 001d0000
    1864:	037c0000 			@ <UNDEFINED> instruction: 037c0000
    1868:	00bc0000 			@ <UNDEFINED> instruction: 00bc0000
    186c:	0d2a0000 			@ <UNDEFINED> instruction: 0d2a0000
    1870:	04100000 			@ <UNDEFINED> instruction: 04100000
    1874:	746e6905 			@ <UNDEFINED> instruction: 746e6905
    1878:	03bf0500 			@ <UNDEFINED> instruction: 03bf0500
    187c:	d6020000 			@ <UNDEFINED> instruction: d6020000
    1880:	00003917 			@ <UNDEFINED> instruction: 00003917
    1884:	07040100 			@ <UNDEFINED> instruction: 07040100
    1888:	0000006e 			@ <UNDEFINED> instruction: 0000006e
    188c:	00050801 			@ <UNDEFINED> instruction: 00050801
    1890:	01000000 			@ <UNDEFINED> instruction: 01000000
    1894:	01560408 			@ <UNDEFINED> instruction: 01560408
    1898:	01010000 			@ <UNDEFINED> instruction: 01010000
    189c:	00008606 			@ <UNDEFINED> instruction: 00008606
    18a0:	08010100 			@ <UNDEFINED> instruction: 08010100
    18a4:	00000084 			@ <UNDEFINED> instruction: 00000084
    18a8:	62050201 			@ <UNDEFINED> instruction: 62050201
    18ac:	01000001 			@ <UNDEFINED> instruction: 01000001
    18b0:	01430702 			@ <UNDEFINED> instruction: 01430702
    18b4:	04010000 			@ <UNDEFINED> instruction: 04010000
    18b8:	00000505 			@ <UNDEFINED> instruction: 00000505
    18bc:	07040100 			@ <UNDEFINED> instruction: 07040100
    18c0:	00000069 			@ <UNDEFINED> instruction: 00000069
    18c4:	64070801 			@ <UNDEFINED> instruction: 64070801
    18c8:	11000000 			@ <UNDEFINED> instruction: 11000000
    18cc:	05400504 			@ <UNDEFINED> instruction: 05400504
    18d0:	17030000 			@ <UNDEFINED> instruction: 17030000
    18d4:	00007119 			@ <UNDEFINED> instruction: 00007119
    18d8:	05b00500 			@ <UNDEFINED> instruction: 05b00500
    18dc:	22040000 			@ <UNDEFINED> instruction: 22040000
    18e0:	00009919 			@ <UNDEFINED> instruction: 00009919
    18e4:	009e0300 			@ <UNDEFINED> instruction: 009e0300
    18e8:	46120000 			@ <UNDEFINED> instruction: 46120000
    18ec:	13000006 	movwne	r0, #6
    18f0:	00000a75 			@ <UNDEFINED> instruction: 00000a75
    18f4:	50030108 			@ <UNDEFINED> instruction: 50030108
    18f8:	0000e208 			@ <UNDEFINED> instruction: 0000e208
    18fc:	0b290200 			@ <UNDEFINED> instruction: 0b290200
    1900:	0a510000 			@ <UNDEFINED> instruction: 0a510000
    1904:	000000e2 			@ <UNDEFINED> instruction: 000000e2
    1908:	0ac20200 			@ <UNDEFINED> instruction: 0ac20200
    190c:	09520000 			@ <UNDEFINED> instruction: 09520000
    1910:	000000e2 			@ <UNDEFINED> instruction: 000000e2
    1914:	0adf0a80 			@ <UNDEFINED> instruction: 0adf0a80
    1918:	81540000 			@ <UNDEFINED> instruction: 81540000
    191c:	00000000 			@ <UNDEFINED> instruction: 00000000
    1920:	0ad70a01 			@ <UNDEFINED> instruction: 0ad70a01
    1924:	81570000 			@ <UNDEFINED> instruction: 81570000
    1928:	04000000 			@ <UNDEFINED> instruction: 04000000
    192c:	7f0b0001 			@ <UNDEFINED> instruction: 7f0b0001
    1930:	f1000000 	cps	#0
    1934:	0c000000 			@ <UNDEFINED> instruction: 0c000000
    1938:	00000039 			@ <UNDEFINED> instruction: 00000039
    193c:	0acf1400 			@ <UNDEFINED> instruction: 0acf1400
    1940:	038c0000 			@ <UNDEFINED> instruction: 038c0000
    1944:	012f085b 			@ <UNDEFINED> instruction: 012f085b
    1948:	2e020000 			@ <UNDEFINED> instruction: 2e020000
    194c:	5c000007 			@ <UNDEFINED> instruction: 5c000007
    1950:	00012f12 			@ <UNDEFINED> instruction: 00012f12
    1954:	ed020000 			@ <UNDEFINED> instruction: ed020000
    1958:	5d00000a 			@ <UNDEFINED> instruction: 5d00000a
    195c:	00002606 			@ <UNDEFINED> instruction: 00002606
    1960:	f2020400 	vshl.s8	d0, d0, d2
    1964:	5e00000a 			@ <UNDEFINED> instruction: 5e00000a
    1968:	00013409 			@ <UNDEFINED> instruction: 00013409
    196c:	06020800 			@ <UNDEFINED> instruction: 06020800
    1970:	5f00000b 			@ <UNDEFINED> instruction: 5f00000b
    1974:	00014920 			@ <UNDEFINED> instruction: 00014920
    1978:	03008800 	movweq	r8, #2048	@ 0x800
    197c:	000000f1 	strdeq	r0, [r0], -r1
    1980:	0001430b 			@ <UNDEFINED> instruction: 0001430b
    1984:	00014300 			@ <UNDEFINED> instruction: 00014300
    1988:	00390c00 			@ <UNDEFINED> instruction: 00390c00
    198c:	03000000 	movweq	r0, #0
    1990:	00000148 			@ <UNDEFINED> instruction: 00000148
    1994:	00a30315 			@ <UNDEFINED> instruction: 00a30315
    1998:	49160000 			@ <UNDEFINED> instruction: 49160000
    199c:	01000001 			@ <UNDEFINED> instruction: 01000001
    19a0:	008d0801 			@ <UNDEFINED> instruction: 008d0801
    19a4:	ce0d0000 			@ <UNDEFINED> instruction: ce0d0000
    19a8:	9500000a 			@ <UNDEFINED> instruction: 9500000a
    19ac:	012f1803 			@ <UNDEFINED> instruction: 012f1803
    19b0:	180d0000 			@ <UNDEFINED> instruction: 180d0000
    19b4:	9600000b 			@ <UNDEFINED> instruction: 9600000b
    19b8:	00f11703 			@ <UNDEFINED> instruction: 00f11703
    19bc:	77030000 			@ <UNDEFINED> instruction: 77030000
    19c0:	17000001 			@ <UNDEFINED> instruction: 17000001
    19c4:	00000e18 			@ <UNDEFINED> instruction: 00000e18
    19c8:	55010700 			@ <UNDEFINED> instruction: 55010700
    19cc:	05000000 			@ <UNDEFINED> instruction: 05000000
    19d0:	019d0605 			@ <UNDEFINED> instruction: 019d0605
    19d4:	6c060000 			@ <UNDEFINED> instruction: 6c060000
    19d8:	00000001 			@ <UNDEFINED> instruction: 00000001
    19dc:	00017806 			@ <UNDEFINED> instruction: 00017806
    19e0:	7b060100 			@ <UNDEFINED> instruction: 7b060100
    19e4:	02000000 			@ <UNDEFINED> instruction: 02000000
    19e8:	0af71900 			@ <UNDEFINED> instruction: 0af71900
    19ec:	31010000 			@ <UNDEFINED> instruction: 31010000
    19f0:	0001720e 			@ <UNDEFINED> instruction: 0001720e
    19f4:	00030500 			@ <UNDEFINED> instruction: 00030500
    19f8:	0e000000 			@ <UNDEFINED> instruction: 0e000000
    19fc:	00000a15 			@ <UNDEFINED> instruction: 00000a15
    1a00:	008d1a35 			@ <UNDEFINED> instruction: 008d1a35
    1a04:	661a0000 			@ <UNDEFINED> instruction: 661a0000
    1a08:	05000001 			@ <UNDEFINED> instruction: 05000001
    1a0c:	0001c403 			@ <UNDEFINED> instruction: 0001c403
    1a10:	0b221b20 			@ <UNDEFINED> instruction: 0b221b20
    1a14:	6c060000 			@ <UNDEFINED> instruction: 6c060000
    1a18:	00007f07 			@ <UNDEFINED> instruction: 00007f07
    1a1c:	0001db00 			@ <UNDEFINED> instruction: 0001db00
    1a20:	002d0400 			@ <UNDEFINED> instruction: 002d0400
    1a24:	07000000 			@ <UNDEFINED> instruction: 07000000
    1a28:	00000585 			@ <UNDEFINED> instruction: 00000585
    1a2c:	ed0d3c04 			@ <UNDEFINED> instruction: ed0d3c04
    1a30:	04000001 			@ <UNDEFINED> instruction: 04000001
    1a34:	0000008d 			@ <UNDEFINED> instruction: 0000008d
    1a38:	06c70700 			@ <UNDEFINED> instruction: 06c70700
    1a3c:	33040000 	movwcc	r0, #16384	@ 0x4000
    1a40:	0001ff0d 			@ <UNDEFINED> instruction: 0001ff0d
    1a44:	008d0400 			@ <UNDEFINED> instruction: 008d0400
    1a48:	07000000 			@ <UNDEFINED> instruction: 07000000
    1a4c:	0000018a 			@ <UNDEFINED> instruction: 0000018a
    1a50:	16060c05 			@ <UNDEFINED> instruction: 16060c05
    1a54:	04000002 			@ <UNDEFINED> instruction: 04000002
    1a58:	00000026 			@ <UNDEFINED> instruction: 00000026
    1a5c:	00007f04 			@ <UNDEFINED> instruction: 00007f04
    1a60:	2f1c0000 			@ <UNDEFINED> instruction: 2f1c0000
    1a64:	01000001 			@ <UNDEFINED> instruction: 01000001
    1a68:	0026013f 			@ <UNDEFINED> instruction: 0026013f
    1a6c:	037c0000 			@ <UNDEFINED> instruction: 037c0000
    1a70:	00bc0000 			@ <UNDEFINED> instruction: 00bc0000
    1a74:	9c010000 			@ <UNDEFINED> instruction: 9c010000
    1a78:	000ae81d 			@ <UNDEFINED> instruction: 000ae81d
    1a7c:	1a3f0100 			@ <UNDEFINED> instruction: 1a3f0100
    1a80:	00000026 			@ <UNDEFINED> instruction: 00000026
    1a84:	0000059b 			@ <UNDEFINED> instruction: 0000059b
    1a88:	00000597 			@ <UNDEFINED> instruction: 00000597
    1a8c:	006e6608 			@ <UNDEFINED> instruction: 006e6608
    1a90:	01430940 			@ <UNDEFINED> instruction: 01430940
    1a94:	05ab0000 			@ <UNDEFINED> instruction: 05ab0000
    1a98:	05a70000 			@ <UNDEFINED> instruction: 05a70000
    1a9c:	61080000 			@ <UNDEFINED> instruction: 61080000
    1aa0:	41006772 			@ <UNDEFINED> instruction: 41006772
    1aa4:	00007f08 			@ <UNDEFINED> instruction: 00007f08
    1aa8:	0005bb00 			@ <UNDEFINED> instruction: 0005bb00
    1aac:	0005b700 			@ <UNDEFINED> instruction: 0005b700
    1ab0:	00640800 			@ <UNDEFINED> instruction: 00640800
    1ab4:	007f0842 			@ <UNDEFINED> instruction: 007f0842
    1ab8:	05cb0000 			@ <UNDEFINED> instruction: 05cb0000
    1abc:	05c70000 			@ <UNDEFINED> instruction: 05c70000
    1ac0:	7e1e0000 			@ <UNDEFINED> instruction: 7e1e0000
    1ac4:	0100000a 			@ <UNDEFINED> instruction: 0100000a
    1ac8:	01491a44 			@ <UNDEFINED> instruction: 01491a44
    1acc:	05df0000 			@ <UNDEFINED> instruction: 05df0000
    1ad0:	05d70000 			@ <UNDEFINED> instruction: 05d70000
    1ad4:	701f0000 			@ <UNDEFINED> instruction: 701f0000
    1ad8:	1c450100 	mcrrne	1, 0, r0, r5, cr0
    1adc:	0000012f 			@ <UNDEFINED> instruction: 0000012f
    1ae0:	00000601 			@ <UNDEFINED> instruction: 00000601
    1ae4:	000005fb 	strdeq	r0, [r0], -fp
    1ae8:	0003e820 			@ <UNDEFINED> instruction: 0003e820
    1aec:	00001200 			@ <UNDEFINED> instruction: 00001200
    1af0:	0002b500 			@ <UNDEFINED> instruction: 0002b500
    1af4:	0a740e00 			@ <UNDEFINED> instruction: 0a740e00
    1af8:	2b500000 			@ <UNDEFINED> instruction: 2b500000
    1afc:	0000014e 			@ <UNDEFINED> instruction: 0000014e
    1b00:	03940900 			@ <UNDEFINED> instruction: 03940900
    1b04:	01ed0000 			@ <UNDEFINED> instruction: 01ed0000
    1b08:	e2090000 			@ <UNDEFINED> instruction: e2090000
    1b0c:	db000003 			@ <UNDEFINED> instruction: db000003
    1b10:	21000001 			@ <UNDEFINED> instruction: 21000001
    1b14:	00000406 			@ <UNDEFINED> instruction: 00000406
    1b18:	000001c5 			@ <UNDEFINED> instruction: 000001c5
    1b1c:	000002dc 	ldrdeq	r0, [r0], -ip
    1b20:	03500122 			@ <UNDEFINED> instruction: 03500122
    1b24:	0001080a 			@ <UNDEFINED> instruction: 0001080a
    1b28:	00041e09 			@ <UNDEFINED> instruction: 00041e09
    1b2c:	0001db00 			@ <UNDEFINED> instruction: 0001db00
    1b30:	8c000000 			@ <UNDEFINED> instruction: 8c000000
    1b34:	05000002 			@ <UNDEFINED> instruction: 05000002
    1b38:	29040100 			@ <UNDEFINED> instruction: 29040100
    1b3c:	0b00000b 			@ <UNDEFINED> instruction: 0b00000b
    1b40:	000000cf 			@ <UNDEFINED> instruction: 000000cf
    1b44:	000b391d 			@ <UNDEFINED> instruction: 000b391d
    1b48:	00001d00 			@ <UNDEFINED> instruction: 00001d00
    1b4c:	00043800 			@ <UNDEFINED> instruction: 00043800
    1b50:	0000d800 			@ <UNDEFINED> instruction: 0000d800
    1b54:	000f7c00 			@ <UNDEFINED> instruction: 000f7c00
    1b58:	07080100 			@ <UNDEFINED> instruction: 07080100
    1b5c:	00000064 			@ <UNDEFINED> instruction: 00000064
    1b60:	6e070401 			@ <UNDEFINED> instruction: 6e070401
    1b64:	0c000000 			@ <UNDEFINED> instruction: 0c000000
    1b68:	6e690504 			@ <UNDEFINED> instruction: 6e690504
    1b6c:	08010074 			@ <UNDEFINED> instruction: 08010074
    1b70:	00000005 			@ <UNDEFINED> instruction: 00000005
    1b74:	04080100 			@ <UNDEFINED> instruction: 04080100
    1b78:	00000156 			@ <UNDEFINED> instruction: 00000156
    1b7c:	86060101 			@ <UNDEFINED> instruction: 86060101
    1b80:	01000000 			@ <UNDEFINED> instruction: 01000000
    1b84:	00840801 			@ <UNDEFINED> instruction: 00840801
    1b88:	02010000 			@ <UNDEFINED> instruction: 02010000
    1b8c:	00016205 			@ <UNDEFINED> instruction: 00016205
    1b90:	07020100 			@ <UNDEFINED> instruction: 07020100
    1b94:	00000143 			@ <UNDEFINED> instruction: 00000143
    1b98:	05050401 			@ <UNDEFINED> instruction: 05050401
    1b9c:	01000000 			@ <UNDEFINED> instruction: 01000000
    1ba0:	00690704 			@ <UNDEFINED> instruction: 00690704
    1ba4:	040d0000 			@ <UNDEFINED> instruction: 040d0000
    1ba8:	00054005 			@ <UNDEFINED> instruction: 00054005
    1bac:	6c170200 			@ <UNDEFINED> instruction: 6c170200
    1bb0:	05000000 			@ <UNDEFINED> instruction: 05000000
    1bb4:	000005b0 			@ <UNDEFINED> instruction: 000005b0
    1bb8:	008b2203 			@ <UNDEFINED> instruction: 008b2203
    1bbc:	90030000 			@ <UNDEFINED> instruction: 90030000
    1bc0:	0e000000 			@ <UNDEFINED> instruction: 0e000000
    1bc4:	00000646 			@ <UNDEFINED> instruction: 00000646
    1bc8:	000a750f 			@ <UNDEFINED> instruction: 000a750f
    1bcc:	02010800 			@ <UNDEFINED> instruction: 02010800
    1bd0:	00d40850 			@ <UNDEFINED> instruction: 00d40850
    1bd4:	29020000 			@ <UNDEFINED> instruction: 29020000
    1bd8:	5100000b 			@ <UNDEFINED> instruction: 5100000b
    1bdc:	0000d40a 			@ <UNDEFINED> instruction: 0000d40a
    1be0:	c2020000 			@ <UNDEFINED> instruction: c2020000
    1be4:	5200000a 			@ <UNDEFINED> instruction: 5200000a
    1be8:	0000d409 			@ <UNDEFINED> instruction: 0000d409
    1bec:	df068000 			@ <UNDEFINED> instruction: df068000
    1bf0:	5400000a 			@ <UNDEFINED> instruction: 5400000a
    1bf4:	00000075 			@ <UNDEFINED> instruction: 00000075
    1bf8:	d7060100 			@ <UNDEFINED> instruction: d7060100
    1bfc:	5700000a 			@ <UNDEFINED> instruction: 5700000a
    1c00:	00000075 			@ <UNDEFINED> instruction: 00000075
    1c04:	07000104 			@ <UNDEFINED> instruction: 07000104
    1c08:	00000073 			@ <UNDEFINED> instruction: 00000073
    1c0c:	000000e3 			@ <UNDEFINED> instruction: 000000e3
    1c10:	00002d08 			@ <UNDEFINED> instruction: 00002d08
    1c14:	cf100000 			@ <UNDEFINED> instruction: cf100000
    1c18:	8c00000a 			@ <UNDEFINED> instruction: 8c00000a
    1c1c:	21085b02 			@ <UNDEFINED> instruction: 21085b02
    1c20:	02000001 			@ <UNDEFINED> instruction: 02000001
    1c24:	0000072e 			@ <UNDEFINED> instruction: 0000072e
    1c28:	0121125c 			@ <UNDEFINED> instruction: 0121125c
    1c2c:	02000000 			@ <UNDEFINED> instruction: 02000000
    1c30:	00000aed 			@ <UNDEFINED> instruction: 00000aed
    1c34:	0034065d 			@ <UNDEFINED> instruction: 0034065d
    1c38:	02040000 			@ <UNDEFINED> instruction: 02040000
    1c3c:	00000af2 	strdeq	r0, [r0], -r2
    1c40:	0126095e 			@ <UNDEFINED> instruction: 0126095e
    1c44:	02080000 			@ <UNDEFINED> instruction: 02080000
    1c48:	00000b06 			@ <UNDEFINED> instruction: 00000b06
    1c4c:	013b205f 			@ <UNDEFINED> instruction: 013b205f
    1c50:	00880000 			@ <UNDEFINED> instruction: 00880000
    1c54:	0000e303 			@ <UNDEFINED> instruction: 0000e303
    1c58:	01350700 			@ <UNDEFINED> instruction: 01350700
    1c5c:	01350000 			@ <UNDEFINED> instruction: 01350000
    1c60:	2d080000 			@ <UNDEFINED> instruction: 2d080000
    1c64:	00000000 			@ <UNDEFINED> instruction: 00000000
    1c68:	00013a03 			@ <UNDEFINED> instruction: 00013a03
    1c6c:	95031100 			@ <UNDEFINED> instruction: 95031100
    1c70:	01000000 			@ <UNDEFINED> instruction: 01000000
    1c74:	008d0801 			@ <UNDEFINED> instruction: 008d0801
    1c78:	ce120000 			@ <UNDEFINED> instruction: ce120000
    1c7c:	0200000a 			@ <UNDEFINED> instruction: 0200000a
    1c80:	21180395 			@ <UNDEFINED> instruction: 21180395
    1c84:	13000001 	movwne	r0, #1
    1c88:	00000a0e 			@ <UNDEFINED> instruction: 00000a0e
    1c8c:	90011101 			@ <UNDEFINED> instruction: 90011101
    1c90:	14000000 			@ <UNDEFINED> instruction: 14000000
    1c94:	00000a15 			@ <UNDEFINED> instruction: 00000a15
    1c98:	80011101 			@ <UNDEFINED> instruction: 80011101
    1c9c:	05000000 			@ <UNDEFINED> instruction: 05000000
    1ca0:	00000003 			@ <UNDEFINED> instruction: 00000003
    1ca4:	01471520 			@ <UNDEFINED> instruction: 01471520
    1ca8:	03050000 	movweq	r0, #20480	@ 0x5000
    1cac:	20000250 			@ <UNDEFINED> instruction: 20000250
    1cb0:	00058509 			@ <UNDEFINED> instruction: 00058509
    1cb4:	018d3c00 			@ <UNDEFINED> instruction: 018d3c00
    1cb8:	800a0000 			@ <UNDEFINED> instruction: 800a0000
    1cbc:	00000000 			@ <UNDEFINED> instruction: 00000000
    1cc0:	0006c709 			@ <UNDEFINED> instruction: 0006c709
    1cc4:	019d3300 			@ <UNDEFINED> instruction: 019d3300
    1cc8:	800a0000 			@ <UNDEFINED> instruction: 800a0000
    1ccc:	00000000 			@ <UNDEFINED> instruction: 00000000
    1cd0:	00018a16 			@ <UNDEFINED> instruction: 00018a16
    1cd4:	01440100 			@ <UNDEFINED> instruction: 01440100
    1cd8:	00000438 			@ <UNDEFINED> instruction: 00000438
    1cdc:	000000d8 	ldrdeq	r0, [r0], -r8
    1ce0:	028a9c01 			@ <UNDEFINED> instruction: 028a9c01
    1ce4:	d6170000 			@ <UNDEFINED> instruction: d6170000
    1ce8:	01000001 			@ <UNDEFINED> instruction: 01000001
    1cec:	00341744 			@ <UNDEFINED> instruction: 00341744
    1cf0:	062d0000 			@ <UNDEFINED> instruction: 062d0000
    1cf4:	06230000 			@ <UNDEFINED> instruction: 06230000
    1cf8:	64180000 			@ <UNDEFINED> instruction: 64180000
    1cfc:	23440100 	movtcs	r0, #16640	@ 0x4100
    1d00:	00000073 			@ <UNDEFINED> instruction: 00000073
    1d04:	00000657 			@ <UNDEFINED> instruction: 00000657
    1d08:	0000064f 			@ <UNDEFINED> instruction: 0000064f
    1d0c:	46007004 			@ <UNDEFINED> instruction: 46007004
    1d10:	0001211c 			@ <UNDEFINED> instruction: 0001211c
    1d14:	00068200 			@ <UNDEFINED> instruction: 00068200
    1d18:	00067a00 			@ <UNDEFINED> instruction: 00067a00
    1d1c:	0b7d1900 			@ <UNDEFINED> instruction: 0b7d1900
    1d20:	47010000 			@ <UNDEFINED> instruction: 47010000
    1d24:	00028a14 			@ <UNDEFINED> instruction: 00028a14
    1d28:	50030600 			@ <UNDEFINED> instruction: 50030600
    1d2c:	9f200002 			@ <UNDEFINED> instruction: 9f200002
    1d30:	000a7e1a 			@ <UNDEFINED> instruction: 000a7e1a
    1d34:	23480100 	movtcs	r0, #33024	@ 0x8100
    1d38:	0000013b 			@ <UNDEFINED> instruction: 0000013b
    1d3c:	000006a6 			@ <UNDEFINED> instruction: 000006a6
    1d40:	000006a2 			@ <UNDEFINED> instruction: 000006a2
    1d44:	49006e04 			@ <UNDEFINED> instruction: 49006e04
    1d48:	00003410 			@ <UNDEFINED> instruction: 00003410
    1d4c:	0006bc00 			@ <UNDEFINED> instruction: 0006bc00
    1d50:	0006b400 			@ <UNDEFINED> instruction: 0006b400
    1d54:	00690400 			@ <UNDEFINED> instruction: 00690400
    1d58:	0034074a 			@ <UNDEFINED> instruction: 0034074a
    1d5c:	06dc0000 			@ <UNDEFINED> instruction: 06dc0000
    1d60:	06d80000 			@ <UNDEFINED> instruction: 06d80000
    1d64:	66040000 			@ <UNDEFINED> instruction: 66040000
    1d68:	0a4b006e 			@ <UNDEFINED> instruction: 0a4b006e
    1d6c:	00000135 			@ <UNDEFINED> instruction: 00000135
    1d70:	000006f7 	strdeq	r0, [r0], -r7
    1d74:	000006f1 	strdeq	r0, [r0], -r1
    1d78:	000b311b 			@ <UNDEFINED> instruction: 000b311b
    1d7c:	02520100 			@ <UNDEFINED> instruction: 02520100
    1d80:	0000ab1c 			@ <UNDEFINED> instruction: 0000ab1c
    1d84:	00027700 			@ <UNDEFINED> instruction: 00027700
    1d88:	6e690400 			@ <UNDEFINED> instruction: 6e690400
    1d8c:	085f0064 			@ <UNDEFINED> instruction: 085f0064
    1d90:	00000034 			@ <UNDEFINED> instruction: 00000034
    1d94:	0000070f 			@ <UNDEFINED> instruction: 0000070f
    1d98:	0000070b 			@ <UNDEFINED> instruction: 0000070b
    1d9c:	0004a61d 			@ <UNDEFINED> instruction: 0004a61d
    1da0:	50011e00 			@ <UNDEFINED> instruction: 50011e00
    1da4:	06549103 			@ <UNDEFINED> instruction: 06549103
    1da8:	501f0000 			@ <UNDEFINED> instruction: 501f0000
    1dac:	8d000004 			@ <UNDEFINED> instruction: 8d000004
    1db0:	20000001 			@ <UNDEFINED> instruction: 20000001
    1db4:	000004cc 			@ <UNDEFINED> instruction: 000004cc
    1db8:	0000017d 			@ <UNDEFINED> instruction: 0000017d
    1dbc:	01210300 			@ <UNDEFINED> instruction: 01210300
    1dc0:	cf000000 			@ <UNDEFINED> instruction: cf000000
    1dc4:	05000000 			@ <UNDEFINED> instruction: 05000000
    1dc8:	f6040100 			@ <UNDEFINED> instruction: f6040100
    1dcc:	0100000c 			@ <UNDEFINED> instruction: 0100000c
    1dd0:	000011df 	ldrdeq	r1, [r0], -pc	@ <UNPREDICTABLE>
    1dd4:	00000cac 			@ <UNDEFINED> instruction: 00000cac
    1dd8:	0b8306f6 			@ <UNDEFINED> instruction: 0b8306f6
    1ddc:	0bb80000 			@ <UNDEFINED> instruction: 0bb80000
    1de0:	0bfa0000 			@ <UNDEFINED> instruction: 0bfa0000
    1de4:	80010000 			@ <UNDEFINED> instruction: 80010000
    1de8:	000c0602 			@ <UNDEFINED> instruction: 000c0602
    1dec:	b501d100 			@ <UNDEFINED> instruction: b501d100
    1df0:	fa00000c 	blx	1e28 <__textdata_start__+0xc94>
    1df4:	0c0f0204 			@ <UNDEFINED> instruction: 0c0f0204
    1df8:	01d10000 			@ <UNDEFINED> instruction: 01d10000
    1dfc:	00000cb5 			@ <UNDEFINED> instruction: 00000cb5
    1e00:	1c0204fa 			@ <UNDEFINED> instruction: 1c0204fa
    1e04:	d100000c 			@ <UNDEFINED> instruction: d100000c
    1e08:	000cb901 			@ <UNDEFINED> instruction: 000cb901
    1e0c:	0204f600 			@ <UNDEFINED> instruction: 0204f600
    1e10:	00000c25 			@ <UNDEFINED> instruction: 00000c25
    1e14:	0cb901d1 			@ <UNDEFINED> instruction: 0cb901d1
    1e18:	04f60000 			@ <UNDEFINED> instruction: 04f60000
    1e1c:	000c3202 			@ <UNDEFINED> instruction: 000c3202
    1e20:	3101d100 			@ <UNDEFINED> instruction: 3101d100
    1e24:	1e00000f 			@ <UNDEFINED> instruction: 1e00000f
    1e28:	000c4002 			@ <UNDEFINED> instruction: 000c4002
    1e2c:	3101d100 			@ <UNDEFINED> instruction: 3101d100
    1e30:	1e00000f 			@ <UNDEFINED> instruction: 1e00000f
    1e34:	000c4d02 			@ <UNDEFINED> instruction: 000c4d02
    1e38:	5101d100 			@ <UNDEFINED> instruction: 5101d100
    1e3c:	2200000f 			@ <UNDEFINED> instruction: 2200000f
    1e40:	000c5902 			@ <UNDEFINED> instruction: 000c5902
    1e44:	5101d100 			@ <UNDEFINED> instruction: 5101d100
    1e48:	2200000f 			@ <UNDEFINED> instruction: 2200000f
    1e4c:	000c6502 			@ <UNDEFINED> instruction: 000c6502
    1e50:	7501d100 			@ <UNDEFINED> instruction: 7501d100
    1e54:	4200000f 			@ <UNDEFINED> instruction: 4200000f
    1e58:	000c7302 			@ <UNDEFINED> instruction: 000c7302
    1e5c:	7501d100 			@ <UNDEFINED> instruction: 7501d100
    1e60:	4200000f 			@ <UNDEFINED> instruction: 4200000f
    1e64:	000c7f02 			@ <UNDEFINED> instruction: 000c7f02
    1e68:	b901d100 			@ <UNDEFINED> instruction: b901d100
    1e6c:	6a00000f 			@ <UNDEFINED> instruction: 6a00000f
    1e70:	000c8d02 			@ <UNDEFINED> instruction: 000c8d02
    1e74:	b901d100 			@ <UNDEFINED> instruction: b901d100
    1e78:	6a00000f 			@ <UNDEFINED> instruction: 6a00000f
    1e7c:	000c9a02 			@ <UNDEFINED> instruction: 000c9a02
    1e80:	c901d100 			@ <UNDEFINED> instruction: c901d100
    1e84:	5a00000f 			@ <UNDEFINED> instruction: 5a00000f
    1e88:	000ca602 			@ <UNDEFINED> instruction: 000ca602
    1e8c:	c901d100 			@ <UNDEFINED> instruction: c901d100
    1e90:	5a00000f 			@ <UNDEFINED> instruction: 5a00000f
    1e94:	00380003 			@ <UNDEFINED> instruction: 00380003
    1e98:	00050000 			@ <UNDEFINED> instruction: 00050000
    1e9c:	0d1e0401 			@ <UNDEFINED> instruction: 0d1e0401
    1ea0:	4e010000 			@ <UNDEFINED> instruction: 4e010000
    1ea4:	24000013 			@ <UNDEFINED> instruction: 24000013
    1ea8:	40000010 			@ <UNDEFINED> instruction: 40000010
    1eac:	00000b83 			@ <UNDEFINED> instruction: 00000b83
    1eb0:	00000bb8 			@ <UNDEFINED> instruction: 00000bb8
    1eb4:	00000bfa 	strdeq	r0, [r0], -sl
    1eb8:	b2028001 			@ <UNDEFINED> instruction: b2028001
    1ebc:	3a00000c 			@ <UNDEFINED> instruction: 3a00000c
    1ec0:	00001025 			@ <UNDEFINED> instruction: 00001025
    1ec4:	0cbf0240 			@ <UNDEFINED> instruction: 0cbf0240
    1ec8:	253a0000 			@ <UNDEFINED> instruction: 253a0000
    1ecc:	40000010 			@ <UNDEFINED> instruction: 40000010
    1ed0:	002f0003 			@ <UNDEFINED> instruction: 002f0003
    1ed4:	00050000 			@ <UNDEFINED> instruction: 00050000
    1ed8:	0d460401 			@ <UNDEFINED> instruction: 0d460401
    1edc:	ac010000 			@ <UNDEFINED> instruction: ac010000
    1ee0:	80000013 			@ <UNDEFINED> instruction: 80000013
    1ee4:	d8000010 			@ <UNDEFINED> instruction: d8000010
    1ee8:	000ccd01 			@ <UNDEFINED> instruction: 000ccd01
    1eec:	00001d00 			@ <UNDEFINED> instruction: 00001d00
    1ef0:	000d1500 			@ <UNDEFINED> instruction: 000d1500
    1ef4:	02800100 			@ <UNDEFINED> instruction: 02800100
    1ef8:	00000d21 			@ <UNDEFINED> instruction: 00000d21
    1efc:	00108131 			@ <UNDEFINED> instruction: 00108131
    1f00:	0301d800 	movweq	sp, #6144	@ 0x1800
	...

Disassembly of section .debug_abbrev:

00000000 <.debug_abbrev>:
   0:	0b002401 			@ <UNDEFINED> instruction: 0b002401
   4:	030b3e0b 	movweq	r3, #48651	@ 0xbe0b
   8:	0200000e 			@ <UNDEFINED> instruction: 0200000e
   c:	13490005 	movtne	r0, #36869	@ 0x9005
  10:	49030000 			@ <UNDEFINED> instruction: 49030000
  14:	7e180200 			@ <UNDEFINED> instruction: 7e180200
  18:	04000018 			@ <UNDEFINED> instruction: 04000018
  1c:	0e030028 			@ <UNDEFINED> instruction: 0e030028
  20:	00000b1c 			@ <UNDEFINED> instruction: 00000b1c
  24:	25011105 			@ <UNDEFINED> instruction: 25011105
  28:	030b130e 	movweq	r1, #45838	@ 0xb30e
  2c:	110e1b0e 			@ <UNDEFINED> instruction: 110e1b0e
  30:	10061201 			@ <UNDEFINED> instruction: 10061201
  34:	06000017 			@ <UNDEFINED> instruction: 06000017
  38:	0b0b0024 			@ <UNDEFINED> instruction: 0b0b0024
  3c:	08030b3e 			@ <UNDEFINED> instruction: 08030b3e
  40:	0f070000 			@ <UNDEFINED> instruction: 0f070000
  44:	000b0b00 			@ <UNDEFINED> instruction: 000b0b00
  48:	000f0800 			@ <UNDEFINED> instruction: 000f0800
  4c:	13490b0b 	movtne	r0, #39691	@ 0x9b0b
  50:	15090000 			@ <UNDEFINED> instruction: 15090000
  54:	00192700 			@ <UNDEFINED> instruction: 00192700
  58:	01040a00 			@ <UNDEFINED> instruction: 01040a00
  5c:	0b3e0e03 			@ <UNDEFINED> instruction: 0b3e0e03
  60:	13490b0b 	movtne	r0, #39691	@ 0x9b0b
  64:	0b3b0b3a 			@ <UNDEFINED> instruction: 0b3b0b3a
  68:	13010b39 	movwne	r0, #6969	@ 0x1b39
  6c:	2e0b0000 			@ <UNDEFINED> instruction: 2e0b0000
  70:	03193f01 			@ <UNDEFINED> instruction: 03193f01
  74:	3b0b3a0e 			@ <UNDEFINED> instruction: 3b0b3a0e
  78:	270b390b 			@ <UNDEFINED> instruction: 270b390b
  7c:	3c134919 			@ <UNDEFINED> instruction: 3c134919
  80:	00130119 			@ <UNDEFINED> instruction: 00130119
  84:	012e0c00 			@ <UNDEFINED> instruction: 012e0c00
  88:	0e03193f 			@ <UNDEFINED> instruction: 0e03193f
  8c:	0b3b0b3a 			@ <UNDEFINED> instruction: 0b3b0b3a
  90:	19270b39 			@ <UNDEFINED> instruction: 19270b39
  94:	01111349 			@ <UNDEFINED> instruction: 01111349
  98:	18400612 			@ <UNDEFINED> instruction: 18400612
  9c:	0000197a 			@ <UNDEFINED> instruction: 0000197a
  a0:	0300050d 	movweq	r0, #1293	@ 0x50d
  a4:	3b0b3a08 			@ <UNDEFINED> instruction: 3b0b3a08
  a8:	490b390b 			@ <UNDEFINED> instruction: 490b390b
  ac:	b7170213 			@ <UNDEFINED> instruction: b7170213
  b0:	00001742 			@ <UNDEFINED> instruction: 00001742
  b4:	7d01480e 			@ <UNDEFINED> instruction: 7d01480e
  b8:	19018201 			@ <UNDEFINED> instruction: 19018201
  bc:	0000137f 			@ <UNDEFINED> instruction: 0000137f
  c0:	00240100 			@ <UNDEFINED> instruction: 00240100
  c4:	0b3e0b0b 			@ <UNDEFINED> instruction: 0b3e0b0b
  c8:	00000e03 			@ <UNDEFINED> instruction: 00000e03
  cc:	49000502 			@ <UNDEFINED> instruction: 49000502
  d0:	03000013 	movweq	r0, #19
  d4:	18020049 			@ <UNDEFINED> instruction: 18020049
  d8:	0000187e 			@ <UNDEFINED> instruction: 0000187e
  dc:	3f012e04 			@ <UNDEFINED> instruction: 3f012e04
  e0:	3a0e0319 			@ <UNDEFINED> instruction: 3a0e0319
  e4:	213b0121 			@ <UNDEFINED> instruction: 213b0121
  e8:	08213939 			@ <UNDEFINED> instruction: 08213939
  ec:	193c1927 			@ <UNDEFINED> instruction: 193c1927
  f0:	00001301 			@ <UNDEFINED> instruction: 00001301
  f4:	25011105 			@ <UNDEFINED> instruction: 25011105
  f8:	030b130e 	movweq	r1, #45838	@ 0xb30e
  fc:	110e1b0e 			@ <UNDEFINED> instruction: 110e1b0e
 100:	10061201 			@ <UNDEFINED> instruction: 10061201
 104:	06000017 			@ <UNDEFINED> instruction: 06000017
 108:	0b0b0024 			@ <UNDEFINED> instruction: 0b0b0024
 10c:	08030b3e 			@ <UNDEFINED> instruction: 08030b3e
 110:	0f070000 			@ <UNDEFINED> instruction: 0f070000
 114:	000b0b00 			@ <UNDEFINED> instruction: 000b0b00
 118:	000f0800 			@ <UNDEFINED> instruction: 000f0800
 11c:	13490b0b 	movtne	r0, #39691	@ 0x9b0b
 120:	15090000 			@ <UNDEFINED> instruction: 15090000
 124:	00192700 			@ <UNDEFINED> instruction: 00192700
 128:	00340a00 			@ <UNDEFINED> instruction: 00340a00
 12c:	0b3a0e03 			@ <UNDEFINED> instruction: 0b3a0e03
 130:	0b39053b 			@ <UNDEFINED> instruction: 0b39053b
 134:	193f1349 			@ <UNDEFINED> instruction: 193f1349
 138:	0000193c 			@ <UNDEFINED> instruction: 0000193c
 13c:	3f012e0b 			@ <UNDEFINED> instruction: 3f012e0b
 140:	3a0e0319 			@ <UNDEFINED> instruction: 3a0e0319
 144:	390b3b0b 			@ <UNDEFINED> instruction: 390b3b0b
 148:	8719270b 			@ <UNDEFINED> instruction: 8719270b
 14c:	193c1901 			@ <UNDEFINED> instruction: 193c1901
 150:	00001301 			@ <UNDEFINED> instruction: 00001301
 154:	3f012e0c 			@ <UNDEFINED> instruction: 3f012e0c
 158:	3a0e0319 			@ <UNDEFINED> instruction: 3a0e0319
 15c:	390b3b0b 			@ <UNDEFINED> instruction: 390b3b0b
 160:	8719270b 			@ <UNDEFINED> instruction: 8719270b
 164:	01111901 			@ <UNDEFINED> instruction: 01111901
 168:	18400612 			@ <UNDEFINED> instruction: 18400612
 16c:	0000197c 			@ <UNDEFINED> instruction: 0000197c
 170:	0300050d 	movweq	r0, #1293	@ 0x50d
 174:	3b0b3a0e 			@ <UNDEFINED> instruction: 3b0b3a0e
 178:	490b390b 			@ <UNDEFINED> instruction: 490b390b
 17c:	b7170213 			@ <UNDEFINED> instruction: b7170213
 180:	00001742 			@ <UNDEFINED> instruction: 00001742
 184:	7d01480e 			@ <UNDEFINED> instruction: 7d01480e
 188:	01137f01 			@ <UNDEFINED> instruction: 01137f01
 18c:	0f000013 			@ <UNDEFINED> instruction: 0f000013
 190:	017d0148 			@ <UNDEFINED> instruction: 017d0148
 194:	0000137f 			@ <UNDEFINED> instruction: 0000137f
 198:	00050100 			@ <UNDEFINED> instruction: 00050100
 19c:	00001349 			@ <UNDEFINED> instruction: 00001349
 1a0:	03000d02 	movweq	r0, #3330	@ 0xd02
 1a4:	04213a0e 			@ <UNDEFINED> instruction: 04213a0e
 1a8:	0b39053b 			@ <UNDEFINED> instruction: 0b39053b
 1ac:	0b381349 			@ <UNDEFINED> instruction: 0b381349
 1b0:	0d030000 			@ <UNDEFINED> instruction: 0d030000
 1b4:	3a0e0300 			@ <UNDEFINED> instruction: 3a0e0300
 1b8:	390b3b0b 			@ <UNDEFINED> instruction: 390b3b0b
 1bc:	3813490b 			@ <UNDEFINED> instruction: 3813490b
 1c0:	0400000b 			@ <UNDEFINED> instruction: 0400000b
 1c4:	18020049 			@ <UNDEFINED> instruction: 18020049
 1c8:	0000187e 			@ <UNDEFINED> instruction: 0000187e
 1cc:	0b000f05 			@ <UNDEFINED> instruction: 0b000f05
 1d0:	13490421 	movtne	r0, #37921	@ 0x9421
 1d4:	28060000 			@ <UNDEFINED> instruction: 28060000
 1d8:	1c0e0300 			@ <UNDEFINED> instruction: 1c0e0300
 1dc:	0700000b 			@ <UNDEFINED> instruction: 0700000b
 1e0:	13310005 			@ <UNDEFINED> instruction: 13310005
 1e4:	42b71702 			@ <UNDEFINED> instruction: 42b71702
 1e8:	08000017 			@ <UNDEFINED> instruction: 08000017
 1ec:	0b0b0024 			@ <UNDEFINED> instruction: 0b0b0024
 1f0:	0e030b3e 	vmoveq.16	d3[0], r0
 1f4:	0d090000 			@ <UNDEFINED> instruction: 0d090000
 1f8:	3a080300 			@ <UNDEFINED> instruction: 3a080300
 1fc:	0b3b0421 			@ <UNDEFINED> instruction: 0b3b0421
 200:	13490b39 	movtne	r0, #39737	@ 0x9b39
 204:	00000b38 			@ <UNDEFINED> instruction: 00000b38
 208:	7d00480a 			@ <UNDEFINED> instruction: 7d00480a
 20c:	00137f01 			@ <UNDEFINED> instruction: 00137f01
 210:	00160b00 			@ <UNDEFINED> instruction: 00160b00
 214:	0b3a0e03 			@ <UNDEFINED> instruction: 0b3a0e03
 218:	0b390b3b 			@ <UNDEFINED> instruction: 0b390b3b
 21c:	00001349 			@ <UNDEFINED> instruction: 00001349
 220:	4901010c 			@ <UNDEFINED> instruction: 4901010c
 224:	00130113 			@ <UNDEFINED> instruction: 00130113
 228:	00210d00 			@ <UNDEFINED> instruction: 00210d00
 22c:	0b2f1349 			@ <UNDEFINED> instruction: 0b2f1349
 230:	480e0000 			@ <UNDEFINED> instruction: 480e0000
 234:	7f017d01 			@ <UNDEFINED> instruction: 7f017d01
 238:	00130113 			@ <UNDEFINED> instruction: 00130113
 23c:	00050f00 			@ <UNDEFINED> instruction: 00050f00
 240:	213a0803 			@ <UNDEFINED> instruction: 213a0803
 244:	390b3b01 			@ <UNDEFINED> instruction: 390b3b01
 248:	0013490b 			@ <UNDEFINED> instruction: 0013490b
 24c:	01131000 			@ <UNDEFINED> instruction: 01131000
 250:	0b0b0e03 			@ <UNDEFINED> instruction: 0b0b0e03
 254:	0b3b0b3a 			@ <UNDEFINED> instruction: 0b3b0b3a
 258:	01082139 			@ <UNDEFINED> instruction: 01082139
 25c:	11000013 			@ <UNDEFINED> instruction: 11000013
 260:	0e030113 			@ <UNDEFINED> instruction: 0e030113
 264:	213a0b0b 			@ <UNDEFINED> instruction: 213a0b0b
 268:	39053b04 			@ <UNDEFINED> instruction: 39053b04
 26c:	13010821 	movwne	r0, #6177	@ 0x1821
 270:	15120000 			@ <UNDEFINED> instruction: 15120000
 274:	49192701 			@ <UNDEFINED> instruction: 49192701
 278:	00130113 			@ <UNDEFINED> instruction: 00130113
 27c:	00341300 			@ <UNDEFINED> instruction: 00341300
 280:	0b3a0e03 			@ <UNDEFINED> instruction: 0b3a0e03
 284:	0b39053b 			@ <UNDEFINED> instruction: 0b39053b
 288:	193f1349 			@ <UNDEFINED> instruction: 193f1349
 28c:	0000193c 			@ <UNDEFINED> instruction: 0000193c
 290:	3f012e14 			@ <UNDEFINED> instruction: 3f012e14
 294:	3a0e0319 			@ <UNDEFINED> instruction: 3a0e0319
 298:	390b3b0b 			@ <UNDEFINED> instruction: 390b3b0b
 29c:	4919270b 			@ <UNDEFINED> instruction: 4919270b
 2a0:	01193c13 			@ <UNDEFINED> instruction: 01193c13
 2a4:	15000013 			@ <UNDEFINED> instruction: 15000013
 2a8:	017d0048 			@ <UNDEFINED> instruction: 017d0048
 2ac:	7f190182 			@ <UNDEFINED> instruction: 7f190182
 2b0:	16000013 			@ <UNDEFINED> instruction: 16000013
 2b4:	017d0148 			@ <UNDEFINED> instruction: 017d0148
 2b8:	0000137f 			@ <UNDEFINED> instruction: 0000137f
 2bc:	31011d17 			@ <UNDEFINED> instruction: 31011d17
 2c0:	b8015213 			@ <UNDEFINED> instruction: b8015213
 2c4:	17550b42 			@ <UNDEFINED> instruction: 17550b42
 2c8:	59012158 			@ <UNDEFINED> instruction: 59012158
 2cc:	010b570b 			@ <UNDEFINED> instruction: 010b570b
 2d0:	18000013 			@ <UNDEFINED> instruction: 18000013
 2d4:	017d0148 			@ <UNDEFINED> instruction: 017d0148
 2d8:	7f190182 			@ <UNDEFINED> instruction: 7f190182
 2dc:	19000013 			@ <UNDEFINED> instruction: 19000013
 2e0:	08030005 			@ <UNDEFINED> instruction: 08030005
 2e4:	3b01213a 			@ <UNDEFINED> instruction: 3b01213a
 2e8:	490b3905 			@ <UNDEFINED> instruction: 490b3905
 2ec:	1a000013 			@ <UNDEFINED> instruction: 1a000013
 2f0:	1331011d 			@ <UNDEFINED> instruction: 1331011d
 2f4:	42b80152 			@ <UNDEFINED> instruction: 42b80152
 2f8:	5817550b 			@ <UNDEFINED> instruction: 5817550b
 2fc:	0b590121 			@ <UNDEFINED> instruction: 0b590121
 300:	00000b57 			@ <UNDEFINED> instruction: 00000b57
 304:	31012e1b 			@ <UNDEFINED> instruction: 31012e1b
 308:	12011113 			@ <UNDEFINED> instruction: 12011113
 30c:	7a184006 			@ <UNDEFINED> instruction: 7a184006
 310:	00130119 			@ <UNDEFINED> instruction: 00130119
 314:	00341c00 			@ <UNDEFINED> instruction: 00341c00
 318:	18021347 			@ <UNDEFINED> instruction: 18021347
 31c:	2e1d0000 			@ <UNDEFINED> instruction: 2e1d0000
 320:	03193f01 			@ <UNDEFINED> instruction: 03193f01
 324:	05213a0e 			@ <UNDEFINED> instruction: 05213a0e
 328:	21390b3b 			@ <UNDEFINED> instruction: 21390b3b
 32c:	3c19270d 			@ <UNDEFINED> instruction: 3c19270d
 330:	00130119 			@ <UNDEFINED> instruction: 00130119
 334:	012e1e00 			@ <UNDEFINED> instruction: 012e1e00
 338:	0e03193f 			@ <UNDEFINED> instruction: 0e03193f
 33c:	053b0b3a 			@ <UNDEFINED> instruction: 053b0b3a
 340:	19270b39 			@ <UNDEFINED> instruction: 19270b39
 344:	193c1349 			@ <UNDEFINED> instruction: 193c1349
 348:	00001301 			@ <UNDEFINED> instruction: 00001301
 34c:	31011d1f 			@ <UNDEFINED> instruction: 31011d1f
 350:	b8015213 			@ <UNDEFINED> instruction: b8015213
 354:	17550b42 			@ <UNDEFINED> instruction: 17550b42
 358:	59012158 			@ <UNDEFINED> instruction: 59012158
 35c:	03215705 			@ <UNDEFINED> instruction: 03215705
 360:	00001301 			@ <UNDEFINED> instruction: 00001301
 364:	03000520 	movweq	r0, #1312	@ 0x520
 368:	01213a08 			@ <UNDEFINED> instruction: 01213a08
 36c:	0b390b3b 			@ <UNDEFINED> instruction: 0b390b3b
 370:	17021349 			@ <UNDEFINED> instruction: 17021349
 374:	001742b7 			@ <UNDEFINED> instruction: 001742b7
 378:	00342100 			@ <UNDEFINED> instruction: 00342100
 37c:	213a0803 			@ <UNDEFINED> instruction: 213a0803
 380:	390b3b01 			@ <UNDEFINED> instruction: 390b3b01
 384:	0213490b 			@ <UNDEFINED> instruction: 0213490b
 388:	1742b717 	smlaldne	fp, r2, r7, r7
 38c:	1d220000 			@ <UNDEFINED> instruction: 1d220000
 390:	52133101 			@ <UNDEFINED> instruction: 52133101
 394:	0b42b801 			@ <UNDEFINED> instruction: 0b42b801
 398:	06120111 			@ <UNDEFINED> instruction: 06120111
 39c:	59012158 			@ <UNDEFINED> instruction: 59012158
 3a0:	010b570b 			@ <UNDEFINED> instruction: 010b570b
 3a4:	23000013 	movwcs	r0, #19
 3a8:	0e03012e 			@ <UNDEFINED> instruction: 0e03012e
 3ac:	3b01213a 			@ <UNDEFINED> instruction: 3b01213a
 3b0:	0121390b 			@ <UNDEFINED> instruction: 0121390b
 3b4:	21201927 			@ <UNDEFINED> instruction: 21201927
 3b8:	00130103 			@ <UNDEFINED> instruction: 00130103
 3bc:	00162400 			@ <UNDEFINED> instruction: 00162400
 3c0:	0b3a0e03 			@ <UNDEFINED> instruction: 0b3a0e03
 3c4:	0b39053b 			@ <UNDEFINED> instruction: 0b39053b
 3c8:	00001349 			@ <UNDEFINED> instruction: 00001349
 3cc:	03000d25 	movweq	r0, #3365	@ 0xd25
 3d0:	03213a0e 			@ <UNDEFINED> instruction: 03213a0e
 3d4:	0b390b3b 			@ <UNDEFINED> instruction: 0b390b3b
 3d8:	00001349 			@ <UNDEFINED> instruction: 00001349
 3dc:	03001326 	movweq	r1, #806	@ 0x326
 3e0:	00193c0e 			@ <UNDEFINED> instruction: 00193c0e
 3e4:	01152700 			@ <UNDEFINED> instruction: 01152700
 3e8:	13011927 	movwne	r1, #6439	@ 0x1927
 3ec:	04280000 			@ <UNDEFINED> instruction: 04280000
 3f0:	07213e01 			@ <UNDEFINED> instruction: 07213e01
 3f4:	4901210b 			@ <UNDEFINED> instruction: 4901210b
 3f8:	07213a13 			@ <UNDEFINED> instruction: 07213a13
 3fc:	2139053b 			@ <UNDEFINED> instruction: 2139053b
 400:	00130117 			@ <UNDEFINED> instruction: 00130117
 404:	012e2900 			@ <UNDEFINED> instruction: 012e2900
 408:	0e03193f 			@ <UNDEFINED> instruction: 0e03193f
 40c:	3b01213a 			@ <UNDEFINED> instruction: 3b01213a
 410:	01213905 			@ <UNDEFINED> instruction: 01213905
 414:	01111927 			@ <UNDEFINED> instruction: 01111927
 418:	18400612 			@ <UNDEFINED> instruction: 18400612
 41c:	1301197a 	movwne	r1, #6522	@ 0x197a
 420:	2e2a0000 			@ <UNDEFINED> instruction: 2e2a0000
 424:	3a0e0301 			@ <UNDEFINED> instruction: 3a0e0301
 428:	053b0121 			@ <UNDEFINED> instruction: 053b0121
 42c:	27012139 	smladxcs	r1, r9, r1, r2
 430:	20134919 			@ <UNDEFINED> instruction: 20134919
 434:	13010121 	movwne	r0, #4385	@ 0x1121
 438:	2e2b0000 			@ <UNDEFINED> instruction: 2e2b0000
 43c:	03193f00 			@ <UNDEFINED> instruction: 03193f00
 440:	01213a0e 			@ <UNDEFINED> instruction: 01213a0e
 444:	2139053b 			@ <UNDEFINED> instruction: 2139053b
 448:	20192701 			@ <UNDEFINED> instruction: 20192701
 44c:	00000121 			@ <UNDEFINED> instruction: 00000121
 450:	03012e2c 	movweq	r2, #7724	@ 0x1e2c
 454:	01213a0e 			@ <UNDEFINED> instruction: 01213a0e
 458:	21390b3b 			@ <UNDEFINED> instruction: 21390b3b
 45c:	11192701 			@ <UNDEFINED> instruction: 11192701
 460:	40061201 			@ <UNDEFINED> instruction: 40061201
 464:	01197a18 			@ <UNDEFINED> instruction: 01197a18
 468:	2d000013 			@ <UNDEFINED> instruction: 2d000013
 46c:	0e030005 			@ <UNDEFINED> instruction: 0e030005
 470:	3b01213a 			@ <UNDEFINED> instruction: 3b01213a
 474:	1121390b 			@ <UNDEFINED> instruction: 1121390b
 478:	00001349 			@ <UNDEFINED> instruction: 00001349
 47c:	31011d2e 			@ <UNDEFINED> instruction: 31011d2e
 480:	b8015213 			@ <UNDEFINED> instruction: b8015213
 484:	17550b42 			@ <UNDEFINED> instruction: 17550b42
 488:	59012158 			@ <UNDEFINED> instruction: 59012158
 48c:	01215705 			@ <UNDEFINED> instruction: 01215705
 490:	052f0000 			@ <UNDEFINED> instruction: 052f0000
 494:	02133100 			@ <UNDEFINED> instruction: 02133100
 498:	30000018 			@ <UNDEFINED> instruction: 30000018
 49c:	13310005 			@ <UNDEFINED> instruction: 13310005
 4a0:	00000b1c 			@ <UNDEFINED> instruction: 00000b1c
 4a4:	25011131 			@ <UNDEFINED> instruction: 25011131
 4a8:	030b130e 	movweq	r1, #45838	@ 0xb30e
 4ac:	110e1b0e 			@ <UNDEFINED> instruction: 110e1b0e
 4b0:	10061201 			@ <UNDEFINED> instruction: 10061201
 4b4:	32000017 			@ <UNDEFINED> instruction: 32000017
 4b8:	0b0b0024 			@ <UNDEFINED> instruction: 0b0b0024
 4bc:	08030b3e 			@ <UNDEFINED> instruction: 08030b3e
 4c0:	17330000 			@ <UNDEFINED> instruction: 17330000
 4c4:	3a0b0b01 			@ <UNDEFINED> instruction: 3a0b0b01
 4c8:	390b3b0b 			@ <UNDEFINED> instruction: 390b3b0b
 4cc:	0013010b 			@ <UNDEFINED> instruction: 0013010b
 4d0:	01133400 			@ <UNDEFINED> instruction: 01133400
 4d4:	0b3a0b0b 			@ <UNDEFINED> instruction: 0b3a0b0b
 4d8:	0b390b3b 			@ <UNDEFINED> instruction: 0b390b3b
 4dc:	00001301 			@ <UNDEFINED> instruction: 00001301
 4e0:	0b000f35 			@ <UNDEFINED> instruction: 0b000f35
 4e4:	3600000b 			@ <UNDEFINED> instruction: 3600000b
 4e8:	19270015 			@ <UNDEFINED> instruction: 19270015
 4ec:	0d370000 			@ <UNDEFINED> instruction: 0d370000
 4f0:	3a080300 			@ <UNDEFINED> instruction: 3a080300
 4f4:	39053b0b 			@ <UNDEFINED> instruction: 39053b0b
 4f8:	3813490b 			@ <UNDEFINED> instruction: 3813490b
 4fc:	3800000b 			@ <UNDEFINED> instruction: 3800000b
 500:	13490026 	movtne	r0, #36902	@ 0x9026
 504:	28390000 			@ <UNDEFINED> instruction: 28390000
 508:	1c080300 			@ <UNDEFINED> instruction: 1c080300
 50c:	3a00000b 			@ <UNDEFINED> instruction: 3a00000b
 510:	0e030034 			@ <UNDEFINED> instruction: 0e030034
 514:	053b0b3a 			@ <UNDEFINED> instruction: 053b0b3a
 518:	13490b39 	movtne	r0, #39737	@ 0x9b39
 51c:	2e3b0000 			@ <UNDEFINED> instruction: 2e3b0000
 520:	03193f01 			@ <UNDEFINED> instruction: 03193f01
 524:	3b0b3a0e 			@ <UNDEFINED> instruction: 3b0b3a0e
 528:	270b390b 			@ <UNDEFINED> instruction: 270b390b
 52c:	12011119 			@ <UNDEFINED> instruction: 12011119
 530:	7a184006 			@ <UNDEFINED> instruction: 7a184006
 534:	00130119 			@ <UNDEFINED> instruction: 00130119
 538:	012e3c00 			@ <UNDEFINED> instruction: 012e3c00
 53c:	0e03193f 			@ <UNDEFINED> instruction: 0e03193f
 540:	0b3b0b3a 			@ <UNDEFINED> instruction: 0b3b0b3a
 544:	19270b39 			@ <UNDEFINED> instruction: 19270b39
 548:	01111349 			@ <UNDEFINED> instruction: 01111349
 54c:	18400612 			@ <UNDEFINED> instruction: 18400612
 550:	1301197a 	movwne	r1, #6522	@ 0x197a
 554:	0a3d0000 			@ <UNDEFINED> instruction: 0a3d0000
 558:	3a0e0300 			@ <UNDEFINED> instruction: 3a0e0300
 55c:	390b3b0b 			@ <UNDEFINED> instruction: 390b3b0b
 560:	0001110b 			@ <UNDEFINED> instruction: 0001110b
 564:	00343e00 			@ <UNDEFINED> instruction: 00343e00
 568:	17021331 	smladxne	r2, r1, r3, r1
 56c:	001742b7 			@ <UNDEFINED> instruction: 001742b7
 570:	002e3f00 			@ <UNDEFINED> instruction: 002e3f00
 574:	0b3a0e03 			@ <UNDEFINED> instruction: 0b3a0e03
 578:	0b390b3b 			@ <UNDEFINED> instruction: 0b390b3b
 57c:	0b201927 			@ <UNDEFINED> instruction: 0b201927
 580:	2e400000 			@ <UNDEFINED> instruction: 2e400000
 584:	3a0e0301 			@ <UNDEFINED> instruction: 3a0e0301
 588:	390b3b0b 			@ <UNDEFINED> instruction: 390b3b0b
 58c:	4919270b 			@ <UNDEFINED> instruction: 4919270b
 590:	010b2013 			@ <UNDEFINED> instruction: 010b2013
 594:	41000013 			@ <UNDEFINED> instruction: 41000013
 598:	08030034 			@ <UNDEFINED> instruction: 08030034
 59c:	0b3b0b3a 			@ <UNDEFINED> instruction: 0b3b0b3a
 5a0:	13490b39 	movtne	r0, #39737	@ 0x9b39
 5a4:	2e420000 			@ <UNDEFINED> instruction: 2e420000
 5a8:	3a080301 			@ <UNDEFINED> instruction: 3a080301
 5ac:	390b3b0b 			@ <UNDEFINED> instruction: 390b3b0b
 5b0:	2019270b 			@ <UNDEFINED> instruction: 2019270b
 5b4:	0013010b 			@ <UNDEFINED> instruction: 0013010b
 5b8:	011d4300 			@ <UNDEFINED> instruction: 011d4300
 5bc:	01521331 			@ <UNDEFINED> instruction: 01521331
 5c0:	110b42b8 			@ <UNDEFINED> instruction: 110b42b8
 5c4:	58061201 			@ <UNDEFINED> instruction: 58061201
 5c8:	570b590b 			@ <UNDEFINED> instruction: 570b590b
 5cc:	4400000b 			@ <UNDEFINED> instruction: 4400000b
 5d0:	1331012e 			@ <UNDEFINED> instruction: 1331012e
 5d4:	06120111 			@ <UNDEFINED> instruction: 06120111
 5d8:	197a1840 			@ <UNDEFINED> instruction: 197a1840
 5dc:	01000000 			@ <UNDEFINED> instruction: 01000000
 5e0:	0b0b0024 			@ <UNDEFINED> instruction: 0b0b0024
 5e4:	0e030b3e 	vmoveq.16	d3[0], r0
 5e8:	34020000 			@ <UNDEFINED> instruction: 34020000
 5ec:	3a080300 			@ <UNDEFINED> instruction: 3a080300
 5f0:	0b3b0121 			@ <UNDEFINED> instruction: 0b3b0121
 5f4:	13490b39 	movtne	r0, #39737	@ 0x9b39
 5f8:	42b71702 			@ <UNDEFINED> instruction: 42b71702
 5fc:	03000017 	movweq	r0, #23
 600:	210b000f 			@ <UNDEFINED> instruction: 210b000f
 604:	00134904 			@ <UNDEFINED> instruction: 00134904
 608:	00050400 			@ <UNDEFINED> instruction: 00050400
 60c:	213a0803 			@ <UNDEFINED> instruction: 213a0803
 610:	390b3b01 			@ <UNDEFINED> instruction: 390b3b01
 614:	0213490b 			@ <UNDEFINED> instruction: 0213490b
 618:	1742b717 	smlaldne	fp, r2, r7, r7
 61c:	34050000 			@ <UNDEFINED> instruction: 34050000
 620:	3a0e0300 			@ <UNDEFINED> instruction: 3a0e0300
 624:	0b3b0121 			@ <UNDEFINED> instruction: 0b3b0121
 628:	13490b39 	movtne	r0, #39737	@ 0x9b39
 62c:	42b71702 			@ <UNDEFINED> instruction: 42b71702
 630:	06000017 			@ <UNDEFINED> instruction: 06000017
 634:	0e250111 			@ <UNDEFINED> instruction: 0e250111
 638:	0e030b13 	vmoveq.32	d3[0], r0
 63c:	01110e1b 			@ <UNDEFINED> instruction: 01110e1b
 640:	17100612 			@ <UNDEFINED> instruction: 17100612
 644:	24070000 			@ <UNDEFINED> instruction: 24070000
 648:	3e0b0b00 	vmlacc.f64	d0, d11, d0
 64c:	0008030b 			@ <UNDEFINED> instruction: 0008030b
 650:	00160800 			@ <UNDEFINED> instruction: 00160800
 654:	0b3a0e03 			@ <UNDEFINED> instruction: 0b3a0e03
 658:	0b390b3b 			@ <UNDEFINED> instruction: 0b390b3b
 65c:	00001349 			@ <UNDEFINED> instruction: 00001349
 660:	0b000f09 			@ <UNDEFINED> instruction: 0b000f09
 664:	0a00000b 			@ <UNDEFINED> instruction: 0a00000b
 668:	193f012e 			@ <UNDEFINED> instruction: 193f012e
 66c:	0b3a0e03 			@ <UNDEFINED> instruction: 0b3a0e03
 670:	0b390b3b 			@ <UNDEFINED> instruction: 0b390b3b
 674:	13491927 	movtne	r1, #39207	@ 0x9927
 678:	06120111 			@ <UNDEFINED> instruction: 06120111
 67c:	197a1840 			@ <UNDEFINED> instruction: 197a1840
 680:	00001301 			@ <UNDEFINED> instruction: 00001301
 684:	0300050b 	movweq	r0, #1291	@ 0x50b
 688:	3b0b3a08 			@ <UNDEFINED> instruction: 3b0b3a08
 68c:	490b390b 			@ <UNDEFINED> instruction: 490b390b
 690:	00180213 			@ <UNDEFINED> instruction: 00180213
 694:	24010000 			@ <UNDEFINED> instruction: 24010000
 698:	3e0b0b00 	vmlacc.f64	d0, d11, d0
 69c:	000e030b 			@ <UNDEFINED> instruction: 000e030b
 6a0:	00340200 			@ <UNDEFINED> instruction: 00340200
 6a4:	213a0e03 			@ <UNDEFINED> instruction: 213a0e03
 6a8:	390b3b01 			@ <UNDEFINED> instruction: 390b3b01
 6ac:	13490f21 	movtne	r0, #40737	@ 0x9f21
 6b0:	193c193f 			@ <UNDEFINED> instruction: 193c193f
 6b4:	11030000 			@ <UNDEFINED> instruction: 11030000
 6b8:	130e2501 	movwne	r2, #58625	@ 0xe501
 6bc:	1b0e030b 			@ <UNDEFINED> instruction: 1b0e030b
 6c0:	1201110e 			@ <UNDEFINED> instruction: 1201110e
 6c4:	00171006 			@ <UNDEFINED> instruction: 00171006
 6c8:	00240400 			@ <UNDEFINED> instruction: 00240400
 6cc:	0b3e0b0b 			@ <UNDEFINED> instruction: 0b3e0b0b
 6d0:	00000803 			@ <UNDEFINED> instruction: 00000803
 6d4:	03001605 	movweq	r1, #1541	@ 0x605
 6d8:	3b0b3a0e 			@ <UNDEFINED> instruction: 3b0b3a0e
 6dc:	490b390b 			@ <UNDEFINED> instruction: 490b390b
 6e0:	06000013 			@ <UNDEFINED> instruction: 06000013
 6e4:	13490101 	movtne	r0, #37121	@ 0x9101
 6e8:	00001301 			@ <UNDEFINED> instruction: 00001301
 6ec:	00002107 			@ <UNDEFINED> instruction: 00002107
 6f0:	000f0800 			@ <UNDEFINED> instruction: 000f0800
 6f4:	13490b0b 	movtne	r0, #39691	@ 0x9b0b
 6f8:	15090000 			@ <UNDEFINED> instruction: 15090000
 6fc:	00192700 			@ <UNDEFINED> instruction: 00192700
 700:	002e0a00 			@ <UNDEFINED> instruction: 002e0a00
 704:	0e03193f 			@ <UNDEFINED> instruction: 0e03193f
 708:	0b3b0b3a 			@ <UNDEFINED> instruction: 0b3b0b3a
 70c:	19270b39 			@ <UNDEFINED> instruction: 19270b39
 710:	0000193c 			@ <UNDEFINED> instruction: 0000193c
 714:	3f012e0b 			@ <UNDEFINED> instruction: 3f012e0b
 718:	3a0e0319 			@ <UNDEFINED> instruction: 3a0e0319
 71c:	390b3b0b 			@ <UNDEFINED> instruction: 390b3b0b
 720:	1119270b 			@ <UNDEFINED> instruction: 1119270b
 724:	40061201 			@ <UNDEFINED> instruction: 40061201
 728:	00197c18 			@ <UNDEFINED> instruction: 00197c18
 72c:	00340c00 			@ <UNDEFINED> instruction: 00340c00
 730:	0b3a0e03 			@ <UNDEFINED> instruction: 0b3a0e03
 734:	0b390b3b 			@ <UNDEFINED> instruction: 0b390b3b
 738:	17021349 			@ <UNDEFINED> instruction: 17021349
 73c:	001742b7 			@ <UNDEFINED> instruction: 001742b7
 740:	00340d00 			@ <UNDEFINED> instruction: 00340d00
 744:	0b3a0803 			@ <UNDEFINED> instruction: 0b3a0803
 748:	0b390b3b 			@ <UNDEFINED> instruction: 0b390b3b
 74c:	17021349 			@ <UNDEFINED> instruction: 17021349
 750:	001742b7 			@ <UNDEFINED> instruction: 001742b7
 754:	00480e00 			@ <UNDEFINED> instruction: 00480e00
 758:	137f017d 			@ <UNDEFINED> instruction: 137f017d
 75c:	01000000 			@ <UNDEFINED> instruction: 01000000
 760:	0b0b0024 			@ <UNDEFINED> instruction: 0b0b0024
 764:	0e030b3e 	vmoveq.16	d3[0], r0
 768:	34020000 			@ <UNDEFINED> instruction: 34020000
 76c:	3a0e0300 			@ <UNDEFINED> instruction: 3a0e0300
 770:	0b3b0121 			@ <UNDEFINED> instruction: 0b3b0121
 774:	490f2139 			@ <UNDEFINED> instruction: 490f2139
 778:	3c193f13 			@ <UNDEFINED> instruction: 3c193f13
 77c:	03000019 	movweq	r0, #25
 780:	0e250111 			@ <UNDEFINED> instruction: 0e250111
 784:	0e030b13 	vmoveq.32	d3[0], r0
 788:	01110e1b 			@ <UNDEFINED> instruction: 01110e1b
 78c:	17100612 			@ <UNDEFINED> instruction: 17100612
 790:	24040000 			@ <UNDEFINED> instruction: 24040000
 794:	3e0b0b00 	vmlacc.f64	d0, d11, d0
 798:	0008030b 			@ <UNDEFINED> instruction: 0008030b
 79c:	00160500 			@ <UNDEFINED> instruction: 00160500
 7a0:	0b3a0e03 			@ <UNDEFINED> instruction: 0b3a0e03
 7a4:	0b390b3b 			@ <UNDEFINED> instruction: 0b390b3b
 7a8:	00001349 			@ <UNDEFINED> instruction: 00001349
 7ac:	49010106 			@ <UNDEFINED> instruction: 49010106
 7b0:	00130113 			@ <UNDEFINED> instruction: 00130113
 7b4:	00210700 			@ <UNDEFINED> instruction: 00210700
 7b8:	0f080000 			@ <UNDEFINED> instruction: 0f080000
 7bc:	490b0b00 			@ <UNDEFINED> instruction: 490b0b00
 7c0:	09000013 			@ <UNDEFINED> instruction: 09000013
 7c4:	19270015 			@ <UNDEFINED> instruction: 19270015
 7c8:	2e0a0000 			@ <UNDEFINED> instruction: 2e0a0000
 7cc:	03193f00 			@ <UNDEFINED> instruction: 03193f00
 7d0:	3b0b3a0e 			@ <UNDEFINED> instruction: 3b0b3a0e
 7d4:	270b390b 			@ <UNDEFINED> instruction: 270b390b
 7d8:	00193c19 			@ <UNDEFINED> instruction: 00193c19
 7dc:	012e0b00 			@ <UNDEFINED> instruction: 012e0b00
 7e0:	0e03193f 			@ <UNDEFINED> instruction: 0e03193f
 7e4:	0b3b0b3a 			@ <UNDEFINED> instruction: 0b3b0b3a
 7e8:	19270b39 			@ <UNDEFINED> instruction: 19270b39
 7ec:	06120111 			@ <UNDEFINED> instruction: 06120111
 7f0:	197c1840 			@ <UNDEFINED> instruction: 197c1840
 7f4:	340c0000 			@ <UNDEFINED> instruction: 340c0000
 7f8:	3a0e0300 			@ <UNDEFINED> instruction: 3a0e0300
 7fc:	390b3b0b 			@ <UNDEFINED> instruction: 390b3b0b
 800:	0213490b 			@ <UNDEFINED> instruction: 0213490b
 804:	1742b717 	smlaldne	fp, r2, r7, r7
 808:	340d0000 			@ <UNDEFINED> instruction: 340d0000
 80c:	3a080300 			@ <UNDEFINED> instruction: 3a080300
 810:	390b3b0b 			@ <UNDEFINED> instruction: 390b3b0b
 814:	0213490b 			@ <UNDEFINED> instruction: 0213490b
 818:	1742b717 	smlaldne	fp, r2, r7, r7
 81c:	480e0000 			@ <UNDEFINED> instruction: 480e0000
 820:	82017d00 			@ <UNDEFINED> instruction: 82017d00
 824:	137f1901 			@ <UNDEFINED> instruction: 137f1901
 828:	01000000 			@ <UNDEFINED> instruction: 01000000
 82c:	0e030005 			@ <UNDEFINED> instruction: 0e030005
 830:	3b01213a 			@ <UNDEFINED> instruction: 3b01213a
 834:	490b390b 			@ <UNDEFINED> instruction: 490b390b
 838:	02000013 			@ <UNDEFINED> instruction: 02000013
 83c:	0e030034 			@ <UNDEFINED> instruction: 0e030034
 840:	3b01213a 			@ <UNDEFINED> instruction: 3b01213a
 844:	0f21390b 			@ <UNDEFINED> instruction: 0f21390b
 848:	193f1349 			@ <UNDEFINED> instruction: 193f1349
 84c:	00001802 			@ <UNDEFINED> instruction: 00001802
 850:	3f012e03 			@ <UNDEFINED> instruction: 3f012e03
 854:	3a0e0319 			@ <UNDEFINED> instruction: 3a0e0319
 858:	0b3b0221 			@ <UNDEFINED> instruction: 0b3b0221
 85c:	270d2139 	smladxcs	sp, r9, r1, r2
 860:	00130119 			@ <UNDEFINED> instruction: 00130119
 864:	00240400 			@ <UNDEFINED> instruction: 00240400
 868:	0b3e0b0b 			@ <UNDEFINED> instruction: 0b3e0b0b
 86c:	00000e03 			@ <UNDEFINED> instruction: 00000e03
 870:	0b000f05 			@ <UNDEFINED> instruction: 0b000f05
 874:	13490421 	movtne	r0, #37921	@ 0x9421
 878:	11060000 			@ <UNDEFINED> instruction: 11060000
 87c:	130e2501 	movwne	r2, #58625	@ 0xe501
 880:	1b0e030b 			@ <UNDEFINED> instruction: 1b0e030b
 884:	1201110e 			@ <UNDEFINED> instruction: 1201110e
 888:	00171006 			@ <UNDEFINED> instruction: 00171006
 88c:	00160700 			@ <UNDEFINED> instruction: 00160700
 890:	0b3a0e03 			@ <UNDEFINED> instruction: 0b3a0e03
 894:	0b390b3b 			@ <UNDEFINED> instruction: 0b390b3b
 898:	00001349 			@ <UNDEFINED> instruction: 00001349
 89c:	03011308 	movweq	r1, #4872	@ 0x1308
 8a0:	3a0b0b0e 			@ <UNDEFINED> instruction: 3a0b0b0e
 8a4:	390b3b0b 			@ <UNDEFINED> instruction: 390b3b0b
 8a8:	0013010b 			@ <UNDEFINED> instruction: 0013010b
 8ac:	000d0900 			@ <UNDEFINED> instruction: 000d0900
 8b0:	0b3a0e03 			@ <UNDEFINED> instruction: 0b3a0e03
 8b4:	0b390b3b 			@ <UNDEFINED> instruction: 0b390b3b
 8b8:	0b381349 			@ <UNDEFINED> instruction: 0b381349
 8bc:	2e0a0000 			@ <UNDEFINED> instruction: 2e0a0000
 8c0:	03193f01 			@ <UNDEFINED> instruction: 03193f01
 8c4:	3b0b3a0e 			@ <UNDEFINED> instruction: 3b0b3a0e
 8c8:	270b390b 			@ <UNDEFINED> instruction: 270b390b
 8cc:	01134919 			@ <UNDEFINED> instruction: 01134919
 8d0:	0b000013 			@ <UNDEFINED> instruction: 0b000013
 8d4:	0b0b0024 			@ <UNDEFINED> instruction: 0b0b0024
 8d8:	08030b3e 			@ <UNDEFINED> instruction: 08030b3e
 8dc:	2e0c0000 			@ <UNDEFINED> instruction: 2e0c0000
 8e0:	03193f01 			@ <UNDEFINED> instruction: 03193f01
 8e4:	3b0b3a0e 			@ <UNDEFINED> instruction: 3b0b3a0e
 8e8:	270b390b 			@ <UNDEFINED> instruction: 270b390b
 8ec:	20134919 			@ <UNDEFINED> instruction: 20134919
 8f0:	0013010b 			@ <UNDEFINED> instruction: 0013010b
 8f4:	012e0d00 			@ <UNDEFINED> instruction: 012e0d00
 8f8:	0e03193f 			@ <UNDEFINED> instruction: 0e03193f
 8fc:	0b3b0b3a 			@ <UNDEFINED> instruction: 0b3b0b3a
 900:	19270b39 			@ <UNDEFINED> instruction: 19270b39
 904:	13010b20 	movwne	r0, #6944	@ 0x1b20
 908:	2e0e0000 			@ <UNDEFINED> instruction: 2e0e0000
 90c:	11133101 			@ <UNDEFINED> instruction: 11133101
 910:	40061201 			@ <UNDEFINED> instruction: 40061201
 914:	01197a18 			@ <UNDEFINED> instruction: 01197a18
 918:	0f000013 			@ <UNDEFINED> instruction: 0f000013
 91c:	13310005 			@ <UNDEFINED> instruction: 13310005
 920:	00001802 			@ <UNDEFINED> instruction: 00001802
 924:	31012e10 			@ <UNDEFINED> instruction: 31012e10
 928:	12011113 			@ <UNDEFINED> instruction: 12011113
 92c:	7a184006 			@ <UNDEFINED> instruction: 7a184006
 930:	11000019 			@ <UNDEFINED> instruction: 11000019
 934:	13310005 			@ <UNDEFINED> instruction: 13310005
 938:	42b71702 			@ <UNDEFINED> instruction: 42b71702
 93c:	00000017 			@ <UNDEFINED> instruction: 00000017
 940:	0b002401 			@ <UNDEFINED> instruction: 0b002401
 944:	030b3e0b 	movweq	r3, #48651	@ 0xbe0b
 948:	0200000e 			@ <UNDEFINED> instruction: 0200000e
 94c:	0e03000d 			@ <UNDEFINED> instruction: 0e03000d
 950:	3b03213a 			@ <UNDEFINED> instruction: 3b03213a
 954:	490b390b 			@ <UNDEFINED> instruction: 490b390b
 958:	000b3813 			@ <UNDEFINED> instruction: 000b3813
 95c:	000f0300 			@ <UNDEFINED> instruction: 000f0300
 960:	4904210b 			@ <UNDEFINED> instruction: 4904210b
 964:	04000013 			@ <UNDEFINED> instruction: 04000013
 968:	13490005 	movtne	r0, #36869	@ 0x9005
 96c:	16050000 			@ <UNDEFINED> instruction: 16050000
 970:	3a0e0300 			@ <UNDEFINED> instruction: 3a0e0300
 974:	390b3b0b 			@ <UNDEFINED> instruction: 390b3b0b
 978:	0013490b 			@ <UNDEFINED> instruction: 0013490b
 97c:	00280600 			@ <UNDEFINED> instruction: 00280600
 980:	0b1c0e03 			@ <UNDEFINED> instruction: 0b1c0e03
 984:	2e070000 			@ <UNDEFINED> instruction: 2e070000
 988:	03193f01 			@ <UNDEFINED> instruction: 03193f01
 98c:	3b0b3a0e 			@ <UNDEFINED> instruction: 3b0b3a0e
 990:	270b390b 			@ <UNDEFINED> instruction: 270b390b
 994:	01193c19 			@ <UNDEFINED> instruction: 01193c19
 998:	08000013 			@ <UNDEFINED> instruction: 08000013
 99c:	08030005 			@ <UNDEFINED> instruction: 08030005
 9a0:	3b01213a 			@ <UNDEFINED> instruction: 3b01213a
 9a4:	490b390b 			@ <UNDEFINED> instruction: 490b390b
 9a8:	b7170213 			@ <UNDEFINED> instruction: b7170213
 9ac:	00001742 			@ <UNDEFINED> instruction: 00001742
 9b0:	7d004809 			@ <UNDEFINED> instruction: 7d004809
 9b4:	00137f01 			@ <UNDEFINED> instruction: 00137f01
 9b8:	000d0a00 			@ <UNDEFINED> instruction: 000d0a00
 9bc:	213a0e03 			@ <UNDEFINED> instruction: 213a0e03
 9c0:	390b3b03 			@ <UNDEFINED> instruction: 390b3b03
 9c4:	13490a21 	movtne	r0, #39457	@ 0x9a21
 9c8:	00000538 			@ <UNDEFINED> instruction: 00000538
 9cc:	4901010b 			@ <UNDEFINED> instruction: 4901010b
 9d0:	00130113 			@ <UNDEFINED> instruction: 00130113
 9d4:	00210c00 			@ <UNDEFINED> instruction: 00210c00
 9d8:	212f1349 			@ <UNDEFINED> instruction: 212f1349
 9dc:	0d00001f 			@ <UNDEFINED> instruction: 0d00001f
 9e0:	0e030034 			@ <UNDEFINED> instruction: 0e030034
 9e4:	3b03213a 			@ <UNDEFINED> instruction: 3b03213a
 9e8:	490b3905 			@ <UNDEFINED> instruction: 490b3905
 9ec:	3c193f13 			@ <UNDEFINED> instruction: 3c193f13
 9f0:	0e000019 			@ <UNDEFINED> instruction: 0e000019
 9f4:	0e030034 			@ <UNDEFINED> instruction: 0e030034
 9f8:	3b01213a 			@ <UNDEFINED> instruction: 3b01213a
 9fc:	490b390b 			@ <UNDEFINED> instruction: 490b390b
 a00:	3c193f13 			@ <UNDEFINED> instruction: 3c193f13
 a04:	0f000019 			@ <UNDEFINED> instruction: 0f000019
 a08:	0e250111 			@ <UNDEFINED> instruction: 0e250111
 a0c:	0e030b13 	vmoveq.32	d3[0], r0
 a10:	01110e1b 			@ <UNDEFINED> instruction: 01110e1b
 a14:	17100612 			@ <UNDEFINED> instruction: 17100612
 a18:	24100000 			@ <UNDEFINED> instruction: 24100000
 a1c:	3e0b0b00 	vmlacc.f64	d0, d11, d0
 a20:	0008030b 			@ <UNDEFINED> instruction: 0008030b
 a24:	000f1100 			@ <UNDEFINED> instruction: 000f1100
 a28:	00000b0b 			@ <UNDEFINED> instruction: 00000b0b
 a2c:	03001312 	movweq	r1, #786	@ 0x312
 a30:	00193c0e 			@ <UNDEFINED> instruction: 00193c0e
 a34:	01131300 			@ <UNDEFINED> instruction: 01131300
 a38:	050b0e03 			@ <UNDEFINED> instruction: 050b0e03
 a3c:	0b3b0b3a 			@ <UNDEFINED> instruction: 0b3b0b3a
 a40:	13010b39 	movwne	r0, #6969	@ 0x1b39
 a44:	13140000 			@ <UNDEFINED> instruction: 13140000
 a48:	0b0e0301 			@ <UNDEFINED> instruction: 0b0e0301
 a4c:	3b0b3a0b 			@ <UNDEFINED> instruction: 3b0b3a0b
 a50:	010b390b 			@ <UNDEFINED> instruction: 010b390b
 a54:	15000013 			@ <UNDEFINED> instruction: 15000013
 a58:	19270015 			@ <UNDEFINED> instruction: 19270015
 a5c:	26160000 			@ <UNDEFINED> instruction: 26160000
 a60:	00134900 			@ <UNDEFINED> instruction: 00134900
 a64:	00261700 			@ <UNDEFINED> instruction: 00261700
 a68:	04180000 			@ <UNDEFINED> instruction: 04180000
 a6c:	3e0e0301 			@ <UNDEFINED> instruction: 3e0e0301
 a70:	490b0b0b 			@ <UNDEFINED> instruction: 490b0b0b
 a74:	3b0b3a13 			@ <UNDEFINED> instruction: 3b0b3a13
 a78:	010b390b 			@ <UNDEFINED> instruction: 010b390b
 a7c:	19000013 			@ <UNDEFINED> instruction: 19000013
 a80:	0e030034 			@ <UNDEFINED> instruction: 0e030034
 a84:	0b3b0b3a 			@ <UNDEFINED> instruction: 0b3b0b3a
 a88:	13490b39 	movtne	r0, #39737	@ 0x9b39
 a8c:	1802193f 			@ <UNDEFINED> instruction: 1802193f
 a90:	341a0000 			@ <UNDEFINED> instruction: 341a0000
 a94:	02134700 			@ <UNDEFINED> instruction: 02134700
 a98:	1b000018 			@ <UNDEFINED> instruction: 1b000018
 a9c:	193f012e 			@ <UNDEFINED> instruction: 193f012e
 aa0:	0b3a0e03 			@ <UNDEFINED> instruction: 0b3a0e03
 aa4:	0b390b3b 			@ <UNDEFINED> instruction: 0b390b3b
 aa8:	13491927 	movtne	r1, #39207	@ 0x9927
 aac:	1301193c 	movwne	r1, #6460	@ 0x193c
 ab0:	2e1c0000 			@ <UNDEFINED> instruction: 2e1c0000
 ab4:	03193f01 			@ <UNDEFINED> instruction: 03193f01
 ab8:	3b0b3a0e 			@ <UNDEFINED> instruction: 3b0b3a0e
 abc:	270b390b 			@ <UNDEFINED> instruction: 270b390b
 ac0:	11134919 			@ <UNDEFINED> instruction: 11134919
 ac4:	40061201 			@ <UNDEFINED> instruction: 40061201
 ac8:	00197a18 			@ <UNDEFINED> instruction: 00197a18
 acc:	00051d00 			@ <UNDEFINED> instruction: 00051d00
 ad0:	0b3a0e03 			@ <UNDEFINED> instruction: 0b3a0e03
 ad4:	0b390b3b 			@ <UNDEFINED> instruction: 0b390b3b
 ad8:	17021349 			@ <UNDEFINED> instruction: 17021349
 adc:	001742b7 			@ <UNDEFINED> instruction: 001742b7
 ae0:	00341e00 			@ <UNDEFINED> instruction: 00341e00
 ae4:	0b3a0e03 			@ <UNDEFINED> instruction: 0b3a0e03
 ae8:	0b390b3b 			@ <UNDEFINED> instruction: 0b390b3b
 aec:	17021349 			@ <UNDEFINED> instruction: 17021349
 af0:	001742b7 			@ <UNDEFINED> instruction: 001742b7
 af4:	00341f00 			@ <UNDEFINED> instruction: 00341f00
 af8:	0b3a0803 			@ <UNDEFINED> instruction: 0b3a0803
 afc:	0b390b3b 			@ <UNDEFINED> instruction: 0b390b3b
 b00:	17021349 			@ <UNDEFINED> instruction: 17021349
 b04:	001742b7 			@ <UNDEFINED> instruction: 001742b7
 b08:	010b2000 			@ <UNDEFINED> instruction: 010b2000
 b0c:	06120111 			@ <UNDEFINED> instruction: 06120111
 b10:	00001301 			@ <UNDEFINED> instruction: 00001301
 b14:	7d014821 			@ <UNDEFINED> instruction: 7d014821
 b18:	01137f01 			@ <UNDEFINED> instruction: 01137f01
 b1c:	22000013 			@ <UNDEFINED> instruction: 22000013
 b20:	18020049 			@ <UNDEFINED> instruction: 18020049
 b24:	0000187e 			@ <UNDEFINED> instruction: 0000187e
 b28:	00240100 			@ <UNDEFINED> instruction: 00240100
 b2c:	0b3e0b0b 			@ <UNDEFINED> instruction: 0b3e0b0b
 b30:	00000e03 			@ <UNDEFINED> instruction: 00000e03
 b34:	03000d02 	movweq	r0, #3330	@ 0xd02
 b38:	02213a0e 			@ <UNDEFINED> instruction: 02213a0e
 b3c:	0b390b3b 			@ <UNDEFINED> instruction: 0b390b3b
 b40:	0b381349 			@ <UNDEFINED> instruction: 0b381349
 b44:	0f030000 			@ <UNDEFINED> instruction: 0f030000
 b48:	04210b00 			@ <UNDEFINED> instruction: 04210b00
 b4c:	00001349 			@ <UNDEFINED> instruction: 00001349
 b50:	03003404 	movweq	r3, #1028	@ 0x404
 b54:	01213a08 			@ <UNDEFINED> instruction: 01213a08
 b58:	0b390b3b 			@ <UNDEFINED> instruction: 0b390b3b
 b5c:	17021349 			@ <UNDEFINED> instruction: 17021349
 b60:	001742b7 			@ <UNDEFINED> instruction: 001742b7
 b64:	00160500 			@ <UNDEFINED> instruction: 00160500
 b68:	0b3a0e03 			@ <UNDEFINED> instruction: 0b3a0e03
 b6c:	21390b3b 			@ <UNDEFINED> instruction: 21390b3b
 b70:	00134919 			@ <UNDEFINED> instruction: 00134919
 b74:	000d0600 			@ <UNDEFINED> instruction: 000d0600
 b78:	213a0e03 			@ <UNDEFINED> instruction: 213a0e03
 b7c:	390b3b02 			@ <UNDEFINED> instruction: 390b3b02
 b80:	13490a21 	movtne	r0, #39457	@ 0x9a21
 b84:	00000538 			@ <UNDEFINED> instruction: 00000538
 b88:	49010107 			@ <UNDEFINED> instruction: 49010107
 b8c:	00130113 			@ <UNDEFINED> instruction: 00130113
 b90:	00210800 			@ <UNDEFINED> instruction: 00210800
 b94:	212f1349 			@ <UNDEFINED> instruction: 212f1349
 b98:	0900001f 			@ <UNDEFINED> instruction: 0900001f
 b9c:	193f012e 			@ <UNDEFINED> instruction: 193f012e
 ba0:	213a0e03 			@ <UNDEFINED> instruction: 213a0e03
 ba4:	390b3b03 			@ <UNDEFINED> instruction: 390b3b03
 ba8:	19270d21 			@ <UNDEFINED> instruction: 19270d21
 bac:	1301193c 	movwne	r1, #6460	@ 0x193c
 bb0:	050a0000 			@ <UNDEFINED> instruction: 050a0000
 bb4:	00134900 			@ <UNDEFINED> instruction: 00134900
 bb8:	01110b00 			@ <UNDEFINED> instruction: 01110b00
 bbc:	0b130e25 			@ <UNDEFINED> instruction: 0b130e25
 bc0:	0e1b0e03 			@ <UNDEFINED> instruction: 0e1b0e03
 bc4:	06120111 			@ <UNDEFINED> instruction: 06120111
 bc8:	00001710 			@ <UNDEFINED> instruction: 00001710
 bcc:	0b00240c 			@ <UNDEFINED> instruction: 0b00240c
 bd0:	030b3e0b 	movweq	r3, #48651	@ 0xbe0b
 bd4:	0d000008 			@ <UNDEFINED> instruction: 0d000008
 bd8:	0b0b000f 			@ <UNDEFINED> instruction: 0b0b000f
 bdc:	130e0000 	movwne	r0, #57344	@ 0xe000
 be0:	3c0e0300 			@ <UNDEFINED> instruction: 3c0e0300
 be4:	0f000019 			@ <UNDEFINED> instruction: 0f000019
 be8:	0e030113 			@ <UNDEFINED> instruction: 0e030113
 bec:	0b3a050b 			@ <UNDEFINED> instruction: 0b3a050b
 bf0:	0b390b3b 			@ <UNDEFINED> instruction: 0b390b3b
 bf4:	00001301 			@ <UNDEFINED> instruction: 00001301
 bf8:	03011310 	movweq	r1, #4880	@ 0x1310
 bfc:	3a0b0b0e 			@ <UNDEFINED> instruction: 3a0b0b0e
 c00:	390b3b0b 			@ <UNDEFINED> instruction: 390b3b0b
 c04:	0013010b 			@ <UNDEFINED> instruction: 0013010b
 c08:	00151100 			@ <UNDEFINED> instruction: 00151100
 c0c:	00001927 			@ <UNDEFINED> instruction: 00001927
 c10:	03003412 	movweq	r3, #1042	@ 0x412
 c14:	3b0b3a0e 			@ <UNDEFINED> instruction: 3b0b3a0e
 c18:	490b3905 			@ <UNDEFINED> instruction: 490b3905
 c1c:	3c193f13 			@ <UNDEFINED> instruction: 3c193f13
 c20:	13000019 	movwne	r0, #25
 c24:	0e030034 			@ <UNDEFINED> instruction: 0e030034
 c28:	0b3b0b3a 			@ <UNDEFINED> instruction: 0b3b0b3a
 c2c:	13490b39 	movtne	r0, #39737	@ 0x9b39
 c30:	193c193f 			@ <UNDEFINED> instruction: 193c193f
 c34:	34140000 			@ <UNDEFINED> instruction: 34140000
 c38:	3a0e0300 			@ <UNDEFINED> instruction: 3a0e0300
 c3c:	390b3b0b 			@ <UNDEFINED> instruction: 390b3b0b
 c40:	3f13490b 			@ <UNDEFINED> instruction: 3f13490b
 c44:	00180219 			@ <UNDEFINED> instruction: 00180219
 c48:	00341500 			@ <UNDEFINED> instruction: 00341500
 c4c:	18021347 			@ <UNDEFINED> instruction: 18021347
 c50:	2e160000 			@ <UNDEFINED> instruction: 2e160000
 c54:	03193f01 			@ <UNDEFINED> instruction: 03193f01
 c58:	3b0b3a0e 			@ <UNDEFINED> instruction: 3b0b3a0e
 c5c:	270b390b 			@ <UNDEFINED> instruction: 270b390b
 c60:	12011119 			@ <UNDEFINED> instruction: 12011119
 c64:	7c184006 			@ <UNDEFINED> instruction: 7c184006
 c68:	00130119 			@ <UNDEFINED> instruction: 00130119
 c6c:	00051700 			@ <UNDEFINED> instruction: 00051700
 c70:	0b3a0e03 			@ <UNDEFINED> instruction: 0b3a0e03
 c74:	0b390b3b 			@ <UNDEFINED> instruction: 0b390b3b
 c78:	17021349 			@ <UNDEFINED> instruction: 17021349
 c7c:	001742b7 			@ <UNDEFINED> instruction: 001742b7
 c80:	00051800 			@ <UNDEFINED> instruction: 00051800
 c84:	0b3a0803 			@ <UNDEFINED> instruction: 0b3a0803
 c88:	0b390b3b 			@ <UNDEFINED> instruction: 0b390b3b
 c8c:	17021349 			@ <UNDEFINED> instruction: 17021349
 c90:	001742b7 			@ <UNDEFINED> instruction: 001742b7
 c94:	00341900 			@ <UNDEFINED> instruction: 00341900
 c98:	0b3a0e03 			@ <UNDEFINED> instruction: 0b3a0e03
 c9c:	0b390b3b 			@ <UNDEFINED> instruction: 0b390b3b
 ca0:	18021349 			@ <UNDEFINED> instruction: 18021349
 ca4:	341a0000 			@ <UNDEFINED> instruction: 341a0000
 ca8:	3a0e0300 			@ <UNDEFINED> instruction: 3a0e0300
 cac:	390b3b0b 			@ <UNDEFINED> instruction: 390b3b0b
 cb0:	0213490b 			@ <UNDEFINED> instruction: 0213490b
 cb4:	1742b717 	smlaldne	fp, r2, r7, r7
 cb8:	0a1b0000 			@ <UNDEFINED> instruction: 0a1b0000
 cbc:	3a0e0300 			@ <UNDEFINED> instruction: 3a0e0300
 cc0:	390b3b0b 			@ <UNDEFINED> instruction: 390b3b0b
 cc4:	1c00000b 			@ <UNDEFINED> instruction: 1c00000b
 cc8:	1755010b 			@ <UNDEFINED> instruction: 1755010b
 ccc:	00001301 			@ <UNDEFINED> instruction: 00001301
 cd0:	7d01481d 			@ <UNDEFINED> instruction: 7d01481d
 cd4:	1e000001 			@ <UNDEFINED> instruction: 1e000001
 cd8:	18020049 			@ <UNDEFINED> instruction: 18020049
 cdc:	0000187e 			@ <UNDEFINED> instruction: 0000187e
 ce0:	7d00481f 			@ <UNDEFINED> instruction: 7d00481f
 ce4:	00137f01 			@ <UNDEFINED> instruction: 00137f01
 ce8:	00482000 			@ <UNDEFINED> instruction: 00482000
 cec:	0182017d 			@ <UNDEFINED> instruction: 0182017d
 cf0:	00137f19 			@ <UNDEFINED> instruction: 00137f19
 cf4:	11010000 			@ <UNDEFINED> instruction: 11010000
 cf8:	11171001 			@ <UNDEFINED> instruction: 11171001
 cfc:	030f1201 	movweq	r1, #61953	@ 0xf201
 d00:	250e1b0e 			@ <UNDEFINED> instruction: 250e1b0e
 d04:	0005130e 			@ <UNDEFINED> instruction: 0005130e
 d08:	002e0200 			@ <UNDEFINED> instruction: 002e0200
 d0c:	193f0e03 			@ <UNDEFINED> instruction: 193f0e03
 d10:	01111549 			@ <UNDEFINED> instruction: 01111549
 d14:	00000f12 			@ <UNDEFINED> instruction: 00000f12
 d18:	00003b03 			@ <UNDEFINED> instruction: 00003b03
 d1c:	11010000 			@ <UNDEFINED> instruction: 11010000
 d20:	11171001 			@ <UNDEFINED> instruction: 11171001
 d24:	030f1201 	movweq	r1, #61953	@ 0xf201
 d28:	250e1b0e 			@ <UNDEFINED> instruction: 250e1b0e
 d2c:	0005130e 			@ <UNDEFINED> instruction: 0005130e
 d30:	002e0200 			@ <UNDEFINED> instruction: 002e0200
 d34:	193f0e03 			@ <UNDEFINED> instruction: 193f0e03
 d38:	01111549 			@ <UNDEFINED> instruction: 01111549
 d3c:	00000f12 			@ <UNDEFINED> instruction: 00000f12
 d40:	00003b03 			@ <UNDEFINED> instruction: 00003b03
 d44:	11010000 			@ <UNDEFINED> instruction: 11010000
 d48:	11171001 			@ <UNDEFINED> instruction: 11171001
 d4c:	030f1201 	movweq	r1, #61953	@ 0xf201
 d50:	250e1b0e 			@ <UNDEFINED> instruction: 250e1b0e
 d54:	0005130e 			@ <UNDEFINED> instruction: 0005130e
 d58:	002e0200 			@ <UNDEFINED> instruction: 002e0200
 d5c:	193f0e03 			@ <UNDEFINED> instruction: 193f0e03
 d60:	01111549 			@ <UNDEFINED> instruction: 01111549
 d64:	00000f12 			@ <UNDEFINED> instruction: 00000f12
 d68:	00003b03 			@ <UNDEFINED> instruction: 00003b03
	...

Disassembly of section .debug_loclists:

00000000 <.debug_loclists>:
   0:	00000027 			@ <UNDEFINED> instruction: 00000027
   4:	00040005 			@ <UNDEFINED> instruction: 00040005
	...
  10:	00040000 			@ <UNDEFINED> instruction: 00040000
  14:	04500108 			@ <UNDEFINED> instruction: 04500108
  18:	51010b08 			@ <UNDEFINED> instruction: 51010b08
  1c:	0a0c0b04 			@ <UNDEFINED> instruction: 0a0c0b04
  20:	00a503a3 			@ <UNDEFINED> instruction: 00a503a3
  24:	a82da826 			@ <UNDEFINED> instruction: a82da826
  28:	17009f00 			@ <UNDEFINED> instruction: 17009f00
  2c:	05000000 			@ <UNDEFINED> instruction: 05000000
  30:	00000400 			@ <UNDEFINED> instruction: 00000400
  34:	00000000 			@ <UNDEFINED> instruction: 00000000
  38:	04000000 			@ <UNDEFINED> instruction: 04000000
  3c:	50010d00 			@ <UNDEFINED> instruction: 50010d00
  40:	01240d04 			@ <UNDEFINED> instruction: 01240d04
  44:	02b40054 			@ <UNDEFINED> instruction: 02b40054
  48:	00050000 			@ <UNDEFINED> instruction: 00050000
  4c:	00000004 			@ <UNDEFINED> instruction: 00000004
	...
  5c:	c204bc04 			@ <UNDEFINED> instruction: c204bc04
  60:	04500104 			@ <UNDEFINED> instruction: 04500104
  64:	04da04c2 			@ <UNDEFINED> instruction: 04da04c2
  68:	da045401 			@ <UNDEFINED> instruction: da045401
  6c:	0a04e004 			@ <UNDEFINED> instruction: 0a04e004
  70:	00a503a3 			@ <UNDEFINED> instruction: 00a503a3
  74:	a82da826 			@ <UNDEFINED> instruction: a82da826
  78:	e0049f00 			@ <UNDEFINED> instruction: e0049f00
  7c:	0104e804 			@ <UNDEFINED> instruction: 0104e804
  80:	04e80454 			@ <UNDEFINED> instruction: 04e80454
  84:	a30a04fc 	movwge	r0, #42236	@ 0xa4fc
  88:	2600a503 			@ <UNDEFINED> instruction: 2600a503
  8c:	00a82da8 			@ <UNDEFINED> instruction: 00a82da8
  90:	0000009f 			@ <UNDEFINED> instruction: 0000009f
	...
  9c:	18040000 			@ <UNDEFINED> instruction: 18040000
  a0:	04500127 			@ <UNDEFINED> instruction: 04500127
  a4:	54014427 			@ <UNDEFINED> instruction: 54014427
  a8:	01474404 			@ <UNDEFINED> instruction: 01474404
  ac:	48470450 			@ <UNDEFINED> instruction: 48470450
  b0:	a503a30a 			@ <UNDEFINED> instruction: a503a30a
  b4:	2da82600 			@ <UNDEFINED> instruction: 2da82600
  b8:	049f00a8 			@ <UNDEFINED> instruction: 049f00a8
  bc:	54014a48 			@ <UNDEFINED> instruction: 54014a48
  c0:	0a584a04 			@ <UNDEFINED> instruction: 0a584a04
  c4:	00a503a3 			@ <UNDEFINED> instruction: 00a503a3
  c8:	a82da826 			@ <UNDEFINED> instruction: a82da826
  cc:	00009f00 			@ <UNDEFINED> instruction: 00009f00
  d0:	04000000 			@ <UNDEFINED> instruction: 04000000
  d4:	038202fc 			@ <UNDEFINED> instruction: 038202fc
  d8:	82045001 			@ <UNDEFINED> instruction: 82045001
  dc:	0104bc03 			@ <UNDEFINED> instruction: 0104bc03
  e0:	01000056 	qaddeq	r0, r6, r0
  e4:	96040000 			@ <UNDEFINED> instruction: 96040000
  e8:	0103e203 			@ <UNDEFINED> instruction: 0103e203
  ec:	03e60454 			@ <UNDEFINED> instruction: 03e60454
  f0:	540103fa 			@ <UNDEFINED> instruction: 540103fa
  f4:	01010000 			@ <UNDEFINED> instruction: 01010000
  f8:	00000000 			@ <UNDEFINED> instruction: 00000000
  fc:	00000100 			@ <UNDEFINED> instruction: 00000100
 100:	04000000 			@ <UNDEFINED> instruction: 04000000
 104:	03960396 			@ <UNDEFINED> instruction: 03960396
 108:	96045301 			@ <UNDEFINED> instruction: 96045301
 10c:	03039803 	movweq	r9, #14339	@ 0x3803
 110:	049f7f73 			@ <UNDEFINED> instruction: 049f7f73
 114:	039c0398 			@ <UNDEFINED> instruction: 039c0398
 118:	9c045301 			@ <UNDEFINED> instruction: 9c045301
 11c:	0303a203 	movweq	sl, #12803	@ 0x3203
 120:	049f0173 			@ <UNDEFINED> instruction: 049f0173
 124:	03aa03a2 			@ <UNDEFINED> instruction: 03aa03a2
 128:	aa045301 			@ <UNDEFINED> instruction: aa045301
 12c:	0303b003 	movweq	fp, #12291	@ 0x3003
 130:	049f0173 			@ <UNDEFINED> instruction: 049f0173
 134:	03f703e6 			@ <UNDEFINED> instruction: 03f703e6
 138:	02005301 			@ <UNDEFINED> instruction: 02005301
 13c:	04000200 			@ <UNDEFINED> instruction: 04000200
 140:	03ee03ea 			@ <UNDEFINED> instruction: 03ee03ea
 144:	04007502 			@ <UNDEFINED> instruction: 04007502
 148:	04980494 			@ <UNDEFINED> instruction: 04980494
 14c:	00007402 			@ <UNDEFINED> instruction: 00007402
 150:	ee040101 			@ <UNDEFINED> instruction: ee040101
 154:	02049203 			@ <UNDEFINED> instruction: 02049203
 158:	00009f34 			@ <UNDEFINED> instruction: 00009f34
 15c:	03ee0401 			@ <UNDEFINED> instruction: 03ee0401
 160:	56010492 			@ <UNDEFINED> instruction: 56010492
 164:	00000000 			@ <UNDEFINED> instruction: 00000000
 168:	03f80401 			@ <UNDEFINED> instruction: 03f80401
 16c:	50010484 			@ <UNDEFINED> instruction: 50010484
 170:	92048404 			@ <UNDEFINED> instruction: 92048404
 174:	00540104 			@ <UNDEFINED> instruction: 00540104
	...
 180:	01685804 			@ <UNDEFINED> instruction: 01685804
 184:	6a680450 			@ <UNDEFINED> instruction: 6a680450
 188:	a503a30a 			@ <UNDEFINED> instruction: a503a30a
 18c:	2da82600 			@ <UNDEFINED> instruction: 2da82600
 190:	049f00a8 			@ <UNDEFINED> instruction: 049f00a8
 194:	50016c6a 			@ <UNDEFINED> instruction: 50016c6a
 198:	0a746c04 			@ <UNDEFINED> instruction: 0a746c04
 19c:	00a503a3 			@ <UNDEFINED> instruction: 00a503a3
 1a0:	a82da826 			@ <UNDEFINED> instruction: a82da826
 1a4:	00009f00 			@ <UNDEFINED> instruction: 00009f00
 1a8:	04000000 			@ <UNDEFINED> instruction: 04000000
 1ac:	51016f58 			@ <UNDEFINED> instruction: 51016f58
 1b0:	0a746f04 			@ <UNDEFINED> instruction: 0a746f04
 1b4:	01a503a3 			@ <UNDEFINED> instruction: 01a503a3
 1b8:	a82da826 			@ <UNDEFINED> instruction: a82da826
 1bc:	01009f00 			@ <UNDEFINED> instruction: 01009f00
 1c0:	00000000 			@ <UNDEFINED> instruction: 00000000
 1c4:	66600400 			@ <UNDEFINED> instruction: 66600400
 1c8:	6a045001 			@ <UNDEFINED> instruction: 6a045001
 1cc:	0450016c 			@ <UNDEFINED> instruction: 0450016c
 1d0:	a30a706c 	movwge	r7, #41068	@ 0xa06c
 1d4:	2600a503 			@ <UNDEFINED> instruction: 2600a503
 1d8:	00a82da8 			@ <UNDEFINED> instruction: 00a82da8
 1dc:	0000009f 			@ <UNDEFINED> instruction: 0000009f
 1e0:	00000000 			@ <UNDEFINED> instruction: 00000000
 1e4:	01666004 			@ <UNDEFINED> instruction: 01666004
 1e8:	6f6a0451 			@ <UNDEFINED> instruction: 6f6a0451
 1ec:	6f045101 			@ <UNDEFINED> instruction: 6f045101
 1f0:	03a30a70 			@ <UNDEFINED> instruction: 03a30a70
 1f4:	a82601a5 			@ <UNDEFINED> instruction: a82601a5
 1f8:	9f00a82d 			@ <UNDEFINED> instruction: 9f00a82d
	...
 204:	84740400 			@ <UNDEFINED> instruction: 84740400
 208:	04500101 			@ <UNDEFINED> instruction: 04500101
 20c:	01860184 			@ <UNDEFINED> instruction: 01860184
 210:	a503a30a 			@ <UNDEFINED> instruction: a503a30a
 214:	2da82600 			@ <UNDEFINED> instruction: 2da82600
 218:	049f00a8 			@ <UNDEFINED> instruction: 049f00a8
 21c:	01880186 			@ <UNDEFINED> instruction: 01880186
 220:	88045001 			@ <UNDEFINED> instruction: 88045001
 224:	0a019001 			@ <UNDEFINED> instruction: 0a019001
 228:	00a503a3 			@ <UNDEFINED> instruction: 00a503a3
 22c:	a82da826 			@ <UNDEFINED> instruction: a82da826
 230:	00009f00 			@ <UNDEFINED> instruction: 00009f00
 234:	04000000 			@ <UNDEFINED> instruction: 04000000
 238:	01018b74 			@ <UNDEFINED> instruction: 01018b74
 23c:	018b0451 			@ <UNDEFINED> instruction: 018b0451
 240:	a30a0190 	movwge	r0, #41360	@ 0xa190
 244:	2601a503 			@ <UNDEFINED> instruction: 2601a503
 248:	00a82da8 			@ <UNDEFINED> instruction: 00a82da8
 24c:	0001009f 			@ <UNDEFINED> instruction: 0001009f
 250:	00000000 			@ <UNDEFINED> instruction: 00000000
 254:	01827c04 			@ <UNDEFINED> instruction: 01827c04
 258:	86045001 			@ <UNDEFINED> instruction: 86045001
 25c:	01018801 			@ <UNDEFINED> instruction: 01018801
 260:	01880450 			@ <UNDEFINED> instruction: 01880450
 264:	a30a018c 	movwge	r0, #41356	@ 0xa18c
 268:	2600a503 			@ <UNDEFINED> instruction: 2600a503
 26c:	00a82da8 			@ <UNDEFINED> instruction: 00a82da8
 270:	0000009f 			@ <UNDEFINED> instruction: 0000009f
 274:	00000000 			@ <UNDEFINED> instruction: 00000000
 278:	01827c04 			@ <UNDEFINED> instruction: 01827c04
 27c:	86045101 			@ <UNDEFINED> instruction: 86045101
 280:	01018b01 			@ <UNDEFINED> instruction: 01018b01
 284:	018b0451 			@ <UNDEFINED> instruction: 018b0451
 288:	a30a018c 	movwge	r0, #41356	@ 0xa18c
 28c:	2601a503 			@ <UNDEFINED> instruction: 2601a503
 290:	00a82da8 			@ <UNDEFINED> instruction: 00a82da8
 294:	0001009f 			@ <UNDEFINED> instruction: 0001009f
 298:	da01a604 			@ <UNDEFINED> instruction: da01a604
 29c:	68030601 			@ <UNDEFINED> instruction: 68030601
 2a0:	9f200000 			@ <UNDEFINED> instruction: 9f200000
 2a4:	04000300 			@ <UNDEFINED> instruction: 04000300
 2a8:	01da01a6 			@ <UNDEFINED> instruction: 01da01a6
 2ac:	009f3002 			@ <UNDEFINED> instruction: 009f3002
 2b0:	a6040003 			@ <UNDEFINED> instruction: a6040003
 2b4:	0201da01 			@ <UNDEFINED> instruction: 0201da01
 2b8:	03009f34 	movweq	r9, #3892	@ 0xf34
 2bc:	01a60400 			@ <UNDEFINED> instruction: 01a60400
 2c0:	030601da 	movweq	r0, #25050	@ 0x61da
 2c4:	20000068 			@ <UNDEFINED> instruction: 20000068
 2c8:	0002009f 			@ <UNDEFINED> instruction: 0002009f
 2cc:	9401da04 			@ <UNDEFINED> instruction: 9401da04
 2d0:	d0030602 			@ <UNDEFINED> instruction: d0030602
 2d4:	9f200000 			@ <UNDEFINED> instruction: 9f200000
 2d8:	04000400 			@ <UNDEFINED> instruction: 04000400
 2dc:	029401da 			@ <UNDEFINED> instruction: 029401da
 2e0:	009f3102 			@ <UNDEFINED> instruction: 009f3102
 2e4:	da040004 			@ <UNDEFINED> instruction: da040004
 2e8:	02029401 			@ <UNDEFINED> instruction: 02029401
 2ec:	04009f39 			@ <UNDEFINED> instruction: 04009f39
 2f0:	01da0400 			@ <UNDEFINED> instruction: 01da0400
 2f4:	03060294 	movweq	r0, #25236	@ 0x6294
 2f8:	200000d0 	ldrdcs	r0, [r0], -r0	@ <UNPREDICTABLE>
 2fc:	01be009f 			@ <UNDEFINED> instruction: 01be009f
 300:	00050000 			@ <UNDEFINED> instruction: 00050000
 304:	00000004 			@ <UNDEFINED> instruction: 00000004
	...
 310:	01800004 			@ <UNDEFINED> instruction: 01800004
 314:	80045101 			@ <UNDEFINED> instruction: 80045101
 318:	0a018c01 			@ <UNDEFINED> instruction: 0a018c01
 31c:	01a503a3 			@ <UNDEFINED> instruction: 01a503a3
 320:	a82da826 			@ <UNDEFINED> instruction: a82da826
 324:	8c049f00 			@ <UNDEFINED> instruction: 8c049f00
 328:	0101a201 			@ <UNDEFINED> instruction: 0101a201
 32c:	00000051 			@ <UNDEFINED> instruction: 00000051
 330:	00000000 			@ <UNDEFINED> instruction: 00000000
 334:	00010000 			@ <UNDEFINED> instruction: 00010000
 338:	00000000 			@ <UNDEFINED> instruction: 00000000
 33c:	00010100 			@ <UNDEFINED> instruction: 00010100
 340:	00040000 			@ <UNDEFINED> instruction: 00040000
 344:	04520108 			@ <UNDEFINED> instruction: 04520108
 348:	54011208 			@ <UNDEFINED> instruction: 54011208
 34c:	03141204 			@ <UNDEFINED> instruction: 03141204
 350:	049f7f74 			@ <UNDEFINED> instruction: 049f7f74
 354:	54011614 			@ <UNDEFINED> instruction: 54011614
 358:	031e1604 			@ <UNDEFINED> instruction: 031e1604
 35c:	049f7f74 			@ <UNDEFINED> instruction: 049f7f74
 360:	5c016462 			@ <UNDEFINED> instruction: 5c016462
 364:	90018c04 			@ <UNDEFINED> instruction: 90018c04
 368:	045c0101 			@ <UNDEFINED> instruction: 045c0101
 36c:	01900190 			@ <UNDEFINED> instruction: 01900190
 370:	90045401 			@ <UNDEFINED> instruction: 90045401
 374:	03019601 	movweq	r9, #5633	@ 0x1601
 378:	049f7f74 			@ <UNDEFINED> instruction: 049f7f74
 37c:	019c0196 			@ <UNDEFINED> instruction: 019c0196
 380:	02005201 			@ <UNDEFINED> instruction: 02005201
 384:	02020000 			@ <UNDEFINED> instruction: 02020000
 388:	00000000 			@ <UNDEFINED> instruction: 00000000
 38c:	00000101 			@ <UNDEFINED> instruction: 00000101
	...
 398:	12000400 			@ <UNDEFINED> instruction: 12000400
 39c:	12045001 			@ <UNDEFINED> instruction: 12045001
 3a0:	04530116 			@ <UNDEFINED> instruction: 04530116
 3a4:	73031a16 	movwvc	r1, #14870	@ 0x3a16
 3a8:	1a049f01 			@ <UNDEFINED> instruction: 1a049f01
 3ac:	04530168 			@ <UNDEFINED> instruction: 04530168
 3b0:	0101827c 			@ <UNDEFINED> instruction: 0101827c
 3b4:	01820453 			@ <UNDEFINED> instruction: 01820453
 3b8:	73030186 	movwvc	r0, #12678	@ 0x3186
 3bc:	86049f01 			@ <UNDEFINED> instruction: 86049f01
 3c0:	01018a01 			@ <UNDEFINED> instruction: 01018a01
 3c4:	018c0453 			@ <UNDEFINED> instruction: 018c0453
 3c8:	53010194 	movwpl	r0, #4500	@ 0x1194
 3cc:	96019404 			@ <UNDEFINED> instruction: 96019404
 3d0:	04520101 			@ <UNDEFINED> instruction: 04520101
 3d4:	019c0196 			@ <UNDEFINED> instruction: 019c0196
 3d8:	9c045001 			@ <UNDEFINED> instruction: 9c045001
 3dc:	0101a201 			@ <UNDEFINED> instruction: 0101a201
 3e0:	00010053 			@ <UNDEFINED> instruction: 00010053
 3e4:	00000000 			@ <UNDEFINED> instruction: 00000000
 3e8:	037c2e04 			@ <UNDEFINED> instruction: 037c2e04
 3ec:	049f2008 			@ <UNDEFINED> instruction: 049f2008
 3f0:	0196018c 			@ <UNDEFINED> instruction: 0196018c
 3f4:	9f200803 			@ <UNDEFINED> instruction: 9f200803
 3f8:	a2019c04 			@ <UNDEFINED> instruction: a2019c04
 3fc:	20080301 			@ <UNDEFINED> instruction: 20080301
 400:	0002009f 			@ <UNDEFINED> instruction: 0002009f
 404:	00000000 			@ <UNDEFINED> instruction: 00000000
 408:	22040000 			@ <UNDEFINED> instruction: 22040000
 40c:	00710a2e 			@ <UNDEFINED> instruction: 00710a2e
 410:	0a1aff08 			@ <UNDEFINED> instruction: 0a1aff08
 414:	9f1e0101 			@ <UNDEFINED> instruction: 9f1e0101
 418:	017c2e04 			@ <UNDEFINED> instruction: 017c2e04
 41c:	018c0455 			@ <UNDEFINED> instruction: 018c0455
 420:	55010196 			@ <UNDEFINED> instruction: 55010196
 424:	a2019c04 			@ <UNDEFINED> instruction: a2019c04
 428:	00550101 			@ <UNDEFINED> instruction: 00550101
 42c:	02010001 			@ <UNDEFINED> instruction: 02010001
 430:	04030302 			@ <UNDEFINED> instruction: 04030302
 434:	00000004 			@ <UNDEFINED> instruction: 00000004
 438:	01000000 			@ <UNDEFINED> instruction: 01000000
 43c:	00000001 			@ <UNDEFINED> instruction: 00000001
 440:	00000000 			@ <UNDEFINED> instruction: 00000000
 444:	01442204 			@ <UNDEFINED> instruction: 01442204
 448:	44440453 			@ <UNDEFINED> instruction: 44440453
 44c:	9f047203 			@ <UNDEFINED> instruction: 9f047203
 450:	03444404 	movteq	r4, #17412	@ 0x4404
 454:	049f0872 			@ <UNDEFINED> instruction: 049f0872
 458:	72034444 			@ <UNDEFINED> instruction: 72034444
 45c:	44049f0c 			@ <UNDEFINED> instruction: 44049f0c
 460:	1072034e 			@ <UNDEFINED> instruction: 1072034e
 464:	564e049f 			@ <UNDEFINED> instruction: 564e049f
 468:	62045201 			@ <UNDEFINED> instruction: 62045201
 46c:	04520164 			@ <UNDEFINED> instruction: 04520164
 470:	52017070 			@ <UNDEFINED> instruction: 52017070
 474:	03747004 			@ <UNDEFINED> instruction: 03747004
 478:	049f0472 			@ <UNDEFINED> instruction: 049f0472
 47c:	52017c74 			@ <UNDEFINED> instruction: 52017c74
 480:	96018c04 			@ <UNDEFINED> instruction: 96018c04
 484:	04520101 			@ <UNDEFINED> instruction: 04520101
 488:	01a2019c 			@ <UNDEFINED> instruction: 01a2019c
 48c:	06005301 			@ <UNDEFINED> instruction: 06005301
 490:	00000000 			@ <UNDEFINED> instruction: 00000000
 494:	80000400 			@ <UNDEFINED> instruction: 80000400
 498:	00710601 			@ <UNDEFINED> instruction: 00710601
 49c:	9f1aff08 			@ <UNDEFINED> instruction: 9f1aff08
 4a0:	8c018004 			@ <UNDEFINED> instruction: 8c018004
 4a4:	03a30d01 			@ <UNDEFINED> instruction: 03a30d01
 4a8:	a82601a5 			@ <UNDEFINED> instruction: a82601a5
 4ac:	0800a82d 			@ <UNDEFINED> instruction: 0800a82d
 4b0:	049f1aff 			@ <UNDEFINED> instruction: 049f1aff
 4b4:	01a2018c 			@ <UNDEFINED> instruction: 01a2018c
 4b8:	08007106 			@ <UNDEFINED> instruction: 08007106
 4bc:	009f1aff 			@ <UNDEFINED> instruction: 009f1aff
 4c0:	00000061 			@ <UNDEFINED> instruction: 00000061
 4c4:	00040005 			@ <UNDEFINED> instruction: 00040005
	...
 4d0:	0c040000 			@ <UNDEFINED> instruction: 0c040000
 4d4:	00760510 			@ <UNDEFINED> instruction: 00760510
 4d8:	049f2632 			@ <UNDEFINED> instruction: 049f2632
 4dc:	56011e10 			@ <UNDEFINED> instruction: 56011e10
 4e0:	01402e04 			@ <UNDEFINED> instruction: 01402e04
 4e4:	00010056 			@ <UNDEFINED> instruction: 00010056
 4e8:	01000000 			@ <UNDEFINED> instruction: 01000000
 4ec:	00010001 			@ <UNDEFINED> instruction: 00010001
 4f0:	01000000 			@ <UNDEFINED> instruction: 01000000
 4f4:	0c040001 			@ <UNDEFINED> instruction: 0c040001
 4f8:	9f300212 			@ <UNDEFINED> instruction: 9f300212
 4fc:	01181204 			@ <UNDEFINED> instruction: 01181204
 500:	1a180454 			@ <UNDEFINED> instruction: 1a180454
 504:	9f7f7403 			@ <UNDEFINED> instruction: 9f7f7403
 508:	011e1a04 			@ <UNDEFINED> instruction: 011e1a04
 50c:	322e0454 			@ <UNDEFINED> instruction: 322e0454
 510:	049f3002 			@ <UNDEFINED> instruction: 049f3002
 514:	54013832 			@ <UNDEFINED> instruction: 54013832
 518:	033a3804 			@ <UNDEFINED> instruction: 033a3804
 51c:	049f7f74 			@ <UNDEFINED> instruction: 049f7f74
 520:	54013e3a 			@ <UNDEFINED> instruction: 54013e3a
 524:	00003e00 			@ <UNDEFINED> instruction: 00003e00
 528:	04000500 			@ <UNDEFINED> instruction: 04000500
	...
 534:	0a080400 			@ <UNDEFINED> instruction: 0a080400
 538:	32007405 			@ <UNDEFINED> instruction: 32007405
 53c:	0a049f26 			@ <UNDEFINED> instruction: 0a049f26
 540:	0054010c 			@ <UNDEFINED> instruction: 0054010c
 544:	00000001 			@ <UNDEFINED> instruction: 00000001
 548:	00010100 			@ <UNDEFINED> instruction: 00010100
 54c:	050a0804 			@ <UNDEFINED> instruction: 050a0804
 550:	26320074 			@ <UNDEFINED> instruction: 26320074
 554:	0e0a049f 			@ <UNDEFINED> instruction: 0e0a049f
 558:	0e045401 			@ <UNDEFINED> instruction: 0e045401
 55c:	01740314 			@ <UNDEFINED> instruction: 01740314
 560:	1c14049f 			@ <UNDEFINED> instruction: 1c14049f
 564:	20005401 			@ <UNDEFINED> instruction: 20005401
 568:	05000000 			@ <UNDEFINED> instruction: 05000000
 56c:	00000400 			@ <UNDEFINED> instruction: 00000400
 570:	00000000 			@ <UNDEFINED> instruction: 00000000
 574:	04000000 			@ <UNDEFINED> instruction: 04000000
 578:	50011a18 			@ <UNDEFINED> instruction: 50011a18
 57c:	0a1c1a04 			@ <UNDEFINED> instruction: 0a1c1a04
 580:	00a503a3 			@ <UNDEFINED> instruction: 00a503a3
 584:	a82da826 			@ <UNDEFINED> instruction: a82da826
 588:	88009f00 			@ <UNDEFINED> instruction: 88009f00
 58c:	05000000 			@ <UNDEFINED> instruction: 05000000
 590:	00000400 			@ <UNDEFINED> instruction: 00000400
 594:	00000000 			@ <UNDEFINED> instruction: 00000000
 598:	04000000 			@ <UNDEFINED> instruction: 04000000
 59c:	50010e00 			@ <UNDEFINED> instruction: 50010e00
 5a0:	01bc0e04 			@ <UNDEFINED> instruction: 01bc0e04
 5a4:	00005701 			@ <UNDEFINED> instruction: 00005701
 5a8:	04000000 			@ <UNDEFINED> instruction: 04000000
 5ac:	51011700 			@ <UNDEFINED> instruction: 51011700
 5b0:	01bc1704 			@ <UNDEFINED> instruction: 01bc1704
 5b4:	00005801 			@ <UNDEFINED> instruction: 00005801
 5b8:	04000000 			@ <UNDEFINED> instruction: 04000000
 5bc:	52011700 			@ <UNDEFINED> instruction: 52011700
 5c0:	01bc1704 			@ <UNDEFINED> instruction: 01bc1704
 5c4:	00005b01 			@ <UNDEFINED> instruction: 00005b01
 5c8:	04000000 			@ <UNDEFINED> instruction: 04000000
 5cc:	53011700 	movwpl	r1, #5888	@ 0x1700
 5d0:	01bc1704 			@ <UNDEFINED> instruction: 01bc1704
 5d4:	00005601 			@ <UNDEFINED> instruction: 00005601
 5d8:	00000000 			@ <UNDEFINED> instruction: 00000000
 5dc:	04000000 			@ <UNDEFINED> instruction: 04000000
 5e0:	5001542a 			@ <UNDEFINED> instruction: 5001542a
 5e4:	01867e04 			@ <UNDEFINED> instruction: 01867e04
 5e8:	86045001 			@ <UNDEFINED> instruction: 86045001
 5ec:	03018901 	movweq	r8, #6401	@ 0x1901
 5f0:	04018875 			@ <UNDEFINED> instruction: 04018875
 5f4:	019a018a 			@ <UNDEFINED> instruction: 019a018a
 5f8:	00005001 			@ <UNDEFINED> instruction: 00005001
 5fc:	00000101 			@ <UNDEFINED> instruction: 00000101
 600:	6c1c0400 			@ <UNDEFINED> instruction: 6c1c0400
 604:	6c045501 			@ <UNDEFINED> instruction: 6c045501
 608:	c403067e 			@ <UNDEFINED> instruction: c403067e
 60c:	9f200001 			@ <UNDEFINED> instruction: 9f200001
 610:	01bc7e04 			@ <UNDEFINED> instruction: 01bc7e04
 614:	01005501 			@ <UNDEFINED> instruction: 01005501
 618:	05000001 			@ <UNDEFINED> instruction: 05000001
 61c:	00000400 			@ <UNDEFINED> instruction: 00000400
	...
 62c:	10000400 			@ <UNDEFINED> instruction: 10000400
 630:	10045001 			@ <UNDEFINED> instruction: 10045001
 634:	04530117 			@ <UNDEFINED> instruction: 04530117
 638:	02019017 			@ <UNDEFINED> instruction: 02019017
 63c:	90045491 			@ <UNDEFINED> instruction: 90045491
 640:	02019401 			@ <UNDEFINED> instruction: 02019401
 644:	9404547d 			@ <UNDEFINED> instruction: 9404547d
 648:	0201d801 			@ <UNDEFINED> instruction: 0201d801
 64c:	00005491 			@ <UNDEFINED> instruction: 00005491
 650:	00000000 			@ <UNDEFINED> instruction: 00000000
 654:	04000000 			@ <UNDEFINED> instruction: 04000000
 658:	51011700 			@ <UNDEFINED> instruction: 51011700
 65c:	01901704 			@ <UNDEFINED> instruction: 01901704
 660:	90045801 			@ <UNDEFINED> instruction: 90045801
 664:	0a019401 			@ <UNDEFINED> instruction: 0a019401
 668:	01a503a3 			@ <UNDEFINED> instruction: 01a503a3
 66c:	a82da826 			@ <UNDEFINED> instruction: a82da826
 670:	94049f00 			@ <UNDEFINED> instruction: 94049f00
 674:	0101d801 			@ <UNDEFINED> instruction: 0101d801
 678:	00000058 			@ <UNDEFINED> instruction: 00000058
 67c:	00020200 			@ <UNDEFINED> instruction: 00020200
 680:	1c040000 			@ <UNDEFINED> instruction: 1c040000
 684:	56010186 			@ <UNDEFINED> instruction: 56010186
 688:	c2019404 			@ <UNDEFINED> instruction: c2019404
 68c:	04560101 			@ <UNDEFINED> instruction: 04560101
 690:	01ca01c2 			@ <UNDEFINED> instruction: 01ca01c2
 694:	02500305 			@ <UNDEFINED> instruction: 02500305
 698:	ca042000 			@ <UNDEFINED> instruction: ca042000
 69c:	0101d801 			@ <UNDEFINED> instruction: 0101d801
 6a0:	00000056 			@ <UNDEFINED> instruction: 00000056
 6a4:	26040000 			@ <UNDEFINED> instruction: 26040000
 6a8:	57010186 			@ <UNDEFINED> instruction: 57010186
 6ac:	d8019404 			@ <UNDEFINED> instruction: d8019404
 6b0:	00570101 			@ <UNDEFINED> instruction: 00570101
 6b4:	00000001 			@ <UNDEFINED> instruction: 00000001
 6b8:	00000000 			@ <UNDEFINED> instruction: 00000000
 6bc:	03282604 			@ <UNDEFINED> instruction: 03282604
 6c0:	049f7f75 			@ <UNDEFINED> instruction: 049f7f75
 6c4:	01018628 			@ <UNDEFINED> instruction: 01018628
 6c8:	01940454 			@ <UNDEFINED> instruction: 01940454
 6cc:	540101ac 			@ <UNDEFINED> instruction: 540101ac
 6d0:	d801b604 			@ <UNDEFINED> instruction: d801b604
 6d4:	00540101 			@ <UNDEFINED> instruction: 00540101
 6d8:	00000002 			@ <UNDEFINED> instruction: 00000002
 6dc:	053a3404 			@ <UNDEFINED> instruction: 053a3404
 6e0:	24007431 			@ <UNDEFINED> instruction: 24007431
 6e4:	0194049f 			@ <UNDEFINED> instruction: 0194049f
 6e8:	31050196 			@ <UNDEFINED> instruction: 31050196
 6ec:	9f240074 			@ <UNDEFINED> instruction: 9f240074
 6f0:	00000000 			@ <UNDEFINED> instruction: 00000000
 6f4:	04000000 			@ <UNDEFINED> instruction: 04000000
 6f8:	52016d3e 			@ <UNDEFINED> instruction: 52016d3e
 6fc:	b701b604 			@ <UNDEFINED> instruction: b701b604
 700:	04520101 			@ <UNDEFINED> instruction: 04520101
 704:	01cd01ca 			@ <UNDEFINED> instruction: 01cd01ca
 708:	00005201 			@ <UNDEFINED> instruction: 00005201
 70c:	04000000 			@ <UNDEFINED> instruction: 04000000
 710:	5a017c50 			@ <UNDEFINED> instruction: 5a017c50
 714:	d801b604 			@ <UNDEFINED> instruction: d801b604
 718:	005a0101 			@ <UNDEFINED> instruction: 005a0101
 71c:	00000010 			@ <UNDEFINED> instruction: 00000010
 720:	00040005 			@ <UNDEFINED> instruction: 00040005
 724:	00000000 			@ <UNDEFINED> instruction: 00000000
 728:	00040001 			@ <UNDEFINED> instruction: 00040001
 72c:	00500102 			@ <UNDEFINED> instruction: 00500102

Disassembly of section .debug_aranges:

00000000 <.debug_aranges>:
   0:	0000001c 			@ <UNDEFINED> instruction: 0000001c
   4:	00000002 			@ <UNDEFINED> instruction: 00000002
   8:	00040000 			@ <UNDEFINED> instruction: 00040000
   c:	00000000 			@ <UNDEFINED> instruction: 00000000
  10:	00000208 			@ <UNDEFINED> instruction: 00000208
  14:	0000000c 			@ <UNDEFINED> instruction: 0000000c
	...
  20:	0000001c 			@ <UNDEFINED> instruction: 0000001c
  24:	011e0002 			@ <UNDEFINED> instruction: 011e0002
  28:	00040000 			@ <UNDEFINED> instruction: 00040000
  2c:	00000000 			@ <UNDEFINED> instruction: 00000000
  30:	00000214 			@ <UNDEFINED> instruction: 00000214
  34:	00000024 			@ <UNDEFINED> instruction: 00000024
	...
  40:	0000001c 			@ <UNDEFINED> instruction: 0000001c
  44:	02390002 			@ <UNDEFINED> instruction: 02390002
  48:	00040000 			@ <UNDEFINED> instruction: 00040000
	...
  54:	000002dc 	ldrdeq	r0, [r0], -ip
	...
  60:	0000001c 			@ <UNDEFINED> instruction: 0000001c
  64:	12fd0002 			@ <UNDEFINED> instruction: 12fd0002
  68:	00040000 			@ <UNDEFINED> instruction: 00040000
  6c:	00000000 			@ <UNDEFINED> instruction: 00000000
  70:	00000238 			@ <UNDEFINED> instruction: 00000238
  74:	000000a2 			@ <UNDEFINED> instruction: 000000a2
	...
  80:	0000001c 			@ <UNDEFINED> instruction: 0000001c
  84:	14320002 			@ <UNDEFINED> instruction: 14320002
  88:	00040000 			@ <UNDEFINED> instruction: 00040000
  8c:	00000000 			@ <UNDEFINED> instruction: 00000000
  90:	000002dc 	ldrdeq	r0, [r0], -ip
  94:	00000050 			@ <UNDEFINED> instruction: 00000050
	...
  a0:	0000001c 			@ <UNDEFINED> instruction: 0000001c
  a4:	153d0002 			@ <UNDEFINED> instruction: 153d0002
  a8:	00040000 			@ <UNDEFINED> instruction: 00040000
  ac:	00000000 			@ <UNDEFINED> instruction: 00000000
  b0:	0000032c 			@ <UNDEFINED> instruction: 0000032c
  b4:	00000028 			@ <UNDEFINED> instruction: 00000028
	...
  c0:	0000001c 			@ <UNDEFINED> instruction: 0000001c
  c4:	16340002 			@ <UNDEFINED> instruction: 16340002
  c8:	00040000 			@ <UNDEFINED> instruction: 00040000
  cc:	00000000 			@ <UNDEFINED> instruction: 00000000
  d0:	00000354 			@ <UNDEFINED> instruction: 00000354
  d4:	00000026 			@ <UNDEFINED> instruction: 00000026
	...
  e0:	0000001c 			@ <UNDEFINED> instruction: 0000001c
  e4:	184c0002 			@ <UNDEFINED> instruction: 184c0002
  e8:	00040000 			@ <UNDEFINED> instruction: 00040000
  ec:	00000000 			@ <UNDEFINED> instruction: 00000000
  f0:	0000037c 			@ <UNDEFINED> instruction: 0000037c
  f4:	000000bc 			@ <UNDEFINED> instruction: 000000bc
	...
 100:	0000001c 			@ <UNDEFINED> instruction: 0000001c
 104:	1b330002 			@ <UNDEFINED> instruction: 1b330002
 108:	00040000 			@ <UNDEFINED> instruction: 00040000
 10c:	00000000 			@ <UNDEFINED> instruction: 00000000
 110:	00000438 			@ <UNDEFINED> instruction: 00000438
 114:	000000d8 	ldrdeq	r0, [r0], -r8
	...
 120:	0000001c 			@ <UNDEFINED> instruction: 0000001c
 124:	1dc30002 			@ <UNDEFINED> instruction: 1dc30002
 128:	00040000 			@ <UNDEFINED> instruction: 00040000
 12c:	00000000 			@ <UNDEFINED> instruction: 00000000
 130:	00000cac 			@ <UNDEFINED> instruction: 00000cac
 134:	00000376 			@ <UNDEFINED> instruction: 00000376
	...
 140:	0000001c 			@ <UNDEFINED> instruction: 0000001c
 144:	1e960002 			@ <UNDEFINED> instruction: 1e960002
 148:	00040000 			@ <UNDEFINED> instruction: 00040000
 14c:	00000000 			@ <UNDEFINED> instruction: 00000000
 150:	00001024 			@ <UNDEFINED> instruction: 00001024
 154:	00000040 			@ <UNDEFINED> instruction: 00000040
	...
 160:	0000001c 			@ <UNDEFINED> instruction: 0000001c
 164:	1ed20002 			@ <UNDEFINED> instruction: 1ed20002
 168:	00040000 			@ <UNDEFINED> instruction: 00040000
 16c:	00000000 			@ <UNDEFINED> instruction: 00000000
 170:	00001080 			@ <UNDEFINED> instruction: 00001080
 174:	000000d8 	ldrdeq	r0, [r0], -r8
	...

Disassembly of section .debug_line:

00000000 <.debug_line>:
       0:	000000c4 			@ <UNDEFINED> instruction: 000000c4
       4:	00a00003 			@ <UNDEFINED> instruction: 00a00003
       8:	01020000 			@ <UNDEFINED> instruction: 01020000
       c:	000d0efb 	strdeq	r0, [sp], -fp
      10:	01010101 			@ <UNDEFINED> instruction: 01010101
      14:	01000000 			@ <UNDEFINED> instruction: 01000000
      18:	43010000 	movwmi	r0, #4096	@ 0x1000
      1c:	2f4d2f3a 			@ <UNDEFINED> instruction: 2f4d2f3a
      20:	72732f42 			@ <UNDEFINED> instruction: 72732f42
      24:	656e2f63 			@ <UNDEFINED> instruction: 656e2f63
      28:	62696c77 			@ <UNDEFINED> instruction: 62696c77
      2c:	352e342d 			@ <UNDEFINED> instruction: 352e342d
      30:	322e302e 			@ <UNDEFINED> instruction: 322e302e
      34:	31343230 			@ <UNDEFINED> instruction: 31343230
      38:	2f313332 			@ <UNDEFINED> instruction: 2f313332
      3c:	6c77656e 			@ <UNDEFINED> instruction: 6c77656e
      40:	6c2f6269 			@ <UNDEFINED> instruction: 6c2f6269
      44:	2f636269 			@ <UNDEFINED> instruction: 2f636269
      48:	6c647473 			@ <UNDEFINED> instruction: 6c647473
      4c:	43006269 	movwmi	r6, #617	@ 0x269
      50:	2f4d2f3a 			@ <UNDEFINED> instruction: 2f4d2f3a
      54:	72732f42 			@ <UNDEFINED> instruction: 72732f42
      58:	656e2f63 			@ <UNDEFINED> instruction: 656e2f63
      5c:	62696c77 			@ <UNDEFINED> instruction: 62696c77
      60:	352e342d 			@ <UNDEFINED> instruction: 352e342d
      64:	322e302e 			@ <UNDEFINED> instruction: 322e302e
      68:	31343230 			@ <UNDEFINED> instruction: 31343230
      6c:	2f313332 			@ <UNDEFINED> instruction: 2f313332
      70:	6c77656e 			@ <UNDEFINED> instruction: 6c77656e
      74:	6c2f6269 			@ <UNDEFINED> instruction: 6c2f6269
      78:	2f636269 			@ <UNDEFINED> instruction: 2f636269
      7c:	6c636e69 			@ <UNDEFINED> instruction: 6c636e69
      80:	00656475 			@ <UNDEFINED> instruction: 00656475
      84:	65746100 			@ <UNDEFINED> instruction: 65746100
      88:	2e746978 			@ <UNDEFINED> instruction: 2e746978
      8c:	00010063 			@ <UNDEFINED> instruction: 00010063
      90:	65746100 			@ <UNDEFINED> instruction: 65746100
      94:	2e746978 			@ <UNDEFINED> instruction: 2e746978
      98:	00010068 			@ <UNDEFINED> instruction: 00010068
      9c:	64747300 			@ <UNDEFINED> instruction: 64747300
      a0:	2e62696c 			@ <UNDEFINED> instruction: 2e62696c
      a4:	00020068 			@ <UNDEFINED> instruction: 00020068
      a8:	01050000 			@ <UNDEFINED> instruction: 01050000
      ac:	08020500 			@ <UNDEFINED> instruction: 08020500
      b0:	03000002 	movweq	r0, #2
      b4:	03050138 	movweq	r0, #20792	@ 0x5138
      b8:	060a0513 			@ <UNDEFINED> instruction: 060a0513
      bc:	1f010501 			@ <UNDEFINED> instruction: 1f010501
      c0:	2e210a05 	vmulcs.f32	s0, s2, s10
      c4:	0101002e 			@ <UNDEFINED> instruction: 0101002e
      c8:	00000124 			@ <UNDEFINED> instruction: 00000124
      cc:	00e20003 			@ <UNDEFINED> instruction: 00e20003
      d0:	01020000 			@ <UNDEFINED> instruction: 01020000
      d4:	000d0efb 	strdeq	r0, [sp], -fp
      d8:	01010101 			@ <UNDEFINED> instruction: 01010101
      dc:	01000000 			@ <UNDEFINED> instruction: 01000000
      e0:	43010000 	movwmi	r0, #4096	@ 0x1000
      e4:	2f4d2f3a 			@ <UNDEFINED> instruction: 2f4d2f3a
      e8:	72732f42 			@ <UNDEFINED> instruction: 72732f42
      ec:	656e2f63 			@ <UNDEFINED> instruction: 656e2f63
      f0:	62696c77 			@ <UNDEFINED> instruction: 62696c77
      f4:	352e342d 			@ <UNDEFINED> instruction: 352e342d
      f8:	322e302e 			@ <UNDEFINED> instruction: 322e302e
      fc:	31343230 			@ <UNDEFINED> instruction: 31343230
     100:	2f313332 			@ <UNDEFINED> instruction: 2f313332
     104:	6c77656e 			@ <UNDEFINED> instruction: 6c77656e
     108:	6c2f6269 			@ <UNDEFINED> instruction: 6c2f6269
     10c:	2f636269 			@ <UNDEFINED> instruction: 2f636269
     110:	6c647473 			@ <UNDEFINED> instruction: 6c647473
     114:	43006269 	movwmi	r6, #617	@ 0x269
     118:	2f4d2f3a 			@ <UNDEFINED> instruction: 2f4d2f3a
     11c:	72732f42 			@ <UNDEFINED> instruction: 72732f42
     120:	656e2f63 			@ <UNDEFINED> instruction: 656e2f63
     124:	62696c77 			@ <UNDEFINED> instruction: 62696c77
     128:	352e342d 			@ <UNDEFINED> instruction: 352e342d
     12c:	322e302e 			@ <UNDEFINED> instruction: 322e302e
     130:	31343230 			@ <UNDEFINED> instruction: 31343230
     134:	2f313332 			@ <UNDEFINED> instruction: 2f313332
     138:	6c77656e 			@ <UNDEFINED> instruction: 6c77656e
     13c:	6c2f6269 			@ <UNDEFINED> instruction: 6c2f6269
     140:	2f636269 			@ <UNDEFINED> instruction: 2f636269
     144:	6c636e69 			@ <UNDEFINED> instruction: 6c636e69
     148:	2f656475 			@ <UNDEFINED> instruction: 2f656475
     14c:	00737973 			@ <UNDEFINED> instruction: 00737973
     150:	4d2f3a43 	vstmdbmi	pc!, {s6-s72}
     154:	732f422f 			@ <UNDEFINED> instruction: 732f422f
     158:	6e2f6372 			@ <UNDEFINED> instruction: 6e2f6372
     15c:	696c7765 			@ <UNDEFINED> instruction: 696c7765
     160:	2e342d62 			@ <UNDEFINED> instruction: 2e342d62
     164:	2e302e35 			@ <UNDEFINED> instruction: 2e302e35
     168:	34323032 			@ <UNDEFINED> instruction: 34323032
     16c:	31333231 			@ <UNDEFINED> instruction: 31333231
     170:	77656e2f 			@ <UNDEFINED> instruction: 77656e2f
     174:	2f62696c 			@ <UNDEFINED> instruction: 2f62696c
     178:	6362696c 			@ <UNDEFINED> instruction: 6362696c
     17c:	636e692f 			@ <UNDEFINED> instruction: 636e692f
     180:	6564756c 			@ <UNDEFINED> instruction: 6564756c
     184:	78650000 			@ <UNDEFINED> instruction: 78650000
     188:	632e7469 			@ <UNDEFINED> instruction: 632e7469
     18c:	00000100 			@ <UNDEFINED> instruction: 00000100
     190:	6e656572 			@ <UNDEFINED> instruction: 6e656572
     194:	00682e74 			@ <UNDEFINED> instruction: 00682e74
     198:	75000002 			@ <UNDEFINED> instruction: 75000002
     19c:	7473696e 			@ <UNDEFINED> instruction: 7473696e
     1a0:	00682e64 			@ <UNDEFINED> instruction: 00682e64
     1a4:	73000002 	movwvc	r0, #2
     1a8:	696c6474 			@ <UNDEFINED> instruction: 696c6474
     1ac:	00682e62 			@ <UNDEFINED> instruction: 00682e62
     1b0:	00000003 			@ <UNDEFINED> instruction: 00000003
     1b4:	05000105 			@ <UNDEFINED> instruction: 05000105
     1b8:	00021402 			@ <UNDEFINED> instruction: 00021402
     1bc:	01350300 			@ <UNDEFINED> instruction: 01350300
     1c0:	13150305 			@ <UNDEFINED> instruction: 13150305
     1c4:	0e060105 			@ <UNDEFINED> instruction: 0e060105
     1c8:	05240605 			@ <UNDEFINED> instruction: 05240605
     1cc:	06051c01 			@ <UNDEFINED> instruction: 06051c01
     1d0:	06050524 			@ <UNDEFINED> instruction: 06050524
     1d4:	3e030522 			@ <UNDEFINED> instruction: 3e030522
     1d8:	01061c05 			@ <UNDEFINED> instruction: 01061c05
     1dc:	052e0605 			@ <UNDEFINED> instruction: 052e0605
     1e0:	05210605 			@ <UNDEFINED> instruction: 05210605
     1e4:	05010606 			@ <UNDEFINED> instruction: 05010606
     1e8:	02220603 			@ <UNDEFINED> instruction: 02220603
     1ec:	01010007 			@ <UNDEFINED> instruction: 01010007
     1f0:	00000669 			@ <UNDEFINED> instruction: 00000669
     1f4:	01540003 			@ <UNDEFINED> instruction: 01540003
     1f8:	01020000 			@ <UNDEFINED> instruction: 01020000
     1fc:	000d0efb 	strdeq	r0, [sp], -fp
     200:	01010101 			@ <UNDEFINED> instruction: 01010101
     204:	01000000 			@ <UNDEFINED> instruction: 01000000
     208:	43010000 	movwmi	r0, #4096	@ 0x1000
     20c:	2f4d2f3a 			@ <UNDEFINED> instruction: 2f4d2f3a
     210:	72732f42 			@ <UNDEFINED> instruction: 72732f42
     214:	656e2f63 			@ <UNDEFINED> instruction: 656e2f63
     218:	62696c77 			@ <UNDEFINED> instruction: 62696c77
     21c:	352e342d 			@ <UNDEFINED> instruction: 352e342d
     220:	322e302e 			@ <UNDEFINED> instruction: 322e302e
     224:	31343230 			@ <UNDEFINED> instruction: 31343230
     228:	2f313332 			@ <UNDEFINED> instruction: 2f313332
     22c:	6c77656e 			@ <UNDEFINED> instruction: 6c77656e
     230:	6c2f6269 			@ <UNDEFINED> instruction: 6c2f6269
     234:	2f636269 			@ <UNDEFINED> instruction: 2f636269
     238:	69647473 			@ <UNDEFINED> instruction: 69647473
     23c:	3a44006f 			@ <UNDEFINED> instruction: 3a44006f
     240:	6d2f612f 			@ <UNDEFINED> instruction: 6d2f612f
     244:	36737973 			@ <UNDEFINED> instruction: 36737973
     248:	696d2f34 			@ <UNDEFINED> instruction: 696d2f34
     24c:	3677676e 			@ <UNDEFINED> instruction: 3677676e
     250:	696c2f34 			@ <UNDEFINED> instruction: 696c2f34
     254:	63672f62 			@ <UNDEFINED> instruction: 63672f62
     258:	72612f63 			@ <UNDEFINED> instruction: 72612f63
     25c:	6f6e2d6d 			@ <UNDEFINED> instruction: 6f6e2d6d
     260:	652d656e 			@ <UNDEFINED> instruction: 652d656e
     264:	2f696261 			@ <UNDEFINED> instruction: 2f696261
     268:	332e3331 			@ <UNDEFINED> instruction: 332e3331
     26c:	692f302e 			@ <UNDEFINED> instruction: 692f302e
     270:	756c636e 			@ <UNDEFINED> instruction: 756c636e
     274:	43006564 	movwmi	r6, #1380	@ 0x564
     278:	2f4d2f3a 			@ <UNDEFINED> instruction: 2f4d2f3a
     27c:	72732f42 			@ <UNDEFINED> instruction: 72732f42
     280:	656e2f63 			@ <UNDEFINED> instruction: 656e2f63
     284:	62696c77 			@ <UNDEFINED> instruction: 62696c77
     288:	352e342d 			@ <UNDEFINED> instruction: 352e342d
     28c:	322e302e 			@ <UNDEFINED> instruction: 322e302e
     290:	31343230 			@ <UNDEFINED> instruction: 31343230
     294:	2f313332 			@ <UNDEFINED> instruction: 2f313332
     298:	6c77656e 			@ <UNDEFINED> instruction: 6c77656e
     29c:	6c2f6269 			@ <UNDEFINED> instruction: 6c2f6269
     2a0:	2f636269 			@ <UNDEFINED> instruction: 2f636269
     2a4:	6c636e69 			@ <UNDEFINED> instruction: 6c636e69
     2a8:	2f656475 			@ <UNDEFINED> instruction: 2f656475
     2ac:	00737973 			@ <UNDEFINED> instruction: 00737973
     2b0:	4d2f3a43 	vstmdbmi	pc!, {s6-s72}
     2b4:	732f422f 			@ <UNDEFINED> instruction: 732f422f
     2b8:	6e2f6372 			@ <UNDEFINED> instruction: 6e2f6372
     2bc:	696c7765 			@ <UNDEFINED> instruction: 696c7765
     2c0:	2e342d62 			@ <UNDEFINED> instruction: 2e342d62
     2c4:	2e302e35 			@ <UNDEFINED> instruction: 2e302e35
     2c8:	34323032 			@ <UNDEFINED> instruction: 34323032
     2cc:	31333231 			@ <UNDEFINED> instruction: 31333231
     2d0:	77656e2f 			@ <UNDEFINED> instruction: 77656e2f
     2d4:	2f62696c 			@ <UNDEFINED> instruction: 2f62696c
     2d8:	6362696c 			@ <UNDEFINED> instruction: 6362696c
     2dc:	636e692f 			@ <UNDEFINED> instruction: 636e692f
     2e0:	6564756c 			@ <UNDEFINED> instruction: 6564756c
     2e4:	69660000 			@ <UNDEFINED> instruction: 69660000
     2e8:	7066646e 			@ <UNDEFINED> instruction: 7066646e
     2ec:	0100632e 			@ <UNDEFINED> instruction: 0100632e
     2f0:	74730000 			@ <UNDEFINED> instruction: 74730000
     2f4:	66656464 			@ <UNDEFINED> instruction: 66656464
     2f8:	0200682e 			@ <UNDEFINED> instruction: 0200682e
     2fc:	745f0000 			@ <UNDEFINED> instruction: 745f0000
     300:	73657079 			@ <UNDEFINED> instruction: 73657079
     304:	0300682e 	movweq	r6, #2094	@ 0x82e
     308:	65720000 			@ <UNDEFINED> instruction: 65720000
     30c:	2e746e65 			@ <UNDEFINED> instruction: 2e746e65
     310:	00030068 			@ <UNDEFINED> instruction: 00030068
     314:	636f6c00 			@ <UNDEFINED> instruction: 636f6c00
     318:	00682e6b 			@ <UNDEFINED> instruction: 00682e6b
     31c:	73000003 	movwvc	r0, #3
     320:	6f696474 			@ <UNDEFINED> instruction: 6f696474
     324:	0400682e 			@ <UNDEFINED> instruction: 0400682e
     328:	6f6c0000 			@ <UNDEFINED> instruction: 6f6c0000
     32c:	2e6c6163 			@ <UNDEFINED> instruction: 2e6c6163
     330:	00010068 			@ <UNDEFINED> instruction: 00010068
     334:	64747300 			@ <UNDEFINED> instruction: 64747300
     338:	2e62696c 			@ <UNDEFINED> instruction: 2e62696c
     33c:	00040068 			@ <UNDEFINED> instruction: 00040068
     340:	72747300 			@ <UNDEFINED> instruction: 72747300
     344:	2e676e69 			@ <UNDEFINED> instruction: 2e676e69
     348:	00040068 			@ <UNDEFINED> instruction: 00040068
     34c:	01050000 			@ <UNDEFINED> instruction: 01050000
     350:	00020500 			@ <UNDEFINED> instruction: 00020500
     354:	03000000 	movweq	r0, #0
     358:	05010199 			@ <UNDEFINED> instruction: 05010199
     35c:	0a051303 			@ <UNDEFINED> instruction: 0a051303
     360:	01050106 			@ <UNDEFINED> instruction: 01050106
     364:	02050006 			@ <UNDEFINED> instruction: 02050006
     368:	00000000 			@ <UNDEFINED> instruction: 00000000
     36c:	0100cc03 			@ <UNDEFINED> instruction: 0100cc03
     370:	05130305 			@ <UNDEFINED> instruction: 05130305
     374:	05010606 			@ <UNDEFINED> instruction: 05010606
     378:	06052007 			@ <UNDEFINED> instruction: 06052007
     37c:	1f010520 			@ <UNDEFINED> instruction: 1f010520
     380:	21060520 			@ <UNDEFINED> instruction: 21060520
     384:	21060505 			@ <UNDEFINED> instruction: 21060505
     388:	052f0305 			@ <UNDEFINED> instruction: 052f0305
     38c:	05010607 			@ <UNDEFINED> instruction: 05010607
     390:	05052006 			@ <UNDEFINED> instruction: 05052006
     394:	03053d06 	movweq	r3, #23814	@ 0x5d06
     398:	0607053d 			@ <UNDEFINED> instruction: 0607053d
     39c:	20060501 			@ <UNDEFINED> instruction: 20060501
     3a0:	3d060505 			@ <UNDEFINED> instruction: 3d060505
     3a4:	21060105 			@ <UNDEFINED> instruction: 21060105
     3a8:	052d0505 			@ <UNDEFINED> instruction: 052d0505
     3ac:	06202f01 			@ <UNDEFINED> instruction: 06202f01
     3b0:	00020500 			@ <UNDEFINED> instruction: 00020500
     3b4:	03000000 	movweq	r0, #0
     3b8:	0305012b 	movweq	r0, #20779	@ 0x512b
     3bc:	06010513 			@ <UNDEFINED> instruction: 06010513
     3c0:	21150511 			@ <UNDEFINED> instruction: 21150511
     3c4:	05200605 			@ <UNDEFINED> instruction: 05200605
     3c8:	052c0601 			@ <UNDEFINED> instruction: 052c0601
     3cc:	3c061505 			@ <UNDEFINED> instruction: 3c061505
     3d0:	14060305 			@ <UNDEFINED> instruction: 14060305
     3d4:	13060105 	movwne	r0, #24837	@ 0x6105
     3d8:	00050520 			@ <UNDEFINED> instruction: 00050520
     3dc:	1d010402 			@ <UNDEFINED> instruction: 1d010402
     3e0:	01040200 			@ <UNDEFINED> instruction: 01040200
     3e4:	04020020 			@ <UNDEFINED> instruction: 04020020
     3e8:	03052e01 	movweq	r2, #24065	@ 0x5e01
     3ec:	01051406 			@ <UNDEFINED> instruction: 01051406
     3f0:	00061306 			@ <UNDEFINED> instruction: 00061306
     3f4:	00000205 			@ <UNDEFINED> instruction: 00000205
     3f8:	05170000 			@ <UNDEFINED> instruction: 05170000
     3fc:	01051303 			@ <UNDEFINED> instruction: 01051303
     400:	15051106 			@ <UNDEFINED> instruction: 15051106
     404:	20060521 			@ <UNDEFINED> instruction: 20060521
     408:	2c060105 			@ <UNDEFINED> instruction: 2c060105
     40c:	06150505 			@ <UNDEFINED> instruction: 06150505
     410:	0603053c 			@ <UNDEFINED> instruction: 0603053c
     414:	06010514 			@ <UNDEFINED> instruction: 06010514
     418:	05052013 			@ <UNDEFINED> instruction: 05052013
     41c:	01040200 			@ <UNDEFINED> instruction: 01040200
     420:	0402001d 			@ <UNDEFINED> instruction: 0402001d
     424:	02002001 			@ <UNDEFINED> instruction: 02002001
     428:	052e0104 			@ <UNDEFINED> instruction: 052e0104
     42c:	05140603 			@ <UNDEFINED> instruction: 05140603
     430:	06130601 			@ <UNDEFINED> instruction: 06130601
     434:	00020500 			@ <UNDEFINED> instruction: 00020500
     438:	03000000 	movweq	r0, #0
     43c:	05017ef7 			@ <UNDEFINED> instruction: 05017ef7
     440:	01051505 			@ <UNDEFINED> instruction: 01051505
     444:	1a050f06 			@ <UNDEFINED> instruction: 1a050f06
     448:	030e0531 	movweq	r0, #58673	@ 0xe531
     44c:	052e7fab 			@ <UNDEFINED> instruction: 052e7fab
     450:	0e05300f 			@ <UNDEFINED> instruction: 0e05300f
     454:	031a0534 			@ <UNDEFINED> instruction: 031a0534
     458:	052000cd 			@ <UNDEFINED> instruction: 052000cd
     45c:	052f0605 			@ <UNDEFINED> instruction: 052f0605
     460:	01430301 			@ <UNDEFINED> instruction: 01430301
     464:	05140305 			@ <UNDEFINED> instruction: 05140305
     468:	01560301 			@ <UNDEFINED> instruction: 01560301
     46c:	05160305 			@ <UNDEFINED> instruction: 05160305
     470:	0501060b 			@ <UNDEFINED> instruction: 0501060b
     474:	0305230f 	movweq	r2, #21263	@ 0x530f
     478:	030f0526 	movweq	r0, #62758	@ 0xf526
     47c:	6e034a0c 	vmlavs.f32	s8, s6, s24
     480:	1e0b0520 			@ <UNDEFINED> instruction: 1e0b0520
     484:	2f060305 			@ <UNDEFINED> instruction: 2f060305
     488:	17061205 			@ <UNDEFINED> instruction: 17061205
     48c:	05290b05 			@ <UNDEFINED> instruction: 05290b05
     490:	13210603 			@ <UNDEFINED> instruction: 13210603
     494:	01061005 			@ <UNDEFINED> instruction: 01061005
     498:	21060305 			@ <UNDEFINED> instruction: 21060305
     49c:	11051413 			@ <UNDEFINED> instruction: 11051413
     4a0:	03050106 	movweq	r0, #20742	@ 0x5106
     4a4:	052f2106 			@ <UNDEFINED> instruction: 052f2106
     4a8:	11030605 			@ <UNDEFINED> instruction: 11030605
     4ac:	030e0501 	movweq	r0, #58625	@ 0xe501
     4b0:	03052e70 	movweq	r2, #24176	@ 0x5e70
     4b4:	0e053006 			@ <UNDEFINED> instruction: 0e053006
     4b8:	03051806 	movweq	r1, #22534	@ 0x5806
     4bc:	0f053006 			@ <UNDEFINED> instruction: 0f053006
     4c0:	03050106 	movweq	r0, #20742	@ 0x5106
     4c4:	05052506 			@ <UNDEFINED> instruction: 05052506
     4c8:	062e0613 			@ <UNDEFINED> instruction: 062e0613
     4cc:	0100c703 			@ <UNDEFINED> instruction: 0100c703
     4d0:	48030105 			@ <UNDEFINED> instruction: 48030105
     4d4:	03030501 	movweq	r0, #13569	@ 0x3501
     4d8:	0105010b 			@ <UNDEFINED> instruction: 0105010b
     4dc:	05014703 			@ <UNDEFINED> instruction: 05014703
     4e0:	03061603 	movweq	r1, #26115	@ 0x6603
     4e4:	0f050109 			@ <UNDEFINED> instruction: 0f050109
     4e8:	05207a03 			@ <UNDEFINED> instruction: 05207a03
     4ec:	0b053403 			@ <UNDEFINED> instruction: 0b053403
     4f0:	053c7803 			@ <UNDEFINED> instruction: 053c7803
     4f4:	052f0603 			@ <UNDEFINED> instruction: 052f0603
     4f8:	05170612 			@ <UNDEFINED> instruction: 05170612
     4fc:	0305290b 	movweq	r2, #22795	@ 0x590b
     500:	05132106 			@ <UNDEFINED> instruction: 05132106
     504:	05010610 			@ <UNDEFINED> instruction: 05010610
     508:	132f0603 			@ <UNDEFINED> instruction: 132f0603
     50c:	05131313 			@ <UNDEFINED> instruction: 05131313
     510:	05110611 			@ <UNDEFINED> instruction: 05110611
     514:	2f062f03 			@ <UNDEFINED> instruction: 2f062f03
     518:	01061005 			@ <UNDEFINED> instruction: 01061005
     51c:	11030505 			@ <UNDEFINED> instruction: 11030505
     520:	0310052e 			@ <UNDEFINED> instruction: 0310052e
     524:	03052e6f 	movweq	r2, #24175	@ 0x5e6f
     528:	18142f06 			@ <UNDEFINED> instruction: 18142f06
     52c:	05051714 			@ <UNDEFINED> instruction: 05051714
     530:	060f0513 			@ <UNDEFINED> instruction: 060f0513
     534:	36017203 			@ <UNDEFINED> instruction: 36017203
     538:	2e340505 			@ <UNDEFINED> instruction: 2e340505
     53c:	00c80306 			@ <UNDEFINED> instruction: 00c80306
     540:	03010501 	movweq	r0, #5377	@ 0x1501
     544:	03050157 	movweq	r0, #20823	@ 0x5157
     548:	03010516 	movweq	r0, #5398	@ 0x1516
     54c:	05017fbe 			@ <UNDEFINED> instruction: 05017fbe
     550:	0f051603 			@ <UNDEFINED> instruction: 0f051603
     554:	03051506 	movweq	r1, #21766	@ 0x5506
     558:	030b0542 	movweq	r0, #46402	@ 0xb542
     55c:	03054a78 	movweq	r4, #23160	@ 0x5a78
     560:	12052f06 			@ <UNDEFINED> instruction: 12052f06
     564:	0b051706 			@ <UNDEFINED> instruction: 0b051706
     568:	06030529 			@ <UNDEFINED> instruction: 06030529
     56c:	1005132f 			@ <UNDEFINED> instruction: 1005132f
     570:	03050106 	movweq	r0, #20742	@ 0x5106
     574:	13132f06 			@ <UNDEFINED> instruction: 13132f06
     578:	11051313 			@ <UNDEFINED> instruction: 11051313
     57c:	03051106 	movweq	r1, #20742	@ 0x5106
     580:	052f062f 			@ <UNDEFINED> instruction: 052f062f
     584:	05010610 			@ <UNDEFINED> instruction: 05010610
     588:	2e09030e 			@ <UNDEFINED> instruction: 2e09030e
     58c:	052e7803 			@ <UNDEFINED> instruction: 052e7803
     590:	2e100305 			@ <UNDEFINED> instruction: 2e100305
     594:	7a030f05 			@ <UNDEFINED> instruction: 7a030f05
     598:	0310052e 			@ <UNDEFINED> instruction: 0310052e
     59c:	03052e75 	movweq	r2, #24181	@ 0x5e75
     5a0:	18142f06 			@ <UNDEFINED> instruction: 18142f06
     5a4:	05051714 			@ <UNDEFINED> instruction: 05051714
     5a8:	06010513 			@ <UNDEFINED> instruction: 06010513
     5ac:	0100ca03 			@ <UNDEFINED> instruction: 0100ca03
     5b0:	b6030505 			@ <UNDEFINED> instruction: b6030505
     5b4:	01052e7f 			@ <UNDEFINED> instruction: 01052e7f
     5b8:	02050006 			@ <UNDEFINED> instruction: 02050006
     5bc:	00000000 			@ <UNDEFINED> instruction: 00000000
     5c0:	0100d203 			@ <UNDEFINED> instruction: 0100d203
     5c4:	13130305 			@ <UNDEFINED> instruction: 13130305
     5c8:	01051413 			@ <UNDEFINED> instruction: 01051413
     5cc:	0100d703 			@ <UNDEFINED> instruction: 0100d703
     5d0:	05140305 			@ <UNDEFINED> instruction: 05140305
     5d4:	a2030601 			@ <UNDEFINED> instruction: a2030601
     5d8:	0520017f 			@ <UNDEFINED> instruction: 0520017f
     5dc:	00de0303 			@ <UNDEFINED> instruction: 00de0303
     5e0:	03062020 	movweq	r2, #24608	@ 0x6020
     5e4:	052e7fa8 			@ <UNDEFINED> instruction: 052e7fa8
     5e8:	016a0301 			@ <UNDEFINED> instruction: 016a0301
     5ec:	05140305 			@ <UNDEFINED> instruction: 05140305
     5f0:	0501061c 			@ <UNDEFINED> instruction: 0501061c
     5f4:	01052006 			@ <UNDEFINED> instruction: 01052006
     5f8:	054a0e03 			@ <UNDEFINED> instruction: 054a0e03
     5fc:	0a030607 			@ <UNDEFINED> instruction: 0a030607
     600:	060f0520 			@ <UNDEFINED> instruction: 060f0520
     604:	002e0501 			@ <UNDEFINED> instruction: 002e0501
     608:	06010402 			@ <UNDEFINED> instruction: 06010402
     60c:	0402002e 			@ <UNDEFINED> instruction: 0402002e
     610:	00010601 			@ <UNDEFINED> instruction: 00010601
     614:	20010402 			@ <UNDEFINED> instruction: 20010402
     618:	01040200 			@ <UNDEFINED> instruction: 01040200
     61c:	0036052e 			@ <UNDEFINED> instruction: 0036052e
     620:	20020402 			@ <UNDEFINED> instruction: 20020402
     624:	02002e05 			@ <UNDEFINED> instruction: 02002e05
     628:	2e060104 			@ <UNDEFINED> instruction: 2e060104
     62c:	01040200 			@ <UNDEFINED> instruction: 01040200
     630:	02050106 			@ <UNDEFINED> instruction: 02050106
     634:	36052106 			@ <UNDEFINED> instruction: 36052106
     638:	02040200 			@ <UNDEFINED> instruction: 02040200
     63c:	06050511 			@ <UNDEFINED> instruction: 06050511
     640:	002e0513 			@ <UNDEFINED> instruction: 002e0513
     644:	2d010402 			@ <UNDEFINED> instruction: 2d010402
     648:	05210505 			@ <UNDEFINED> instruction: 05210505
     64c:	052f0604 			@ <UNDEFINED> instruction: 052f0604
     650:	010a0303 			@ <UNDEFINED> instruction: 010a0303
     654:	060e0513 			@ <UNDEFINED> instruction: 060e0513
     658:	03052001 	movweq	r2, #20481	@ 0x5001
     65c:	14062106 			@ <UNDEFINED> instruction: 14062106
     660:	052c0f05 			@ <UNDEFINED> instruction: 052c0f05
     664:	30220603 			@ <UNDEFINED> instruction: 30220603
     668:	c6030105 			@ <UNDEFINED> instruction: c6030105
     66c:	03050100 	movweq	r0, #20736	@ 0x5100
     670:	001a0514 			@ <UNDEFINED> instruction: 001a0514
     674:	03010402 	movweq	r0, #5122	@ 0x1402
     678:	053c7fb8 			@ <UNDEFINED> instruction: 053c7fb8
     67c:	0a051403 			@ <UNDEFINED> instruction: 0a051403
     680:	11051406 			@ <UNDEFINED> instruction: 11051406
     684:	30030530 			@ <UNDEFINED> instruction: 30030530
     688:	7a030a05 			@ <UNDEFINED> instruction: 7a030a05
     68c:	06030520 			@ <UNDEFINED> instruction: 06030520
     690:	05141421 			@ <UNDEFINED> instruction: 05141421
     694:	05010610 			@ <UNDEFINED> instruction: 05010610
     698:	5a210603 			@ <UNDEFINED> instruction: 5a210603
     69c:	13061105 	movwne	r1, #24837	@ 0x6105
     6a0:	2f060305 			@ <UNDEFINED> instruction: 2f060305
     6a4:	13061105 	movwne	r1, #24837	@ 0x6105
     6a8:	30060305 			@ <UNDEFINED> instruction: 30060305
     6ac:	13060105 	movwne	r0, #24837	@ 0x6105
     6b0:	03060705 	movweq	r0, #26373	@ 0x6705
     6b4:	0c052e61 			@ <UNDEFINED> instruction: 0c052e61
     6b8:	0a050106 			@ <UNDEFINED> instruction: 0a050106
     6bc:	06190520 			@ <UNDEFINED> instruction: 06190520
     6c0:	0103051b 			@ <UNDEFINED> instruction: 0103051b
     6c4:	01061905 			@ <UNDEFINED> instruction: 01061905
     6c8:	06010522 			@ <UNDEFINED> instruction: 06010522
     6cc:	05205003 			@ <UNDEFINED> instruction: 05205003
     6d0:	05141403 			@ <UNDEFINED> instruction: 05141403
     6d4:	05130605 			@ <UNDEFINED> instruction: 05130605
     6d8:	05590603 			@ <UNDEFINED> instruction: 05590603
     6dc:	20010606 			@ <UNDEFINED> instruction: 20010606
     6e0:	22060305 			@ <UNDEFINED> instruction: 22060305
     6e4:	13061205 	movwne	r1, #25093	@ 0x6205
     6e8:	3d060305 			@ <UNDEFINED> instruction: 3d060305
     6ec:	01061305 			@ <UNDEFINED> instruction: 01061305
     6f0:	05210305 			@ <UNDEFINED> instruction: 05210305
     6f4:	03051f11 	movweq	r1, #24337	@ 0x5f11
     6f8:	0a052106 			@ <UNDEFINED> instruction: 0a052106
     6fc:	03052f06 	movweq	r2, #24326	@ 0x5f06
     700:	062f061f 			@ <UNDEFINED> instruction: 062f061f
     704:	000e0501 			@ <UNDEFINED> instruction: 000e0501
     708:	03010402 	movweq	r0, #5122	@ 0x1402
     70c:	19050128 			@ <UNDEFINED> instruction: 19050128
     710:	207a0306 			@ <UNDEFINED> instruction: 207a0306
     714:	05010305 			@ <UNDEFINED> instruction: 05010305
     718:	2e010619 			@ <UNDEFINED> instruction: 2e010619
     71c:	0303053c 	movweq	r0, #13628	@ 0x353c
     720:	050100dc 			@ <UNDEFINED> instruction: 050100dc
     724:	0402000e 			@ <UNDEFINED> instruction: 0402000e
     728:	7faa0301 			@ <UNDEFINED> instruction: 7faa0301
     72c:	06030520 			@ <UNDEFINED> instruction: 06030520
     730:	03010523 	movweq	r0, #5411	@ 0x1523
     734:	050100d1 			@ <UNDEFINED> instruction: 050100d1
     738:	1b051403 			@ <UNDEFINED> instruction: 1b051403
     73c:	01040200 			@ <UNDEFINED> instruction: 01040200
     740:	2e7fad03 			@ <UNDEFINED> instruction: 2e7fad03
     744:	05130305 			@ <UNDEFINED> instruction: 05130305
     748:	05010613 			@ <UNDEFINED> instruction: 05010613
     74c:	052f0603 			@ <UNDEFINED> instruction: 052f0603
     750:	0501060a 			@ <UNDEFINED> instruction: 0501060a
     754:	05000601 			@ <UNDEFINED> instruction: 05000601
     758:	00000002 			@ <UNDEFINED> instruction: 00000002
     75c:	01340300 			@ <UNDEFINED> instruction: 01340300
     760:	05130305 			@ <UNDEFINED> instruction: 05130305
     764:	01140301 			@ <UNDEFINED> instruction: 01140301
     768:	05140305 			@ <UNDEFINED> instruction: 05140305
     76c:	69030601 			@ <UNDEFINED> instruction: 69030601
     770:	03052001 	movweq	r2, #20481	@ 0x5001
     774:	20201703 			@ <UNDEFINED> instruction: 20201703
     778:	2e6c0306 			@ <UNDEFINED> instruction: 2e6c0306
     77c:	01060605 			@ <UNDEFINED> instruction: 01060605
     780:	35060305 			@ <UNDEFINED> instruction: 35060305
     784:	03061c05 	movweq	r1, #27653	@ 0x6c05
     788:	05017fa1 			@ <UNDEFINED> instruction: 05017fa1
     78c:	00df0315 			@ <UNDEFINED> instruction: 00df0315
     790:	03060520 	movweq	r0, #25888	@ 0x6520
     794:	05207fa1 			@ <UNDEFINED> instruction: 05207fa1
     798:	00df0315 			@ <UNDEFINED> instruction: 00df0315
     79c:	0603052e 			@ <UNDEFINED> instruction: 0603052e
     7a0:	03010522 	movweq	r0, #5410	@ 0x1522
     7a4:	05017f9d 			@ <UNDEFINED> instruction: 05017f9d
     7a8:	06051403 			@ <UNDEFINED> instruction: 06051403
     7ac:	07050106 			@ <UNDEFINED> instruction: 07050106
     7b0:	00da0306 			@ <UNDEFINED> instruction: 00da0306
     7b4:	03010520 	movweq	r0, #5408	@ 0x1520
     7b8:	03050116 	movweq	r0, #20758	@ 0x5116
     7bc:	06010514 			@ <UNDEFINED> instruction: 06010514
     7c0:	05017103 			@ <UNDEFINED> instruction: 05017103
     7c4:	2e0f0303 			@ <UNDEFINED> instruction: 2e0f0303
     7c8:	0607053c 			@ <UNDEFINED> instruction: 0607053c
     7cc:	052e6803 			@ <UNDEFINED> instruction: 052e6803
     7d0:	01160301 			@ <UNDEFINED> instruction: 01160301
     7d4:	05140305 			@ <UNDEFINED> instruction: 05140305
     7d8:	71030601 			@ <UNDEFINED> instruction: 71030601
     7dc:	03030501 	movweq	r0, #13569	@ 0x3501
     7e0:	01052e0f 			@ <UNDEFINED> instruction: 01052e0f
     7e4:	02050006 			@ <UNDEFINED> instruction: 02050006
     7e8:	00000000 			@ <UNDEFINED> instruction: 00000000
     7ec:	05017903 			@ <UNDEFINED> instruction: 05017903
     7f0:	01051303 			@ <UNDEFINED> instruction: 01051303
     7f4:	00020500 			@ <UNDEFINED> instruction: 00020500
     7f8:	17000000 			@ <UNDEFINED> instruction: 17000000
     7fc:	05130305 			@ <UNDEFINED> instruction: 05130305
     800:	02050001 			@ <UNDEFINED> instruction: 02050001
     804:	00000000 			@ <UNDEFINED> instruction: 00000000
     808:	05011903 			@ <UNDEFINED> instruction: 05011903
     80c:	01051303 			@ <UNDEFINED> instruction: 01051303
     810:	05015e03 			@ <UNDEFINED> instruction: 05015e03
     814:	01051403 			@ <UNDEFINED> instruction: 01051403
     818:	011f0306 			@ <UNDEFINED> instruction: 011f0306
     81c:	61030305 			@ <UNDEFINED> instruction: 61030305
     820:	21030620 			@ <UNDEFINED> instruction: 21030620
     824:	0601053c 			@ <UNDEFINED> instruction: 0601053c
     828:	2d0a0513 			@ <UNDEFINED> instruction: 2d0a0513
     82c:	00060105 			@ <UNDEFINED> instruction: 00060105
     830:	00000205 			@ <UNDEFINED> instruction: 00000205
     834:	05170000 			@ <UNDEFINED> instruction: 05170000
     838:	01051303 			@ <UNDEFINED> instruction: 01051303
     83c:	0a051106 			@ <UNDEFINED> instruction: 0a051106
     840:	06030521 			@ <UNDEFINED> instruction: 06030521
     844:	03010559 	movweq	r0, #5465	@ 0x1559
     848:	0305015c 	movweq	r0, #20828	@ 0x515c
     84c:	06010514 			@ <UNDEFINED> instruction: 06010514
     850:	05012303 			@ <UNDEFINED> instruction: 05012303
     854:	2e5d0303 			@ <UNDEFINED> instruction: 2e5d0303
     858:	01000a02 			@ <UNDEFINED> instruction: 01000a02
     85c:	0001c601 			@ <UNDEFINED> instruction: 0001c601
     860:	d9000300 			@ <UNDEFINED> instruction: d9000300
     864:	02000000 			@ <UNDEFINED> instruction: 02000000
     868:	0d0efb01 	vstreq	d15, [lr, #-4]
     86c:	01010100 			@ <UNDEFINED> instruction: 01010100
     870:	00000001 			@ <UNDEFINED> instruction: 00000001
     874:	01000001 			@ <UNDEFINED> instruction: 01000001
     878:	4d2f3a43 	vstmdbmi	pc!, {s6-s72}
     87c:	732f422f 			@ <UNDEFINED> instruction: 732f422f
     880:	6e2f6372 			@ <UNDEFINED> instruction: 6e2f6372
     884:	696c7765 			@ <UNDEFINED> instruction: 696c7765
     888:	2e342d62 			@ <UNDEFINED> instruction: 2e342d62
     88c:	2e302e35 			@ <UNDEFINED> instruction: 2e302e35
     890:	34323032 			@ <UNDEFINED> instruction: 34323032
     894:	31333231 			@ <UNDEFINED> instruction: 31333231
     898:	77656e2f 			@ <UNDEFINED> instruction: 77656e2f
     89c:	2f62696c 			@ <UNDEFINED> instruction: 2f62696c
     8a0:	6362696c 			@ <UNDEFINED> instruction: 6362696c
     8a4:	7274732f 			@ <UNDEFINED> instruction: 7274732f
     8a8:	00676e69 			@ <UNDEFINED> instruction: 00676e69
     8ac:	612f3a44 			@ <UNDEFINED> instruction: 612f3a44
     8b0:	79736d2f 			@ <UNDEFINED> instruction: 79736d2f
     8b4:	2f343673 			@ <UNDEFINED> instruction: 2f343673
     8b8:	676e696d 			@ <UNDEFINED> instruction: 676e696d
     8bc:	2f343677 			@ <UNDEFINED> instruction: 2f343677
     8c0:	2f62696c 			@ <UNDEFINED> instruction: 2f62696c
     8c4:	2f636367 			@ <UNDEFINED> instruction: 2f636367
     8c8:	2d6d7261 			@ <UNDEFINED> instruction: 2d6d7261
     8cc:	656e6f6e 			@ <UNDEFINED> instruction: 656e6f6e
     8d0:	6261652d 			@ <UNDEFINED> instruction: 6261652d
     8d4:	33312f69 			@ <UNDEFINED> instruction: 33312f69
     8d8:	302e332e 			@ <UNDEFINED> instruction: 302e332e
     8dc:	636e692f 			@ <UNDEFINED> instruction: 636e692f
     8e0:	6564756c 			@ <UNDEFINED> instruction: 6564756c
     8e4:	2f3a4300 			@ <UNDEFINED> instruction: 2f3a4300
     8e8:	2f422f4d 			@ <UNDEFINED> instruction: 2f422f4d
     8ec:	2f637273 			@ <UNDEFINED> instruction: 2f637273
     8f0:	6c77656e 			@ <UNDEFINED> instruction: 6c77656e
     8f4:	342d6269 			@ <UNDEFINED> instruction: 342d6269
     8f8:	302e352e 			@ <UNDEFINED> instruction: 302e352e
     8fc:	3230322e 			@ <UNDEFINED> instruction: 3230322e
     900:	33323134 			@ <UNDEFINED> instruction: 33323134
     904:	656e2f31 			@ <UNDEFINED> instruction: 656e2f31
     908:	62696c77 			@ <UNDEFINED> instruction: 62696c77
     90c:	62696c2f 			@ <UNDEFINED> instruction: 62696c2f
     910:	6e692f63 			@ <UNDEFINED> instruction: 6e692f63
     914:	64756c63 			@ <UNDEFINED> instruction: 64756c63
     918:	6d000065 			@ <UNDEFINED> instruction: 6d000065
     91c:	65736d65 			@ <UNDEFINED> instruction: 65736d65
     920:	00632e74 			@ <UNDEFINED> instruction: 00632e74
     924:	73000001 	movwvc	r0, #1
     928:	65646474 			@ <UNDEFINED> instruction: 65646474
     92c:	00682e66 			@ <UNDEFINED> instruction: 00682e66
     930:	73000002 	movwvc	r0, #2
     934:	6e697274 			@ <UNDEFINED> instruction: 6e697274
     938:	00682e67 			@ <UNDEFINED> instruction: 00682e67
     93c:	00000003 			@ <UNDEFINED> instruction: 00000003
     940:	05000105 			@ <UNDEFINED> instruction: 05000105
     944:	00023802 			@ <UNDEFINED> instruction: 00023802
     948:	01280300 			@ <UNDEFINED> instruction: 01280300
     94c:	15130305 			@ <UNDEFINED> instruction: 15130305
     950:	15131313 			@ <UNDEFINED> instruction: 15131313
     954:	05010a05 			@ <UNDEFINED> instruction: 05010a05
     958:	76030601 			@ <UNDEFINED> instruction: 76030601
     95c:	030a0520 	movweq	r0, #42272	@ 0xa520
     960:	0705200a 			@ <UNDEFINED> instruction: 0705200a
     964:	0c052206 			@ <UNDEFINED> instruction: 0c052206
     968:	0a050106 			@ <UNDEFINED> instruction: 0a050106
     96c:	2f100520 			@ <UNDEFINED> instruction: 2f100520
     970:	74030905 			@ <UNDEFINED> instruction: 74030905
     974:	030a0520 	movweq	r0, #42272	@ 0xa520
     978:	05202e0b 			@ <UNDEFINED> instruction: 05202e0b
     97c:	05200607 			@ <UNDEFINED> instruction: 05200607
     980:	0e051309 			@ <UNDEFINED> instruction: 0e051309
     984:	0a050106 			@ <UNDEFINED> instruction: 0a050106
     988:	03052b06 	movweq	r2, #23302	@ 0x5b06
     98c:	06060536 			@ <UNDEFINED> instruction: 06060536
     990:	06070501 			@ <UNDEFINED> instruction: 06070501
     994:	05131631 			@ <UNDEFINED> instruction: 05131631
     998:	6d030610 			@ <UNDEFINED> instruction: 6d030610
     99c:	3c180301 			@ <UNDEFINED> instruction: 3c180301
     9a0:	38060705 			@ <UNDEFINED> instruction: 38060705
     9a4:	02001605 			@ <UNDEFINED> instruction: 02001605
     9a8:	05010104 			@ <UNDEFINED> instruction: 05010104
     9ac:	20061610 			@ <UNDEFINED> instruction: 20061610
     9b0:	a0060b05 			@ <UNDEFINED> instruction: a0060b05
     9b4:	05131313 			@ <UNDEFINED> instruction: 05131313
     9b8:	050f061b 			@ <UNDEFINED> instruction: 050f061b
     9bc:	054e060b 			@ <UNDEFINED> instruction: 054e060b
     9c0:	017a0310 			@ <UNDEFINED> instruction: 017a0310
     9c4:	032e2006 			@ <UNDEFINED> instruction: 032e2006
     9c8:	66062e09 			@ <UNDEFINED> instruction: 66062e09
     9cc:	052e2006 			@ <UNDEFINED> instruction: 052e2006
     9d0:	054c060b 			@ <UNDEFINED> instruction: 054c060b
     9d4:	0501061b 			@ <UNDEFINED> instruction: 0501061b
     9d8:	052f060b 			@ <UNDEFINED> instruction: 052f060b
     9dc:	2e060f10 			@ <UNDEFINED> instruction: 2e060f10
     9e0:	03060a05 	movweq	r0, #27141	@ 0x6a05
     9e4:	01062e0b 			@ <UNDEFINED> instruction: 01062e0b
     9e8:	5a031005 			@ <UNDEFINED> instruction: 5a031005
     9ec:	05052020 			@ <UNDEFINED> instruction: 05052020
     9f0:	20270306 			@ <UNDEFINED> instruction: 20270306
     9f4:	01060a05 			@ <UNDEFINED> instruction: 01060a05
     9f8:	01062d06 			@ <UNDEFINED> instruction: 01062d06
     9fc:	05320105 			@ <UNDEFINED> instruction: 05320105
     a00:	20710310 			@ <UNDEFINED> instruction: 20710310
     a04:	05260905 			@ <UNDEFINED> instruction: 05260905
     a08:	0625060a 			@ <UNDEFINED> instruction: 0625060a
     a0c:	09052e01 			@ <UNDEFINED> instruction: 09052e01
     a10:	05204e03 			@ <UNDEFINED> instruction: 05204e03
     a14:	2009030a 			@ <UNDEFINED> instruction: 2009030a
     a18:	0b031405 			@ <UNDEFINED> instruction: 0b031405
     a1c:	0310052e 			@ <UNDEFINED> instruction: 0310052e
     a20:	0202200a 			@ <UNDEFINED> instruction: 0202200a
     a24:	38010100 			@ <UNDEFINED> instruction: 38010100
     a28:	03000001 	movweq	r0, #1
     a2c:	00009400 			@ <UNDEFINED> instruction: 00009400
     a30:	fb010200 	blx	4123a <__textdata_start__+0x400a6>
     a34:	01000d0e 			@ <UNDEFINED> instruction: 01000d0e
     a38:	00010101 			@ <UNDEFINED> instruction: 00010101
     a3c:	00010000 			@ <UNDEFINED> instruction: 00010000
     a40:	3a430100 			@ <UNDEFINED> instruction: 3a430100
     a44:	422f4d2f 			@ <UNDEFINED> instruction: 422f4d2f
     a48:	6372732f 			@ <UNDEFINED> instruction: 6372732f
     a4c:	77656e2f 			@ <UNDEFINED> instruction: 77656e2f
     a50:	2d62696c 			@ <UNDEFINED> instruction: 2d62696c
     a54:	2e352e34 			@ <UNDEFINED> instruction: 2e352e34
     a58:	30322e30 			@ <UNDEFINED> instruction: 30322e30
     a5c:	32313432 			@ <UNDEFINED> instruction: 32313432
     a60:	6e2f3133 			@ <UNDEFINED> instruction: 6e2f3133
     a64:	696c7765 			@ <UNDEFINED> instruction: 696c7765
     a68:	696c2f62 			@ <UNDEFINED> instruction: 696c2f62
     a6c:	6d2f6362 			@ <UNDEFINED> instruction: 6d2f6362
     a70:	00637369 			@ <UNDEFINED> instruction: 00637369
     a74:	612f3a44 			@ <UNDEFINED> instruction: 612f3a44
     a78:	79736d2f 			@ <UNDEFINED> instruction: 79736d2f
     a7c:	2f343673 			@ <UNDEFINED> instruction: 2f343673
     a80:	676e696d 			@ <UNDEFINED> instruction: 676e696d
     a84:	2f343677 			@ <UNDEFINED> instruction: 2f343677
     a88:	2f62696c 			@ <UNDEFINED> instruction: 2f62696c
     a8c:	2f636367 			@ <UNDEFINED> instruction: 2f636367
     a90:	2d6d7261 			@ <UNDEFINED> instruction: 2d6d7261
     a94:	656e6f6e 			@ <UNDEFINED> instruction: 656e6f6e
     a98:	6261652d 			@ <UNDEFINED> instruction: 6261652d
     a9c:	33312f69 			@ <UNDEFINED> instruction: 33312f69
     aa0:	302e332e 			@ <UNDEFINED> instruction: 302e332e
     aa4:	636e692f 			@ <UNDEFINED> instruction: 636e692f
     aa8:	6564756c 			@ <UNDEFINED> instruction: 6564756c
     aac:	6e690000 			@ <UNDEFINED> instruction: 6e690000
     ab0:	632e7469 			@ <UNDEFINED> instruction: 632e7469
     ab4:	00000100 			@ <UNDEFINED> instruction: 00000100
     ab8:	64647473 			@ <UNDEFINED> instruction: 64647473
     abc:	682e6665 			@ <UNDEFINED> instruction: 682e6665
     ac0:	00000200 			@ <UNDEFINED> instruction: 00000200
     ac4:	00010500 			@ <UNDEFINED> instruction: 00010500
     ac8:	02dc0205 			@ <UNDEFINED> instruction: 02dc0205
     acc:	1e030000 			@ <UNDEFINED> instruction: 1e030000
     ad0:	13030501 	movwne	r0, #13569	@ 0x3501
     ad4:	01051413 			@ <UNDEFINED> instruction: 01051413
     ad8:	1f050e06 			@ <UNDEFINED> instruction: 1f050e06
     adc:	00110524 			@ <UNDEFINED> instruction: 00110524
     ae0:	2f010402 			@ <UNDEFINED> instruction: 2f010402
     ae4:	051f1f05 			@ <UNDEFINED> instruction: 051f1f05
     ae8:	052f0603 			@ <UNDEFINED> instruction: 052f0603
     aec:	04020011 			@ <UNDEFINED> instruction: 04020011
     af0:	0a050101 			@ <UNDEFINED> instruction: 0a050101
     af4:	05052e06 			@ <UNDEFINED> instruction: 05052e06
     af8:	1a052106 			@ <UNDEFINED> instruction: 1a052106
     afc:	1b050106 			@ <UNDEFINED> instruction: 1b050106
     b00:	03040200 	movweq	r0, #16896	@ 0x4200
     b04:	2105052d 			@ <UNDEFINED> instruction: 2105052d
     b08:	02001b05 			@ <UNDEFINED> instruction: 02001b05
     b0c:	1f060304 			@ <UNDEFINED> instruction: 1f060304
     b10:	02001105 			@ <UNDEFINED> instruction: 02001105
     b14:	05010104 			@ <UNDEFINED> instruction: 05010104
     b18:	05313203 			@ <UNDEFINED> instruction: 05313203
     b1c:	0501061c 			@ <UNDEFINED> instruction: 0501061c
     b20:	04020011 			@ <UNDEFINED> instruction: 04020011
     b24:	1c053d01 			@ <UNDEFINED> instruction: 1c053d01
     b28:	0603051f 			@ <UNDEFINED> instruction: 0603051f
     b2c:	0011052f 			@ <UNDEFINED> instruction: 0011052f
     b30:	01010402 			@ <UNDEFINED> instruction: 01010402
     b34:	20060a05 			@ <UNDEFINED> instruction: 20060a05
     b38:	21060505 			@ <UNDEFINED> instruction: 21060505
     b3c:	01061705 			@ <UNDEFINED> instruction: 01061705
     b40:	02001b05 			@ <UNDEFINED> instruction: 02001b05
     b44:	052d0304 			@ <UNDEFINED> instruction: 052d0304
     b48:	1b052105 			@ <UNDEFINED> instruction: 1b052105
     b4c:	03040200 	movweq	r0, #16896	@ 0x4200
     b50:	11051f06 			@ <UNDEFINED> instruction: 11051f06
     b54:	01040200 			@ <UNDEFINED> instruction: 01040200
     b58:	06010501 			@ <UNDEFINED> instruction: 06010501
     b5c:	08022030 			@ <UNDEFINED> instruction: 08022030
     b60:	ec010100 			@ <UNDEFINED> instruction: ec010100
     b64:	03000000 	movweq	r0, #0
     b68:	00009400 			@ <UNDEFINED> instruction: 00009400
     b6c:	fb010200 	blx	41376 <__textdata_start__+0x401e2>
     b70:	01000d0e 			@ <UNDEFINED> instruction: 01000d0e
     b74:	00010101 			@ <UNDEFINED> instruction: 00010101
     b78:	00010000 			@ <UNDEFINED> instruction: 00010000
     b7c:	3a430100 			@ <UNDEFINED> instruction: 3a430100
     b80:	422f4d2f 			@ <UNDEFINED> instruction: 422f4d2f
     b84:	6372732f 			@ <UNDEFINED> instruction: 6372732f
     b88:	77656e2f 			@ <UNDEFINED> instruction: 77656e2f
     b8c:	2d62696c 			@ <UNDEFINED> instruction: 2d62696c
     b90:	2e352e34 			@ <UNDEFINED> instruction: 2e352e34
     b94:	30322e30 			@ <UNDEFINED> instruction: 30322e30
     b98:	32313432 			@ <UNDEFINED> instruction: 32313432
     b9c:	6e2f3133 			@ <UNDEFINED> instruction: 6e2f3133
     ba0:	696c7765 			@ <UNDEFINED> instruction: 696c7765
     ba4:	696c2f62 			@ <UNDEFINED> instruction: 696c2f62
     ba8:	6d2f6362 			@ <UNDEFINED> instruction: 6d2f6362
     bac:	00637369 			@ <UNDEFINED> instruction: 00637369
     bb0:	612f3a44 			@ <UNDEFINED> instruction: 612f3a44
     bb4:	79736d2f 			@ <UNDEFINED> instruction: 79736d2f
     bb8:	2f343673 			@ <UNDEFINED> instruction: 2f343673
     bbc:	676e696d 			@ <UNDEFINED> instruction: 676e696d
     bc0:	2f343677 			@ <UNDEFINED> instruction: 2f343677
     bc4:	2f62696c 			@ <UNDEFINED> instruction: 2f62696c
     bc8:	2f636367 			@ <UNDEFINED> instruction: 2f636367
     bcc:	2d6d7261 			@ <UNDEFINED> instruction: 2d6d7261
     bd0:	656e6f6e 			@ <UNDEFINED> instruction: 656e6f6e
     bd4:	6261652d 			@ <UNDEFINED> instruction: 6261652d
     bd8:	33312f69 			@ <UNDEFINED> instruction: 33312f69
     bdc:	302e332e 			@ <UNDEFINED> instruction: 302e332e
     be0:	636e692f 			@ <UNDEFINED> instruction: 636e692f
     be4:	6564756c 			@ <UNDEFINED> instruction: 6564756c
     be8:	69660000 			@ <UNDEFINED> instruction: 69660000
     bec:	632e696e 			@ <UNDEFINED> instruction: 632e696e
     bf0:	00000100 			@ <UNDEFINED> instruction: 00000100
     bf4:	64647473 			@ <UNDEFINED> instruction: 64647473
     bf8:	682e6665 			@ <UNDEFINED> instruction: 682e6665
     bfc:	00000200 			@ <UNDEFINED> instruction: 00000200
     c00:	00010500 			@ <UNDEFINED> instruction: 00010500
     c04:	032c0205 			@ <UNDEFINED> instruction: 032c0205
     c08:	1a030000 			@ <UNDEFINED> instruction: 1a030000
     c0c:	13030501 	movwne	r0, #13569	@ 0x3501
     c10:	01051413 			@ <UNDEFINED> instruction: 01051413
     c14:	1c050e06 			@ <UNDEFINED> instruction: 1c050e06
     c18:	06030524 			@ <UNDEFINED> instruction: 06030524
     c1c:	0015053d 			@ <UNDEFINED> instruction: 0015053d
     c20:	01010402 			@ <UNDEFINED> instruction: 01010402
     c24:	01040200 			@ <UNDEFINED> instruction: 01040200
     c28:	05052006 			@ <UNDEFINED> instruction: 05052006
     c2c:	19052106 			@ <UNDEFINED> instruction: 19052106
     c30:	05050106 			@ <UNDEFINED> instruction: 05050106
     c34:	001b0520 			@ <UNDEFINED> instruction: 001b0520
     c38:	06030402 			@ <UNDEFINED> instruction: 06030402
     c3c:	0015053b 			@ <UNDEFINED> instruction: 0015053b
     c40:	01010402 			@ <UNDEFINED> instruction: 01010402
     c44:	05320305 			@ <UNDEFINED> instruction: 05320305
     c48:	05140601 			@ <UNDEFINED> instruction: 05140601
     c4c:	06022c03 			@ <UNDEFINED> instruction: 06022c03
     c50:	d3010100 	movwle	r0, #4352	@ 0x1100
     c54:	03000000 	movweq	r0, #0
     c58:	00009200 			@ <UNDEFINED> instruction: 00009200
     c5c:	fb010200 	blx	41466 <__textdata_start__+0x402d2>
     c60:	01000d0e 			@ <UNDEFINED> instruction: 01000d0e
     c64:	00010101 			@ <UNDEFINED> instruction: 00010101
     c68:	00010000 			@ <UNDEFINED> instruction: 00010000
     c6c:	3a430100 			@ <UNDEFINED> instruction: 3a430100
     c70:	422f4d2f 			@ <UNDEFINED> instruction: 422f4d2f
     c74:	6372732f 			@ <UNDEFINED> instruction: 6372732f
     c78:	77656e2f 			@ <UNDEFINED> instruction: 77656e2f
     c7c:	2d62696c 			@ <UNDEFINED> instruction: 2d62696c
     c80:	2e352e34 			@ <UNDEFINED> instruction: 2e352e34
     c84:	30322e30 			@ <UNDEFINED> instruction: 30322e30
     c88:	32313432 			@ <UNDEFINED> instruction: 32313432
     c8c:	6e2f3133 			@ <UNDEFINED> instruction: 6e2f3133
     c90:	696c7765 			@ <UNDEFINED> instruction: 696c7765
     c94:	696c2f62 			@ <UNDEFINED> instruction: 696c2f62
     c98:	6d2f6362 			@ <UNDEFINED> instruction: 6d2f6362
     c9c:	00637369 			@ <UNDEFINED> instruction: 00637369
     ca0:	4d2f3a43 	vstmdbmi	pc!, {s6-s72}
     ca4:	732f422f 			@ <UNDEFINED> instruction: 732f422f
     ca8:	6e2f6372 			@ <UNDEFINED> instruction: 6e2f6372
     cac:	696c7765 			@ <UNDEFINED> instruction: 696c7765
     cb0:	2e342d62 			@ <UNDEFINED> instruction: 2e342d62
     cb4:	2e302e35 			@ <UNDEFINED> instruction: 2e302e35
     cb8:	34323032 			@ <UNDEFINED> instruction: 34323032
     cbc:	31333231 			@ <UNDEFINED> instruction: 31333231
     cc0:	77656e2f 			@ <UNDEFINED> instruction: 77656e2f
     cc4:	2f62696c 			@ <UNDEFINED> instruction: 2f62696c
     cc8:	6362696c 			@ <UNDEFINED> instruction: 6362696c
     ccc:	636e692f 			@ <UNDEFINED> instruction: 636e692f
     cd0:	6564756c 			@ <UNDEFINED> instruction: 6564756c
     cd4:	7379732f 			@ <UNDEFINED> instruction: 7379732f
     cd8:	6f6c0000 			@ <UNDEFINED> instruction: 6f6c0000
     cdc:	632e6b63 			@ <UNDEFINED> instruction: 632e6b63
     ce0:	00000100 			@ <UNDEFINED> instruction: 00000100
     ce4:	6b636f6c 			@ <UNDEFINED> instruction: 6b636f6c
     ce8:	0200682e 			@ <UNDEFINED> instruction: 0200682e
     cec:	05000000 			@ <UNDEFINED> instruction: 05000000
     cf0:	02050001 			@ <UNDEFINED> instruction: 02050001
     cf4:	00000354 			@ <UNDEFINED> instruction: 00000354
     cf8:	0100e603 			@ <UNDEFINED> instruction: 0100e603
     cfc:	05020413 			@ <UNDEFINED> instruction: 05020413
     d00:	2e43030d 			@ <UNDEFINED> instruction: 2e43030d
     d04:	30303030 			@ <UNDEFINED> instruction: 30303030
     d08:	01050104 			@ <UNDEFINED> instruction: 01050104
     d0c:	2e00d203 			@ <UNDEFINED> instruction: 2e00d203
     d10:	05130305 			@ <UNDEFINED> instruction: 05130305
     d14:	20130601 			@ <UNDEFINED> instruction: 20130601
     d18:	0c050204 			@ <UNDEFINED> instruction: 0c050204
     d1c:	7fb00306 			@ <UNDEFINED> instruction: 7fb00306
     d20:	310d0520 			@ <UNDEFINED> instruction: 310d0520
     d24:	00010230 			@ <UNDEFINED> instruction: 00010230
     d28:	024e0101 			@ <UNDEFINED> instruction: 024e0101
     d2c:	00030000 			@ <UNDEFINED> instruction: 00030000
     d30:	00000135 			@ <UNDEFINED> instruction: 00000135
     d34:	0efb0102 			@ <UNDEFINED> instruction: 0efb0102
     d38:	0101000d 			@ <UNDEFINED> instruction: 0101000d
     d3c:	00000101 			@ <UNDEFINED> instruction: 00000101
     d40:	00000100 			@ <UNDEFINED> instruction: 00000100
     d44:	2f3a4301 			@ <UNDEFINED> instruction: 2f3a4301
     d48:	2f422f4d 			@ <UNDEFINED> instruction: 2f422f4d
     d4c:	2f637273 			@ <UNDEFINED> instruction: 2f637273
     d50:	6c77656e 			@ <UNDEFINED> instruction: 6c77656e
     d54:	342d6269 			@ <UNDEFINED> instruction: 342d6269
     d58:	302e352e 			@ <UNDEFINED> instruction: 302e352e
     d5c:	3230322e 			@ <UNDEFINED> instruction: 3230322e
     d60:	33323134 			@ <UNDEFINED> instruction: 33323134
     d64:	656e2f31 			@ <UNDEFINED> instruction: 656e2f31
     d68:	62696c77 			@ <UNDEFINED> instruction: 62696c77
     d6c:	62696c2f 			@ <UNDEFINED> instruction: 62696c2f
     d70:	74732f63 			@ <UNDEFINED> instruction: 74732f63
     d74:	62696c64 			@ <UNDEFINED> instruction: 62696c64
     d78:	2f3a4400 			@ <UNDEFINED> instruction: 2f3a4400
     d7c:	736d2f61 			@ <UNDEFINED> instruction: 736d2f61
     d80:	34367379 			@ <UNDEFINED> instruction: 34367379
     d84:	6e696d2f 			@ <UNDEFINED> instruction: 6e696d2f
     d88:	34367767 			@ <UNDEFINED> instruction: 34367767
     d8c:	62696c2f 			@ <UNDEFINED> instruction: 62696c2f
     d90:	6363672f 			@ <UNDEFINED> instruction: 6363672f
     d94:	6d72612f 			@ <UNDEFINED> instruction: 6d72612f
     d98:	6e6f6e2d 			@ <UNDEFINED> instruction: 6e6f6e2d
     d9c:	61652d65 			@ <UNDEFINED> instruction: 61652d65
     da0:	312f6962 			@ <UNDEFINED> instruction: 312f6962
     da4:	2e332e33 			@ <UNDEFINED> instruction: 2e332e33
     da8:	6e692f30 			@ <UNDEFINED> instruction: 6e692f30
     dac:	64756c63 			@ <UNDEFINED> instruction: 64756c63
     db0:	3a430065 			@ <UNDEFINED> instruction: 3a430065
     db4:	422f4d2f 			@ <UNDEFINED> instruction: 422f4d2f
     db8:	6372732f 			@ <UNDEFINED> instruction: 6372732f
     dbc:	77656e2f 			@ <UNDEFINED> instruction: 77656e2f
     dc0:	2d62696c 			@ <UNDEFINED> instruction: 2d62696c
     dc4:	2e352e34 			@ <UNDEFINED> instruction: 2e352e34
     dc8:	30322e30 			@ <UNDEFINED> instruction: 30322e30
     dcc:	32313432 			@ <UNDEFINED> instruction: 32313432
     dd0:	6e2f3133 			@ <UNDEFINED> instruction: 6e2f3133
     dd4:	696c7765 			@ <UNDEFINED> instruction: 696c7765
     dd8:	696c2f62 			@ <UNDEFINED> instruction: 696c2f62
     ddc:	692f6362 			@ <UNDEFINED> instruction: 692f6362
     de0:	756c636e 			@ <UNDEFINED> instruction: 756c636e
     de4:	732f6564 			@ <UNDEFINED> instruction: 732f6564
     de8:	43007379 	movwmi	r7, #889	@ 0x379
     dec:	2f4d2f3a 			@ <UNDEFINED> instruction: 2f4d2f3a
     df0:	72732f42 			@ <UNDEFINED> instruction: 72732f42
     df4:	656e2f63 			@ <UNDEFINED> instruction: 656e2f63
     df8:	62696c77 			@ <UNDEFINED> instruction: 62696c77
     dfc:	352e342d 			@ <UNDEFINED> instruction: 352e342d
     e00:	322e302e 			@ <UNDEFINED> instruction: 322e302e
     e04:	31343230 			@ <UNDEFINED> instruction: 31343230
     e08:	2f313332 			@ <UNDEFINED> instruction: 2f313332
     e0c:	6c77656e 			@ <UNDEFINED> instruction: 6c77656e
     e10:	6c2f6269 			@ <UNDEFINED> instruction: 6c2f6269
     e14:	2f636269 			@ <UNDEFINED> instruction: 2f636269
     e18:	6c636e69 			@ <UNDEFINED> instruction: 6c636e69
     e1c:	00656475 			@ <UNDEFINED> instruction: 00656475
     e20:	615f5f00 			@ <UNDEFINED> instruction: 615f5f00
     e24:	69786574 			@ <UNDEFINED> instruction: 69786574
     e28:	00632e74 			@ <UNDEFINED> instruction: 00632e74
     e2c:	73000001 	movwvc	r0, #1
     e30:	65646474 			@ <UNDEFINED> instruction: 65646474
     e34:	00682e66 			@ <UNDEFINED> instruction: 00682e66
     e38:	72000002 			@ <UNDEFINED> instruction: 72000002
     e3c:	746e6565 			@ <UNDEFINED> instruction: 746e6565
     e40:	0300682e 	movweq	r6, #2094	@ 0x82e
     e44:	6f6c0000 			@ <UNDEFINED> instruction: 6f6c0000
     e48:	682e6b63 			@ <UNDEFINED> instruction: 682e6b63
     e4c:	00000300 			@ <UNDEFINED> instruction: 00000300
     e50:	78657461 			@ <UNDEFINED> instruction: 78657461
     e54:	682e7469 			@ <UNDEFINED> instruction: 682e7469
     e58:	00000100 			@ <UNDEFINED> instruction: 00000100
     e5c:	6c647473 			@ <UNDEFINED> instruction: 6c647473
     e60:	682e6269 			@ <UNDEFINED> instruction: 682e6269
     e64:	00000400 			@ <UNDEFINED> instruction: 00000400
     e68:	00010500 			@ <UNDEFINED> instruction: 00010500
     e6c:	037c0205 			@ <UNDEFINED> instruction: 037c0205
     e70:	c2030000 			@ <UNDEFINED> instruction: c2030000
     e74:	03050100 	movweq	r0, #20736	@ 0x5100
     e78:	05151313 			@ <UNDEFINED> instruction: 05151313
     e7c:	050d0601 			@ <UNDEFINED> instruction: 050d0601
     e80:	01053303 			@ <UNDEFINED> instruction: 01053303
     e84:	25030529 			@ <UNDEFINED> instruction: 25030529
     e88:	05290105 			@ <UNDEFINED> instruction: 05290105
     e8c:	31064103 			@ <UNDEFINED> instruction: 31064103
     e90:	01060505 			@ <UNDEFINED> instruction: 01060505
     e94:	2f060305 			@ <UNDEFINED> instruction: 2f060305
     e98:	01060605 			@ <UNDEFINED> instruction: 01060605
     e9c:	03060305 	movweq	r0, #25349	@ 0x6305
     ea0:	08052009 			@ <UNDEFINED> instruction: 08052009
     ea4:	06050106 			@ <UNDEFINED> instruction: 06050106
     ea8:	06030520 			@ <UNDEFINED> instruction: 06030520
     eac:	052e1c03 			@ <UNDEFINED> instruction: 052e1c03
     eb0:	05010606 			@ <UNDEFINED> instruction: 05010606
     eb4:	05230607 			@ <UNDEFINED> instruction: 05230607
     eb8:	0501060c 			@ <UNDEFINED> instruction: 0501060c
     ebc:	052f0607 			@ <UNDEFINED> instruction: 052f0607
     ec0:	0501060a 			@ <UNDEFINED> instruction: 0501060a
     ec4:	201b030b 			@ <UNDEFINED> instruction: 201b030b
     ec8:	2d060705 			@ <UNDEFINED> instruction: 2d060705
     ecc:	01061e05 			@ <UNDEFINED> instruction: 01061e05
     ed0:	2f060705 			@ <UNDEFINED> instruction: 2f060705
     ed4:	01061c05 			@ <UNDEFINED> instruction: 01061c05
     ed8:	052e1605 			@ <UNDEFINED> instruction: 052e1605
     edc:	053d0607 			@ <UNDEFINED> instruction: 053d0607
     ee0:	052f060a 			@ <UNDEFINED> instruction: 052f060a
     ee4:	07051f22 			@ <UNDEFINED> instruction: 07051f22
     ee8:	0a052f06 			@ <UNDEFINED> instruction: 0a052f06
     eec:	02050106 			@ <UNDEFINED> instruction: 02050106
     ef0:	10052106 			@ <UNDEFINED> instruction: 10052106
     ef4:	03050106 	movweq	r0, #20742	@ 0x5106
     ef8:	12055a06 			@ <UNDEFINED> instruction: 12055a06
     efc:	16050106 			@ <UNDEFINED> instruction: 16050106
     f00:	22030520 			@ <UNDEFINED> instruction: 22030520
     f04:	052c1205 			@ <UNDEFINED> instruction: 052c1205
     f08:	03052016 	movweq	r2, #20502	@ 0x5016
     f0c:	05303006 			@ <UNDEFINED> instruction: 05303006
     f10:	0501060a 			@ <UNDEFINED> instruction: 0501060a
     f14:	07052101 			@ <UNDEFINED> instruction: 07052101
     f18:	7fb40306 			@ <UNDEFINED> instruction: 7fb40306
     f1c:	060a052e 			@ <UNDEFINED> instruction: 060a052e
     f20:	1d100515 			@ <UNDEFINED> instruction: 1d100515
     f24:	30060705 			@ <UNDEFINED> instruction: 30060705
     f28:	060a0513 			@ <UNDEFINED> instruction: 060a0513
     f2c:	06020501 			@ <UNDEFINED> instruction: 06020501
     f30:	06170521 			@ <UNDEFINED> instruction: 06170521
     f34:	38140501 			@ <UNDEFINED> instruction: 38140501
     f38:	0604052e 			@ <UNDEFINED> instruction: 0604052e
     f3c:	05012f03 			@ <UNDEFINED> instruction: 05012f03
     f40:	05010607 			@ <UNDEFINED> instruction: 05010607
     f44:	052f0606 			@ <UNDEFINED> instruction: 052f0606
     f48:	2e01060d 			@ <UNDEFINED> instruction: 2e01060d
     f4c:	30060405 			@ <UNDEFINED> instruction: 30060405
     f50:	01060705 			@ <UNDEFINED> instruction: 01060705
     f54:	27060405 			@ <UNDEFINED> instruction: 27060405
     f58:	06130513 			@ <UNDEFINED> instruction: 06130513
     f5c:	06040511 			@ <UNDEFINED> instruction: 06040511
     f60:	0616053e 			@ <UNDEFINED> instruction: 0616053e
     f64:	03190518 			@ <UNDEFINED> instruction: 03190518
     f68:	0805207a 			@ <UNDEFINED> instruction: 0805207a
     f6c:	3c7a0306 			@ <UNDEFINED> instruction: 3c7a0306
     f70:	060e054c 			@ <UNDEFINED> instruction: 060e054c
     f74:	02015603 			@ <UNDEFINED> instruction: 02015603
     f78:	0101000d 			@ <UNDEFINED> instruction: 0101000d
     f7c:	0000025f 			@ <UNDEFINED> instruction: 0000025f
     f80:	00a80003 			@ <UNDEFINED> instruction: 00a80003
     f84:	01020000 			@ <UNDEFINED> instruction: 01020000
     f88:	000d0efb 	strdeq	r0, [sp], -fp
     f8c:	01010101 			@ <UNDEFINED> instruction: 01010101
     f90:	01000000 			@ <UNDEFINED> instruction: 01000000
     f94:	43010000 	movwmi	r0, #4096	@ 0x1000
     f98:	2f4d2f3a 			@ <UNDEFINED> instruction: 2f4d2f3a
     f9c:	72732f42 			@ <UNDEFINED> instruction: 72732f42
     fa0:	656e2f63 			@ <UNDEFINED> instruction: 656e2f63
     fa4:	62696c77 			@ <UNDEFINED> instruction: 62696c77
     fa8:	352e342d 			@ <UNDEFINED> instruction: 352e342d
     fac:	322e302e 			@ <UNDEFINED> instruction: 322e302e
     fb0:	31343230 			@ <UNDEFINED> instruction: 31343230
     fb4:	2f313332 			@ <UNDEFINED> instruction: 2f313332
     fb8:	6c77656e 			@ <UNDEFINED> instruction: 6c77656e
     fbc:	6c2f6269 			@ <UNDEFINED> instruction: 6c2f6269
     fc0:	2f636269 			@ <UNDEFINED> instruction: 2f636269
     fc4:	6c647473 			@ <UNDEFINED> instruction: 6c647473
     fc8:	43006269 	movwmi	r6, #617	@ 0x269
     fcc:	2f4d2f3a 			@ <UNDEFINED> instruction: 2f4d2f3a
     fd0:	72732f42 			@ <UNDEFINED> instruction: 72732f42
     fd4:	656e2f63 			@ <UNDEFINED> instruction: 656e2f63
     fd8:	62696c77 			@ <UNDEFINED> instruction: 62696c77
     fdc:	352e342d 			@ <UNDEFINED> instruction: 352e342d
     fe0:	322e302e 			@ <UNDEFINED> instruction: 322e302e
     fe4:	31343230 			@ <UNDEFINED> instruction: 31343230
     fe8:	2f313332 			@ <UNDEFINED> instruction: 2f313332
     fec:	6c77656e 			@ <UNDEFINED> instruction: 6c77656e
     ff0:	6c2f6269 			@ <UNDEFINED> instruction: 6c2f6269
     ff4:	2f636269 			@ <UNDEFINED> instruction: 2f636269
     ff8:	6c636e69 			@ <UNDEFINED> instruction: 6c636e69
     ffc:	2f656475 			@ <UNDEFINED> instruction: 2f656475
    1000:	00737973 			@ <UNDEFINED> instruction: 00737973
    1004:	635f5f00 			@ <UNDEFINED> instruction: 635f5f00
    1008:	5f6c6c61 			@ <UNDEFINED> instruction: 5f6c6c61
    100c:	78657461 			@ <UNDEFINED> instruction: 78657461
    1010:	632e7469 			@ <UNDEFINED> instruction: 632e7469
    1014:	00000100 			@ <UNDEFINED> instruction: 00000100
    1018:	6e656572 			@ <UNDEFINED> instruction: 6e656572
    101c:	00682e74 			@ <UNDEFINED> instruction: 00682e74
    1020:	6c000002 			@ <UNDEFINED> instruction: 6c000002
    1024:	2e6b636f 			@ <UNDEFINED> instruction: 2e6b636f
    1028:	00020068 			@ <UNDEFINED> instruction: 00020068
    102c:	01050000 			@ <UNDEFINED> instruction: 01050000
    1030:	38020500 			@ <UNDEFINED> instruction: 38020500
    1034:	03000004 	movweq	r0, #4
    1038:	050100c4 			@ <UNDEFINED> instruction: 050100c4
    103c:	13131303 			@ <UNDEFINED> instruction: 13131303
    1040:	16131313 			@ <UNDEFINED> instruction: 16131313
    1044:	03060105 	movweq	r0, #24837	@ 0x6105
    1048:	03050176 	movweq	r0, #20854	@ 0x5176
    104c:	052e0a03 			@ <UNDEFINED> instruction: 052e0a03
    1050:	01052505 			@ <UNDEFINED> instruction: 01052505
    1054:	202e7103 			@ <UNDEFINED> instruction: 202e7103
    1058:	0a030305 			@ <UNDEFINED> instruction: 0a030305
    105c:	03010520 	movweq	r0, #5408	@ 0x1520
    1060:	03052076 	movweq	r2, #20598	@ 0x5076
    1064:	062e0a03 			@ <UNDEFINED> instruction: 062e0a03
    1068:	06050533 			@ <UNDEFINED> instruction: 06050533
    106c:	06030501 			@ <UNDEFINED> instruction: 06030501
    1070:	0a05132f 			@ <UNDEFINED> instruction: 0a05132f
    1074:	31070501 			@ <UNDEFINED> instruction: 31070501
    1078:	16061105 			@ <UNDEFINED> instruction: 16061105
    107c:	051c0c05 			@ <UNDEFINED> instruction: 051c0c05
    1080:	05320607 			@ <UNDEFINED> instruction: 05320607
    1084:	0402001f 			@ <UNDEFINED> instruction: 0402001f
    1088:	02000101 			@ <UNDEFINED> instruction: 02000101
    108c:	20060104 			@ <UNDEFINED> instruction: 20060104
    1090:	02002805 			@ <UNDEFINED> instruction: 02002805
    1094:	05510304 			@ <UNDEFINED> instruction: 05510304
    1098:	14290604 			@ <UNDEFINED> instruction: 14290604
    109c:	06070515 			@ <UNDEFINED> instruction: 06070515
    10a0:	06040501 			@ <UNDEFINED> instruction: 06040501
    10a4:	06150541 			@ <UNDEFINED> instruction: 06150541
    10a8:	1f070513 			@ <UNDEFINED> instruction: 1f070513
    10ac:	21060405 			@ <UNDEFINED> instruction: 21060405
    10b0:	01061505 			@ <UNDEFINED> instruction: 01061505
    10b4:	05200705 			@ <UNDEFINED> instruction: 05200705
    10b8:	05210606 			@ <UNDEFINED> instruction: 05210606
    10bc:	05140611 			@ <UNDEFINED> instruction: 05140611
    10c0:	06052c0d 			@ <UNDEFINED> instruction: 06052c0d
    10c4:	04052206 			@ <UNDEFINED> instruction: 04052206
    10c8:	06110515 			@ <UNDEFINED> instruction: 06110515
    10cc:	2307050f 	movwcs	r0, #29967	@ 0x750f
    10d0:	23060405 	movwcs	r0, #25605	@ 0x6405
    10d4:	01060805 			@ <UNDEFINED> instruction: 01060805
    10d8:	31060405 			@ <UNDEFINED> instruction: 31060405
    10dc:	01060705 			@ <UNDEFINED> instruction: 01060705
    10e0:	02002105 			@ <UNDEFINED> instruction: 02002105
    10e4:	05200104 			@ <UNDEFINED> instruction: 05200104
    10e8:	2e6b0306 			@ <UNDEFINED> instruction: 2e6b0306
    10ec:	02000e05 			@ <UNDEFINED> instruction: 02000e05
    10f0:	15030104 			@ <UNDEFINED> instruction: 15030104
    10f4:	0609052e 			@ <UNDEFINED> instruction: 0609052e
    10f8:	060c0530 			@ <UNDEFINED> instruction: 060c0530
    10fc:	2f070501 			@ <UNDEFINED> instruction: 2f070501
    1100:	052d0c05 			@ <UNDEFINED> instruction: 052d0c05
    1104:	052f0606 			@ <UNDEFINED> instruction: 052f0606
    1108:	05010607 			@ <UNDEFINED> instruction: 05010607
    110c:	05350604 			@ <UNDEFINED> instruction: 05350604
    1110:	05010607 			@ <UNDEFINED> instruction: 05010607
    1114:	20540305 			@ <UNDEFINED> instruction: 20540305
    1118:	2c030705 			@ <UNDEFINED> instruction: 2c030705
    111c:	0017052e 			@ <UNDEFINED> instruction: 0017052e
    1120:	2e010402 			@ <UNDEFINED> instruction: 2e010402
    1124:	01040200 			@ <UNDEFINED> instruction: 01040200
    1128:	0026052e 			@ <UNDEFINED> instruction: 0026052e
    112c:	06020402 			@ <UNDEFINED> instruction: 06020402
    1130:	05015d03 			@ <UNDEFINED> instruction: 05015d03
    1134:	0402001f 			@ <UNDEFINED> instruction: 0402001f
    1138:	03052001 	movweq	r2, #20481	@ 0x5001
    113c:	054a3f03 			@ <UNDEFINED> instruction: 054a3f03
    1140:	05310601 			@ <UNDEFINED> instruction: 05310601
    1144:	26053903 			@ <UNDEFINED> instruction: 26053903
    1148:	02040200 			@ <UNDEFINED> instruction: 02040200
    114c:	2e410306 			@ <UNDEFINED> instruction: 2e410306
    1150:	02000a05 			@ <UNDEFINED> instruction: 02000a05
    1154:	19060104 			@ <UNDEFINED> instruction: 19060104
    1158:	02001405 			@ <UNDEFINED> instruction: 02001405
    115c:	00200304 			@ <UNDEFINED> instruction: 00200304
    1160:	4a030402 			@ <UNDEFINED> instruction: 4a030402
    1164:	02002605 			@ <UNDEFINED> instruction: 02002605
    1168:	79030204 			@ <UNDEFINED> instruction: 79030204
    116c:	001f0501 			@ <UNDEFINED> instruction: 001f0501
    1170:	06010402 			@ <UNDEFINED> instruction: 06010402
    1174:	00260520 			@ <UNDEFINED> instruction: 00260520
    1178:	4a020402 			@ <UNDEFINED> instruction: 4a020402
    117c:	02000a05 			@ <UNDEFINED> instruction: 02000a05
    1180:	19060104 			@ <UNDEFINED> instruction: 19060104
    1184:	01040200 			@ <UNDEFINED> instruction: 01040200
    1188:	0026052e 			@ <UNDEFINED> instruction: 0026052e
    118c:	06020402 			@ <UNDEFINED> instruction: 06020402
    1190:	05017903 			@ <UNDEFINED> instruction: 05017903
    1194:	0402001f 			@ <UNDEFINED> instruction: 0402001f
    1198:	05010601 			@ <UNDEFINED> instruction: 05010601
    119c:	04020026 			@ <UNDEFINED> instruction: 04020026
    11a0:	052e0602 			@ <UNDEFINED> instruction: 052e0602
    11a4:	0402001f 			@ <UNDEFINED> instruction: 0402001f
    11a8:	05010601 			@ <UNDEFINED> instruction: 05010601
    11ac:	1a030606 			@ <UNDEFINED> instruction: 1a030606
    11b0:	0304053c 	movweq	r0, #17724	@ 0x453c
    11b4:	07052009 			@ <UNDEFINED> instruction: 07052009
    11b8:	05050106 			@ <UNDEFINED> instruction: 05050106
    11bc:	05205403 			@ <UNDEFINED> instruction: 05205403
    11c0:	2e2c0307 			@ <UNDEFINED> instruction: 2e2c0307
    11c4:	0603052e 			@ <UNDEFINED> instruction: 0603052e
    11c8:	13015403 	movwne	r5, #5123	@ 0x1403
    11cc:	010a0513 			@ <UNDEFINED> instruction: 010a0513
    11d0:	25030605 			@ <UNDEFINED> instruction: 25030605
    11d4:	0607054a 			@ <UNDEFINED> instruction: 0607054a
    11d8:	05022e01 			@ <UNDEFINED> instruction: 05022e01
    11dc:	6b010100 			@ <UNDEFINED> instruction: 6b010100
    11e0:	05000001 			@ <UNDEFINED> instruction: 05000001
    11e4:	2e000400 			@ <UNDEFINED> instruction: 2e000400
    11e8:	02000000 			@ <UNDEFINED> instruction: 02000000
    11ec:	0efb0101 			@ <UNDEFINED> instruction: 0efb0101
    11f0:	0101000d 			@ <UNDEFINED> instruction: 0101000d
    11f4:	00000101 			@ <UNDEFINED> instruction: 00000101
    11f8:	00000100 			@ <UNDEFINED> instruction: 00000100
    11fc:	1f010101 			@ <UNDEFINED> instruction: 1f010101
    1200:	00007902 			@ <UNDEFINED> instruction: 00007902
    1204:	0000bb00 			@ <UNDEFINED> instruction: 0000bb00
    1208:	1f010200 			@ <UNDEFINED> instruction: 1f010200
    120c:	e3020f02 	movw	r0, #12034	@ 0x2f02
    1210:	01000000 			@ <UNDEFINED> instruction: 01000000
    1214:	000000e3 			@ <UNDEFINED> instruction: 000000e3
    1218:	02050001 			@ <UNDEFINED> instruction: 02050001
    121c:	00000cac 			@ <UNDEFINED> instruction: 00000cac
    1220:	0100cc03 			@ <UNDEFINED> instruction: 0100cc03
    1224:	2736332f 			@ <UNDEFINED> instruction: 2736332f
    1228:	212f2f2f 			@ <UNDEFINED> instruction: 212f2f2f
    122c:	2f2f212f 			@ <UNDEFINED> instruction: 2f2f212f
    1230:	2f322f2f 			@ <UNDEFINED> instruction: 2f322f2f
    1234:	2121212f 			@ <UNDEFINED> instruction: 2121212f
    1238:	2f2f2f21 			@ <UNDEFINED> instruction: 2f2f2f21
    123c:	21332f2f 			@ <UNDEFINED> instruction: 21332f2f
    1240:	2f2f2321 			@ <UNDEFINED> instruction: 2f2f2321
    1244:	21222f2f 			@ <UNDEFINED> instruction: 21222f2f
    1248:	2f2f2f34 			@ <UNDEFINED> instruction: 2f2f2f34
    124c:	2f362122 			@ <UNDEFINED> instruction: 2f362122
    1250:	312e0903 			@ <UNDEFINED> instruction: 312e0903
    1254:	3d2f212f 			@ <UNDEFINED> instruction: 3d2f212f
    1258:	213d3d2f 			@ <UNDEFINED> instruction: 213d3d2f
    125c:	2f212f2f 			@ <UNDEFINED> instruction: 2f212f2f
    1260:	323d2f21 			@ <UNDEFINED> instruction: 323d2f21
    1264:	2f2f222f 			@ <UNDEFINED> instruction: 2f2f222f
    1268:	2e09032f 			@ <UNDEFINED> instruction: 2e09032f
    126c:	232f212f 			@ <UNDEFINED> instruction: 232f212f
    1270:	312f2f21 			@ <UNDEFINED> instruction: 312f2f21
    1274:	2f352f2f 			@ <UNDEFINED> instruction: 2f352f2f
    1278:	2f2f2f21 			@ <UNDEFINED> instruction: 2f2f2f21
    127c:	212f242f 			@ <UNDEFINED> instruction: 212f242f
    1280:	2f21212f 			@ <UNDEFINED> instruction: 2f21212f
    1284:	2f201d03 			@ <UNDEFINED> instruction: 2f201d03
    1288:	2f212121 			@ <UNDEFINED> instruction: 2f212121
    128c:	2f332121 			@ <UNDEFINED> instruction: 2f332121
    1290:	2f242121 			@ <UNDEFINED> instruction: 2f242121
    1294:	242f2f2f 			@ <UNDEFINED> instruction: 242f2f2f
    1298:	302f212f 			@ <UNDEFINED> instruction: 302f212f
    129c:	272f212f 			@ <UNDEFINED> instruction: 272f212f
    12a0:	212f2121 			@ <UNDEFINED> instruction: 212f2121
    12a4:	21212f24 			@ <UNDEFINED> instruction: 21212f24
    12a8:	2f2f2321 			@ <UNDEFINED> instruction: 2f2f2321
    12ac:	244b4b2f 			@ <UNDEFINED> instruction: 244b4b2f
    12b0:	4b2f2f2f 			@ <UNDEFINED> instruction: 4b2f2f2f
    12b4:	212f2421 			@ <UNDEFINED> instruction: 212f2421
    12b8:	212f2f25 			@ <UNDEFINED> instruction: 212f2f25
    12bc:	2421212f 			@ <UNDEFINED> instruction: 2421212f
    12c0:	222f212f 			@ <UNDEFINED> instruction: 222f212f
    12c4:	232f212f 			@ <UNDEFINED> instruction: 232f212f
    12c8:	2121212f 			@ <UNDEFINED> instruction: 2121212f
    12cc:	21213122 			@ <UNDEFINED> instruction: 21213122
    12d0:	212f2321 			@ <UNDEFINED> instruction: 212f2321
    12d4:	2f212121 			@ <UNDEFINED> instruction: 2f212121
    12d8:	2f212f21 			@ <UNDEFINED> instruction: 2f212f21
    12dc:	2f2f3221 			@ <UNDEFINED> instruction: 2f2f3221
    12e0:	2009032f 			@ <UNDEFINED> instruction: 2009032f
    12e4:	2121212f 			@ <UNDEFINED> instruction: 2121212f
    12e8:	2121212f 			@ <UNDEFINED> instruction: 2121212f
    12ec:	2f2f212f 			@ <UNDEFINED> instruction: 2f2f212f
    12f0:	2e0c032f 			@ <UNDEFINED> instruction: 2e0c032f
    12f4:	2221212f 			@ <UNDEFINED> instruction: 2221212f
    12f8:	322f2f26 			@ <UNDEFINED> instruction: 322f2f26
    12fc:	2e0a032f 			@ <UNDEFINED> instruction: 2e0a032f
    1300:	2221212f 			@ <UNDEFINED> instruction: 2221212f
    1304:	2f2f2f26 			@ <UNDEFINED> instruction: 2f2f2f26
    1308:	032f2421 			@ <UNDEFINED> instruction: 032f2421
    130c:	2f212e0a 			@ <UNDEFINED> instruction: 2f212e0a
    1310:	2f212f2f 			@ <UNDEFINED> instruction: 2f212f2f
    1314:	2f222f2f 			@ <UNDEFINED> instruction: 2f222f2f
    1318:	212f2221 			@ <UNDEFINED> instruction: 212f2221
    131c:	2f26232f 			@ <UNDEFINED> instruction: 2f26232f
    1320:	0b032f2f 			@ <UNDEFINED> instruction: 0b032f2f
    1324:	22212f2e 			@ <UNDEFINED> instruction: 22212f2e
    1328:	09032f26 			@ <UNDEFINED> instruction: 09032f26
    132c:	22212f20 			@ <UNDEFINED> instruction: 22212f20
    1330:	21222f26 			@ <UNDEFINED> instruction: 21222f26
    1334:	09032f34 			@ <UNDEFINED> instruction: 09032f34
    1338:	2f312f2e 			@ <UNDEFINED> instruction: 2f312f2e
    133c:	2f21212f 			@ <UNDEFINED> instruction: 2f21212f
    1340:	2f302121 			@ <UNDEFINED> instruction: 2f302121
    1344:	2f4b2f2f 			@ <UNDEFINED> instruction: 2f4b2f2f
    1348:	00010221 			@ <UNDEFINED> instruction: 00010221
    134c:	005a0101 			@ <UNDEFINED> instruction: 005a0101
    1350:	00050000 			@ <UNDEFINED> instruction: 00050000
    1354:	002e0004 			@ <UNDEFINED> instruction: 002e0004
    1358:	01020000 			@ <UNDEFINED> instruction: 01020000
    135c:	0d0efb01 	vstreq	d15, [lr, #-4]
    1360:	01010100 			@ <UNDEFINED> instruction: 01010100
    1364:	00000001 			@ <UNDEFINED> instruction: 00000001
    1368:	01000001 			@ <UNDEFINED> instruction: 01000001
    136c:	021f0101 			@ <UNDEFINED> instruction: 021f0101
    1370:	00000079 			@ <UNDEFINED> instruction: 00000079
    1374:	000000bb 			@ <UNDEFINED> instruction: 000000bb
    1378:	021f0102 			@ <UNDEFINED> instruction: 021f0102
    137c:	00e3020f 			@ <UNDEFINED> instruction: 00e3020f
    1380:	e3010000 	movw	r0, #4096	@ 0x1000
    1384:	01000000 			@ <UNDEFINED> instruction: 01000000
    1388:	24020500 			@ <UNDEFINED> instruction: 24020500
    138c:	03000010 	movweq	r0, #16
    1390:	21010aeb 	smlattcs	r1, fp, sl, r0
    1394:	21212f21 			@ <UNDEFINED> instruction: 21212f21
    1398:	2f232f2f 			@ <UNDEFINED> instruction: 2f232f2f
    139c:	222f2f2f 			@ <UNDEFINED> instruction: 222f2f2f
    13a0:	212f222f 			@ <UNDEFINED> instruction: 212f222f
    13a4:	022f222f 			@ <UNDEFINED> instruction: 022f222f
    13a8:	01010001 			@ <UNDEFINED> instruction: 01010001
    13ac:	00000082 			@ <UNDEFINED> instruction: 00000082
    13b0:	00040005 			@ <UNDEFINED> instruction: 00040005
    13b4:	0000002e 			@ <UNDEFINED> instruction: 0000002e
    13b8:	fb010102 	blx	417ca <__textdata_start__+0x40636>
    13bc:	01000d0e 			@ <UNDEFINED> instruction: 01000d0e
    13c0:	00010101 			@ <UNDEFINED> instruction: 00010101
    13c4:	00010000 			@ <UNDEFINED> instruction: 00010000
    13c8:	01010100 			@ <UNDEFINED> instruction: 01010100
    13cc:	00f0021f 			@ <UNDEFINED> instruction: 00f0021f
    13d0:	01370000 			@ <UNDEFINED> instruction: 01370000
    13d4:	01020000 			@ <UNDEFINED> instruction: 01020000
    13d8:	020f021f 			@ <UNDEFINED> instruction: 020f021f
    13dc:	00000170 			@ <UNDEFINED> instruction: 00000170
    13e0:	00017001 			@ <UNDEFINED> instruction: 00017001
    13e4:	05000100 			@ <UNDEFINED> instruction: 05000100
    13e8:	00108002 			@ <UNDEFINED> instruction: 00108002
    13ec:	00ee0300 			@ <UNDEFINED> instruction: 00ee0300
    13f0:	2f2f2101 			@ <UNDEFINED> instruction: 2f2f2101
    13f4:	2f2f2f2f 			@ <UNDEFINED> instruction: 2f2f2f2f
    13f8:	2f2f312f 			@ <UNDEFINED> instruction: 2f2f312f
    13fc:	2f2f2f30 			@ <UNDEFINED> instruction: 2f2f2f30
    1400:	2f2f232f 			@ <UNDEFINED> instruction: 2f2f232f
    1404:	2f2f2f2f 			@ <UNDEFINED> instruction: 2f2f2f2f
    1408:	2f2f2f23 			@ <UNDEFINED> instruction: 2f2f2f23
    140c:	232f2f2f 			@ <UNDEFINED> instruction: 232f2f2f
    1410:	2f2f2f2f 			@ <UNDEFINED> instruction: 2f2f2f2f
    1414:	212f2f2f 			@ <UNDEFINED> instruction: 212f2f2f
    1418:	21212124 			@ <UNDEFINED> instruction: 21212124
    141c:	2f2f2222 			@ <UNDEFINED> instruction: 2f2f2222
    1420:	2f2f2f32 			@ <UNDEFINED> instruction: 2f2f2f32
    1424:	2f2f2f2f 			@ <UNDEFINED> instruction: 2f2f2f2f
    1428:	212f212f 			@ <UNDEFINED> instruction: 212f212f
    142c:	0001022f 			@ <UNDEFINED> instruction: 0001022f
    1430:	Address 0x1430 is out of bounds.


Disassembly of section .debug_str:

00000000 <.debug_str>:
   0:	676e6f6c 			@ <UNDEFINED> instruction: 676e6f6c
   4:	6e6f6c20 			@ <UNDEFINED> instruction: 6e6f6c20
   8:	6e692067 			@ <UNDEFINED> instruction: 6e692067
   c:	5f5f0074 			@ <UNDEFINED> instruction: 5f5f0074
  10:	78657461 			@ <UNDEFINED> instruction: 78657461
  14:	745f7469 			@ <UNDEFINED> instruction: 745f7469
  18:	73657079 			@ <UNDEFINED> instruction: 73657079
  1c:	5c3a4300 			@ <UNDEFINED> instruction: 5c3a4300
  20:	5c425c4d 	mcrrpl	12, 4, r5, r2, cr13
  24:	5c637273 			@ <UNDEFINED> instruction: 5c637273
  28:	6f6e616e 			@ <UNDEFINED> instruction: 6f6e616e
  2c:	6975622d 			@ <UNDEFINED> instruction: 6975622d
  30:	4d2d646c 			@ <UNDEFINED> instruction: 4d2d646c
  34:	57474e49 			@ <UNDEFINED> instruction: 57474e49
  38:	615c3436 			@ <UNDEFINED> instruction: 615c3436
  3c:	6e2d6d72 			@ <UNDEFINED> instruction: 6e2d6d72
  40:	2d656e6f 			@ <UNDEFINED> instruction: 2d656e6f
  44:	69626165 			@ <UNDEFINED> instruction: 69626165
  48:	7568745c 			@ <UNDEFINED> instruction: 7568745c
  4c:	765c626d 			@ <UNDEFINED> instruction: 765c626d
  50:	6d2d6537 			@ <UNDEFINED> instruction: 6d2d6537
  54:	5c70662b 			@ <UNDEFINED> instruction: 5c70662b
  58:	64726168 			@ <UNDEFINED> instruction: 64726168
  5c:	77656e5c 			@ <UNDEFINED> instruction: 77656e5c
  60:	0062696c 			@ <UNDEFINED> instruction: 0062696c
  64:	676e6f6c 			@ <UNDEFINED> instruction: 676e6f6c
  68:	6e6f6c20 			@ <UNDEFINED> instruction: 6e6f6c20
  6c:	6e752067 			@ <UNDEFINED> instruction: 6e752067
  70:	6e676973 			@ <UNDEFINED> instruction: 6e676973
  74:	69206465 			@ <UNDEFINED> instruction: 69206465
  78:	5f00746e 			@ <UNDEFINED> instruction: 5f00746e
  7c:	5f74655f 			@ <UNDEFINED> instruction: 5f74655f
  80:	00617863 			@ <UNDEFINED> instruction: 00617863
  84:	69736e75 			@ <UNDEFINED> instruction: 69736e75
  88:	64656e67 			@ <UNDEFINED> instruction: 64656e67
  8c:	61686320 			@ <UNDEFINED> instruction: 61686320
  90:	3a430072 			@ <UNDEFINED> instruction: 3a430072
  94:	422f4d2f 			@ <UNDEFINED> instruction: 422f4d2f
  98:	6372732f 			@ <UNDEFINED> instruction: 6372732f
  9c:	77656e2f 			@ <UNDEFINED> instruction: 77656e2f
  a0:	2d62696c 			@ <UNDEFINED> instruction: 2d62696c
  a4:	2e352e34 			@ <UNDEFINED> instruction: 2e352e34
  a8:	30322e30 			@ <UNDEFINED> instruction: 30322e30
  ac:	32313432 			@ <UNDEFINED> instruction: 32313432
  b0:	6e2f3133 			@ <UNDEFINED> instruction: 6e2f3133
  b4:	696c7765 			@ <UNDEFINED> instruction: 696c7765
  b8:	696c2f62 			@ <UNDEFINED> instruction: 696c2f62
  bc:	732f6362 			@ <UNDEFINED> instruction: 732f6362
  c0:	696c6474 			@ <UNDEFINED> instruction: 696c6474
  c4:	74612f62 			@ <UNDEFINED> instruction: 74612f62
  c8:	74697865 			@ <UNDEFINED> instruction: 74697865
  cc:	4700632e 			@ <UNDEFINED> instruction: 4700632e
  d0:	4320554e 			@ <UNDEFINED> instruction: 4320554e
  d4:	31203731 			@ <UNDEFINED> instruction: 31203731
  d8:	2e332e33 			@ <UNDEFINED> instruction: 2e332e33
  dc:	6d2d2030 			@ <UNDEFINED> instruction: 6d2d2030
  e0:	616f6c66 			@ <UNDEFINED> instruction: 616f6c66
  e4:	62612d74 			@ <UNDEFINED> instruction: 62612d74
  e8:	61683d69 			@ <UNDEFINED> instruction: 61683d69
  ec:	2d206472 			@ <UNDEFINED> instruction: 2d206472
  f0:	7568746d 			@ <UNDEFINED> instruction: 7568746d
  f4:	2d20626d 			@ <UNDEFINED> instruction: 2d20626d
  f8:	6f6c666d 			@ <UNDEFINED> instruction: 6f6c666d
  fc:	612d7461 			@ <UNDEFINED> instruction: 612d7461
 100:	683d6962 			@ <UNDEFINED> instruction: 683d6962
 104:	20647261 			@ <UNDEFINED> instruction: 20647261
 108:	72616d2d 			@ <UNDEFINED> instruction: 72616d2d
 10c:	613d6863 			@ <UNDEFINED> instruction: 613d6863
 110:	37766d72 			@ <UNDEFINED> instruction: 37766d72
 114:	2b6d2d65 			@ <UNDEFINED> instruction: 2b6d2d65
 118:	2d207066 			@ <UNDEFINED> instruction: 2d207066
 11c:	4f2d2067 			@ <UNDEFINED> instruction: 4f2d2067
 120:	662d2032 			@ <UNDEFINED> instruction: 662d2032
 124:	622d6f6e 			@ <UNDEFINED> instruction: 622d6f6e
 128:	746c6975 			@ <UNDEFINED> instruction: 746c6975
 12c:	5f006e69 			@ <UNDEFINED> instruction: 5f006e69
 130:	6765725f 			@ <UNDEFINED> instruction: 6765725f
 134:	65747369 			@ <UNDEFINED> instruction: 65747369
 138:	78655f72 			@ <UNDEFINED> instruction: 78655f72
 13c:	72707469 			@ <UNDEFINED> instruction: 72707469
 140:	7300636f 	movwvc	r6, #879	@ 0x36f
 144:	74726f68 			@ <UNDEFINED> instruction: 74726f68
 148:	736e7520 			@ <UNDEFINED> instruction: 736e7520
 14c:	656e6769 			@ <UNDEFINED> instruction: 656e6769
 150:	6e692064 			@ <UNDEFINED> instruction: 6e692064
 154:	6f6c0074 			@ <UNDEFINED> instruction: 6f6c0074
 158:	6420676e 			@ <UNDEFINED> instruction: 6420676e
 15c:	6c62756f 			@ <UNDEFINED> instruction: 6c62756f
 160:	68730065 			@ <UNDEFINED> instruction: 68730065
 164:	2074726f 			@ <UNDEFINED> instruction: 2074726f
 168:	00746e69 			@ <UNDEFINED> instruction: 00746e69
 16c:	74655f5f 			@ <UNDEFINED> instruction: 74655f5f
 170:	6574615f 			@ <UNDEFINED> instruction: 6574615f
 174:	00746978 			@ <UNDEFINED> instruction: 00746978
 178:	74655f5f 			@ <UNDEFINED> instruction: 74655f5f
 17c:	656e6f5f 			@ <UNDEFINED> instruction: 656e6f5f
 180:	00746978 			@ <UNDEFINED> instruction: 00746978
 184:	6978655f 			@ <UNDEFINED> instruction: 6978655f
 188:	5f5f0074 			@ <UNDEFINED> instruction: 5f5f0074
 18c:	6c6c6163 			@ <UNDEFINED> instruction: 6c6c6163
 190:	6978655f 			@ <UNDEFINED> instruction: 6978655f
 194:	6f727074 			@ <UNDEFINED> instruction: 6f727074
 198:	43007363 	movwmi	r7, #867	@ 0x363
 19c:	2f4d2f3a 			@ <UNDEFINED> instruction: 2f4d2f3a
 1a0:	72732f42 			@ <UNDEFINED> instruction: 72732f42
 1a4:	656e2f63 			@ <UNDEFINED> instruction: 656e2f63
 1a8:	62696c77 			@ <UNDEFINED> instruction: 62696c77
 1ac:	352e342d 			@ <UNDEFINED> instruction: 352e342d
 1b0:	322e302e 			@ <UNDEFINED> instruction: 322e302e
 1b4:	31343230 			@ <UNDEFINED> instruction: 31343230
 1b8:	2f313332 			@ <UNDEFINED> instruction: 2f313332
 1bc:	6c77656e 			@ <UNDEFINED> instruction: 6c77656e
 1c0:	6c2f6269 			@ <UNDEFINED> instruction: 6c2f6269
 1c4:	2f636269 			@ <UNDEFINED> instruction: 2f636269
 1c8:	6c647473 			@ <UNDEFINED> instruction: 6c647473
 1cc:	652f6269 			@ <UNDEFINED> instruction: 652f6269
 1d0:	2e746978 			@ <UNDEFINED> instruction: 2e746978
 1d4:	6f630063 			@ <UNDEFINED> instruction: 6f630063
 1d8:	5f006564 			@ <UNDEFINED> instruction: 5f006564
 1dc:	6474735f 			@ <UNDEFINED> instruction: 6474735f
 1e0:	655f6f69 			@ <UNDEFINED> instruction: 655f6f69
 1e4:	5f746978 			@ <UNDEFINED> instruction: 5f746978
 1e8:	646e6168 			@ <UNDEFINED> instruction: 646e6168
 1ec:	0072656c 			@ <UNDEFINED> instruction: 0072656c
 1f0:	49445756 			@ <UNDEFINED> instruction: 49445756
 1f4:	5f5f0047 			@ <UNDEFINED> instruction: 5f5f0047
 1f8:	6f6c6373 			@ <UNDEFINED> instruction: 6f6c6373
 1fc:	5f006573 			@ <UNDEFINED> instruction: 5f006573
 200:	6373696d 			@ <UNDEFINED> instruction: 6373696d
 204:	63775f00 			@ <UNDEFINED> instruction: 63775f00
 208:	626d6f74 			@ <UNDEFINED> instruction: 626d6f74
 20c:	6174735f 			@ <UNDEFINED> instruction: 6174735f
 210:	4f006574 			@ <UNDEFINED> instruction: 4f006574
 214:	52454854 			@ <UNDEFINED> instruction: 52454854
 218:	665f5f00 			@ <UNDEFINED> instruction: 665f5f00
 21c:	6f6c5f70 			@ <UNDEFINED> instruction: 6f6c5f70
 220:	615f6b63 			@ <UNDEFINED> instruction: 615f6b63
 224:	5f006c6c 			@ <UNDEFINED> instruction: 5f006c6c
 228:	00383472 			@ <UNDEFINED> instruction: 00383472
 22c:	69735f5f 			@ <UNDEFINED> instruction: 69735f5f
 230:	0074696e 			@ <UNDEFINED> instruction: 0074696e
 234:	66735f5f 	uhsaxvs	r5, r3, pc	@ <UNPREDICTABLE>
 238:	735f0070 			@ <UNDEFINED> instruction: 735f0070
 23c:	616e6769 			@ <UNDEFINED> instruction: 616e6769
 240:	75625f6c 			@ <UNDEFINED> instruction: 75625f6c
 244:	6c5f0066 	mrrcvs	0, 6, r0, pc, cr6	@ <UNPREDICTABLE>
 248:	69736662 			@ <UNDEFINED> instruction: 69736662
 24c:	5f00657a 			@ <UNDEFINED> instruction: 5f00657a
 250:	67616c66 			@ <UNDEFINED> instruction: 67616c66
 254:	6c670073 			@ <UNDEFINED> instruction: 6c670073
 258:	6c61626f 			@ <UNDEFINED> instruction: 6c61626f
 25c:	6474735f 			@ <UNDEFINED> instruction: 6474735f
 260:	695f6f69 			@ <UNDEFINED> instruction: 695f6f69
 264:	0074696e 			@ <UNDEFINED> instruction: 0074696e
 268:	7272655f 			@ <UNDEFINED> instruction: 7272655f
 26c:	53006f6e 	movwpl	r6, #3950	@ 0xf6e
 270:	00524154 			@ <UNDEFINED> instruction: 00524154
 274:	66735f5f 	uhsaxvs	r5, r3, pc	@ <UNPREDICTABLE>
 278:	6f6c5f70 			@ <UNDEFINED> instruction: 6f6c5f70
 27c:	725f6b63 			@ <UNDEFINED> instruction: 725f6b63
 280:	61656c65 			@ <UNDEFINED> instruction: 61656c65
 284:	5f006573 			@ <UNDEFINED> instruction: 5f006573
 288:	7473626d 			@ <UNDEFINED> instruction: 7473626d
 28c:	00657461 			@ <UNDEFINED> instruction: 00657461
 290:	6165725f 			@ <UNDEFINED> instruction: 6165725f
 294:	6d5f0064 			@ <UNDEFINED> instruction: 6d5f0064
 298:	656c7262 			@ <UNDEFINED> instruction: 656c7262
 29c:	74735f6e 			@ <UNDEFINED> instruction: 74735f6e
 2a0:	00657461 			@ <UNDEFINED> instruction: 00657461
 2a4:	72735f5f 			@ <UNDEFINED> instruction: 72735f5f
 2a8:	00646165 			@ <UNDEFINED> instruction: 00646165
 2ac:	6474735f 			@ <UNDEFINED> instruction: 6474735f
 2b0:	0074756f 			@ <UNDEFINED> instruction: 0074756f
 2b4:	6f70665f 			@ <UNDEFINED> instruction: 6f70665f
 2b8:	00745f73 			@ <UNDEFINED> instruction: 00745f73
 2bc:	6e756f66 			@ <UNDEFINED> instruction: 6e756f66
 2c0:	635f0064 			@ <UNDEFINED> instruction: 635f0064
 2c4:	696b6f6f 			@ <UNDEFINED> instruction: 696b6f6f
 2c8:	66730065 			@ <UNDEFINED> instruction: 66730065
 2cc:	65726f6d 			@ <UNDEFINED> instruction: 65726f6d
 2d0:	65756c67 			@ <UNDEFINED> instruction: 65756c67
 2d4:	69425f00 			@ <UNDEFINED> instruction: 69425f00
 2d8:	746e6967 			@ <UNDEFINED> instruction: 746e6967
 2dc:	4f4d5300 			@ <UNDEFINED> instruction: 4f4d5300
 2e0:	5f5f0044 			@ <UNDEFINED> instruction: 5f5f0044
 2e4:	775f6d74 			@ <UNDEFINED> instruction: 775f6d74
 2e8:	00796164 			@ <UNDEFINED> instruction: 00796164
 2ec:	77735f5f 			@ <UNDEFINED> instruction: 77735f5f
 2f0:	65746972 			@ <UNDEFINED> instruction: 65746972
 2f4:	77665f00 			@ <UNDEFINED> instruction: 77665f00
 2f8:	5f6b6c61 			@ <UNDEFINED> instruction: 5f6b6c61
 2fc:	756c6773 			@ <UNDEFINED> instruction: 756c6773
 300:	725f0065 			@ <UNDEFINED> instruction: 725f0065
 304:	6c757365 			@ <UNDEFINED> instruction: 6c757365
 308:	6c630074 			@ <UNDEFINED> instruction: 6c630074
 30c:	756e6165 			@ <UNDEFINED> instruction: 756e6165
 310:	74735f70 			@ <UNDEFINED> instruction: 74735f70
 314:	006f6964 			@ <UNDEFINED> instruction: 006f6964
 318:	6d745f5f 			@ <UNDEFINED> instruction: 6d745f5f
 31c:	756f685f 			@ <UNDEFINED> instruction: 756f685f
 320:	5f5f0072 			@ <UNDEFINED> instruction: 5f5f0072
 324:	6e756f63 			@ <UNDEFINED> instruction: 6e756f63
 328:	5f5f0074 			@ <UNDEFINED> instruction: 5f5f0074
 32c:	6d5f6d74 			@ <UNDEFINED> instruction: 6d5f6d74
 330:	5f006e69 			@ <UNDEFINED> instruction: 5f006e69
 334:	75706d69 			@ <UNDEFINED> instruction: 75706d69
 338:	645f6572 			@ <UNDEFINED> instruction: 645f6572
 33c:	00617461 			@ <UNDEFINED> instruction: 00617461
 340:	6e61725f 			@ <UNDEFINED> instruction: 6e61725f
 344:	00383464 			@ <UNDEFINED> instruction: 00383464
 348:	7365725f 			@ <UNDEFINED> instruction: 7365725f
 34c:	5f746c75 			@ <UNDEFINED> instruction: 5f746c75
 350:	615f006b 			@ <UNDEFINED> instruction: 615f006b
 354:	69746373 			@ <UNDEFINED> instruction: 69746373
 358:	625f656d 			@ <UNDEFINED> instruction: 625f656d
 35c:	5f006675 			@ <UNDEFINED> instruction: 5f006675
 360:	4946735f 			@ <UNDEFINED> instruction: 4946735f
 364:	5f00454c 			@ <UNDEFINED> instruction: 5f00454c
 368:	00736477 			@ <UNDEFINED> instruction: 00736477
 36c:	66735f5f 	uhsaxvs	r5, r3, pc	@ <UNPREDICTABLE>
 370:	6f6c5f70 			@ <UNDEFINED> instruction: 6f6c5f70
 374:	615f6b63 			@ <UNDEFINED> instruction: 615f6b63
 378:	69757163 			@ <UNDEFINED> instruction: 69757163
 37c:	5f006572 			@ <UNDEFINED> instruction: 5f006572
 380:	4c49465f 	mcrrmi	6, 5, r4, r9, cr15
 384:	6f5f0045 			@ <UNDEFINED> instruction: 6f5f0045
 388:	65736666 			@ <UNDEFINED> instruction: 65736666
 38c:	5f5f0074 			@ <UNDEFINED> instruction: 5f5f0074
 390:	755f7066 			@ <UNDEFINED> instruction: 755f7066
 394:	636f6c6e 			@ <UNDEFINED> instruction: 636f6c6e
 398:	414d006b 			@ <UNDEFINED> instruction: 414d006b
 39c:	54535f58 			@ <UNDEFINED> instruction: 54535f58
 3a0:	00455441 			@ <UNDEFINED> instruction: 00455441
 3a4:	656d655f 			@ <UNDEFINED> instruction: 656d655f
 3a8:	6e656772 			@ <UNDEFINED> instruction: 6e656772
 3ac:	57007963 			@ <UNDEFINED> instruction: 57007963
 3b0:	48544449 			@ <UNDEFINED> instruction: 48544449
 3b4:	52455a00 			@ <UNDEFINED> instruction: 52455a00
 3b8:	4f44004f 			@ <UNDEFINED> instruction: 4f44004f
 3bc:	7300454e 	movwvc	r4, #1358	@ 0x54e
 3c0:	5f657a69 			@ <UNDEFINED> instruction: 5f657a69
 3c4:	5f5f0074 			@ <UNDEFINED> instruction: 5f5f0074
 3c8:	735f6d74 			@ <UNDEFINED> instruction: 735f6d74
 3cc:	5f006365 			@ <UNDEFINED> instruction: 5f006365
 3d0:	7465725f 			@ <UNDEFINED> instruction: 7465725f
 3d4:	65677261 			@ <UNDEFINED> instruction: 65677261
 3d8:	6f6c5f74 			@ <UNDEFINED> instruction: 6f6c5f74
 3dc:	695f6b63 			@ <UNDEFINED> instruction: 695f6b63
 3e0:	5f74696e 			@ <UNDEFINED> instruction: 5f74696e
 3e4:	75636572 			@ <UNDEFINED> instruction: 75636572
 3e8:	76697372 			@ <UNDEFINED> instruction: 76697372
 3ec:	5f5f0065 			@ <UNDEFINED> instruction: 5f5f0065
 3f0:	6c5f7066 	mrrcvs	0, 6, r7, pc, cr6	@ <UNPREDICTABLE>
 3f4:	006b636f 			@ <UNDEFINED> instruction: 006b636f
 3f8:	6d745f5f 			@ <UNDEFINED> instruction: 6d745f5f
 3fc:	6164795f 			@ <UNDEFINED> instruction: 6164795f
 400:	695f0079 			@ <UNDEFINED> instruction: 695f0079
 404:	4d00636e 			@ <UNDEFINED> instruction: 4d00636e
 408:	5246444f 			@ <UNDEFINED> instruction: 5246444f
 40c:	626d5f00 			@ <UNDEFINED> instruction: 626d5f00
 410:	6f747273 			@ <UNDEFINED> instruction: 6f747273
 414:	5f736377 			@ <UNDEFINED> instruction: 5f736377
 418:	74617473 			@ <UNDEFINED> instruction: 74617473
 41c:	74730065 			@ <UNDEFINED> instruction: 74730065
 420:	5f6e6964 			@ <UNDEFINED> instruction: 5f6e6964
 424:	74696e69 			@ <UNDEFINED> instruction: 74696e69
 428:	765f5f00 			@ <UNDEFINED> instruction: 765f5f00
 42c:	65756c61 			@ <UNDEFINED> instruction: 65756c61
 430:	35705f00 			@ <UNDEFINED> instruction: 35705f00
 434:	6d5f0073 			@ <UNDEFINED> instruction: 6d5f0073
 438:	6f6c6c61 			@ <UNDEFINED> instruction: 6f6c6c61
 43c:	00725f63 			@ <UNDEFINED> instruction: 00725f63
 440:	7363775f 			@ <UNDEFINED> instruction: 7363775f
 444:	6d6f7472 			@ <UNDEFINED> instruction: 6d6f7472
 448:	735f7362 			@ <UNDEFINED> instruction: 735f7362
 44c:	65746174 			@ <UNDEFINED> instruction: 65746174
 450:	626d5f00 			@ <UNDEFINED> instruction: 626d5f00
 454:	5f6e656c 			@ <UNDEFINED> instruction: 5f6e656c
 458:	74617473 			@ <UNDEFINED> instruction: 74617473
 45c:	49440065 			@ <UNDEFINED> instruction: 49440065
 460:	00544947 			@ <UNDEFINED> instruction: 00544947
 464:	6d745f5f 			@ <UNDEFINED> instruction: 6d745f5f
 468:	61646d5f 			@ <UNDEFINED> instruction: 61646d5f
 46c:	735f0079 			@ <UNDEFINED> instruction: 735f0079
 470:	665f6769 			@ <UNDEFINED> instruction: 665f6769
 474:	00636e75 			@ <UNDEFINED> instruction: 00636e75
 478:	72626d5f 			@ <UNDEFINED> instruction: 72626d5f
 47c:	63776f74 			@ <UNDEFINED> instruction: 63776f74
 480:	6174735f 			@ <UNDEFINED> instruction: 6174735f
 484:	5f006574 			@ <UNDEFINED> instruction: 5f006574
 488:	5f70665f 			@ <UNDEFINED> instruction: 5f70665f
 48c:	6f6c6e75 			@ <UNDEFINED> instruction: 6f6c6e75
 490:	615f6b63 			@ <UNDEFINED> instruction: 615f6b63
 494:	56006c6c 			@ <UNDEFINED> instruction: 56006c6c
 498:	00505241 			@ <UNDEFINED> instruction: 00505241
 49c:	65647473 			@ <UNDEFINED> instruction: 65647473
 4a0:	695f7272 			@ <UNDEFINED> instruction: 695f7272
 4a4:	0074696e 			@ <UNDEFINED> instruction: 0074696e
 4a8:	57524156 			@ <UNDEFINED> instruction: 57524156
 4ac:	6c665f00 			@ <UNDEFINED> instruction: 6c665f00
 4b0:	5f6b636f 			@ <UNDEFINED> instruction: 5f6b636f
 4b4:	5f5f0074 			@ <UNDEFINED> instruction: 5f5f0074
 4b8:	00686377 			@ <UNDEFINED> instruction: 00686377
 4bc:	626f695f 			@ <UNDEFINED> instruction: 626f695f
 4c0:	6c670073 			@ <UNDEFINED> instruction: 6c670073
 4c4:	775f6575 			@ <UNDEFINED> instruction: 775f6575
 4c8:	5f687469 			@ <UNDEFINED> instruction: 5f687469
 4cc:	656c6966 			@ <UNDEFINED> instruction: 656c6966
 4d0:	74735f00 			@ <UNDEFINED> instruction: 74735f00
 4d4:	006e6964 			@ <UNDEFINED> instruction: 006e6964
 4d8:	6d61675f 			@ <UNDEFINED> instruction: 6d61675f
 4dc:	735f616d 			@ <UNDEFINED> instruction: 735f616d
 4e0:	676e6769 			@ <UNDEFINED> instruction: 676e6769
 4e4:	43006d61 	movwmi	r6, #3425	@ 0xd61
 4e8:	2f4d2f3a 			@ <UNDEFINED> instruction: 2f4d2f3a
 4ec:	72732f42 			@ <UNDEFINED> instruction: 72732f42
 4f0:	656e2f63 			@ <UNDEFINED> instruction: 656e2f63
 4f4:	62696c77 			@ <UNDEFINED> instruction: 62696c77
 4f8:	352e342d 			@ <UNDEFINED> instruction: 352e342d
 4fc:	322e302e 			@ <UNDEFINED> instruction: 322e302e
 500:	31343230 			@ <UNDEFINED> instruction: 31343230
 504:	2f313332 			@ <UNDEFINED> instruction: 2f313332
 508:	6c77656e 			@ <UNDEFINED> instruction: 6c77656e
 50c:	6c2f6269 			@ <UNDEFINED> instruction: 6c2f6269
 510:	2f636269 			@ <UNDEFINED> instruction: 2f636269
 514:	69647473 			@ <UNDEFINED> instruction: 69647473
 518:	69662f6f 			@ <UNDEFINED> instruction: 69662f6f
 51c:	7066646e 			@ <UNDEFINED> instruction: 7066646e
 520:	5f00632e 			@ <UNDEFINED> instruction: 5f00632e
 524:	65736162 			@ <UNDEFINED> instruction: 65736162
 528:	4c4f4400 	mcrrmi	4, 0, r4, pc, cr0
 52c:	0052414c 			@ <UNDEFINED> instruction: 0052414c
 530:	6572665f 			@ <UNDEFINED> instruction: 6572665f
 534:	73696c65 			@ <UNDEFINED> instruction: 73696c65
 538:	6d5f0074 			@ <UNDEFINED> instruction: 6d5f0074
 53c:	00746c75 			@ <UNDEFINED> instruction: 00746c75
 540:	4c555f5f 	mrrcmi	15, 5, r5, r5, cr15	@ <UNPREDICTABLE>
 544:	00676e6f 			@ <UNDEFINED> instruction: 00676e6f
 548:	7263775f 			@ <UNDEFINED> instruction: 7263775f
 54c:	626d6f74 			@ <UNDEFINED> instruction: 626d6f74
 550:	6174735f 			@ <UNDEFINED> instruction: 6174735f
 554:	6d006574 			@ <UNDEFINED> instruction: 6d006574
 558:	65736d65 			@ <UNDEFINED> instruction: 65736d65
 55c:	5f5f0074 			@ <UNDEFINED> instruction: 5f5f0074
 560:	61656c63 			@ <UNDEFINED> instruction: 61656c63
 564:	0070756e 			@ <UNDEFINED> instruction: 0070756e
 568:	73626d5f 			@ <UNDEFINED> instruction: 73626d5f
 56c:	65746174 			@ <UNDEFINED> instruction: 65746174
 570:	5f00745f 			@ <UNDEFINED> instruction: 5f00745f
 574:	6572706d 			@ <UNDEFINED> instruction: 6572706d
 578:	5f5f0063 			@ <UNDEFINED> instruction: 5f5f0063
 57c:	695f6d74 			@ <UNDEFINED> instruction: 695f6d74
 580:	74736473 			@ <UNDEFINED> instruction: 74736473
 584:	725f5f00 			@ <UNDEFINED> instruction: 725f5f00
 588:	72617465 			@ <UNDEFINED> instruction: 72617465
 58c:	5f746567 			@ <UNDEFINED> instruction: 5f746567
 590:	6b636f6c 			@ <UNDEFINED> instruction: 6b636f6c
 594:	6c65725f 			@ <UNDEFINED> instruction: 6c65725f
 598:	65736165 			@ <UNDEFINED> instruction: 65736165
 59c:	6365725f 			@ <UNDEFINED> instruction: 6365725f
 5a0:	69737275 			@ <UNDEFINED> instruction: 69737275
 5a4:	5f006576 			@ <UNDEFINED> instruction: 5f006576
 5a8:	5f6d745f 			@ <UNDEFINED> instruction: 5f6d745f
 5ac:	006e6f6d 			@ <UNDEFINED> instruction: 006e6f6d
 5b0:	434f4c5f 	movtmi	r4, #64607	@ 0xfc5f
 5b4:	00545f4b 			@ <UNDEFINED> instruction: 00545f4b
 5b8:	6972775f 			@ <UNDEFINED> instruction: 6972775f
 5bc:	53006574 	movwpl	r6, #1396	@ 0x574
 5c0:	00544f44 			@ <UNDEFINED> instruction: 00544f44
 5c4:	6769735f 			@ <UNDEFINED> instruction: 6769735f
 5c8:	5f5f006e 			@ <UNDEFINED> instruction: 5f5f006e
 5cc:	62686377 			@ <UNDEFINED> instruction: 62686377
 5d0:	745f5f00 			@ <UNDEFINED> instruction: 745f5f00
 5d4:	65795f6d 			@ <UNDEFINED> instruction: 65795f6d
 5d8:	53007261 	movwpl	r7, #609	@ 0x261
 5dc:	54524154 			@ <UNDEFINED> instruction: 54524154
 5e0:	696d5f00 			@ <UNDEFINED> instruction: 696d5f00
 5e4:	725f6373 			@ <UNDEFINED> instruction: 725f6373
 5e8:	746e6565 			@ <UNDEFINED> instruction: 746e6565
 5ec:	66665f00 			@ <UNDEFINED> instruction: 66665f00
 5f0:	6873756c 			@ <UNDEFINED> instruction: 6873756c
 5f4:	5f00725f 			@ <UNDEFINED> instruction: 5f00725f
 5f8:	61636f6c 			@ <UNDEFINED> instruction: 61636f6c
 5fc:	6d69746c 			@ <UNDEFINED> instruction: 6d69746c
 600:	75625f65 			@ <UNDEFINED> instruction: 75625f65
 604:	5f5f0066 			@ <UNDEFINED> instruction: 5f5f0066
 608:	5f006673 			@ <UNDEFINED> instruction: 5f006673
 60c:	6c747663 			@ <UNDEFINED> instruction: 6c747663
 610:	5f006e65 			@ <UNDEFINED> instruction: 5f006e65
 614:	7778616d 			@ <UNDEFINED> instruction: 7778616d
 618:	5f007364 			@ <UNDEFINED> instruction: 5f007364
 61c:	6134366c 			@ <UNDEFINED> instruction: 6134366c
 620:	6675625f 			@ <UNDEFINED> instruction: 6675625f
 624:	6c625f00 			@ <UNDEFINED> instruction: 6c625f00
 628:	7a69736b 			@ <UNDEFINED> instruction: 7a69736b
 62c:	5f5f0065 			@ <UNDEFINED> instruction: 5f5f0065
 630:	53006d74 	movwpl	r6, #3444	@ 0xd74
 634:	00434550 			@ <UNDEFINED> instruction: 00434550
 638:	6f696e5f 			@ <UNDEFINED> instruction: 6f696e5f
 63c:	77007362 			@ <UNDEFINED> instruction: 77007362
 640:	5f746e69 			@ <UNDEFINED> instruction: 5f746e69
 644:	5f5f0074 			@ <UNDEFINED> instruction: 5f5f0074
 648:	6b636f6c 			@ <UNDEFINED> instruction: 6b636f6c
 64c:	76635f00 			@ <UNDEFINED> instruction: 76635f00
 650:	66756274 			@ <UNDEFINED> instruction: 66756274
 654:	45525000 			@ <UNDEFINED> instruction: 45525000
 658:	675f0043 			@ <UNDEFINED> instruction: 675f0043
 65c:	61647465 			@ <UNDEFINED> instruction: 61647465
 660:	655f6574 			@ <UNDEFINED> instruction: 655f6574
 664:	5f007272 			@ <UNDEFINED> instruction: 5f007272
 668:	00646461 			@ <UNDEFINED> instruction: 00646461
 66c:	414c4653 			@ <UNDEFINED> instruction: 414c4653
 670:	5f5f0047 			@ <UNDEFINED> instruction: 5f5f0047
 674:	66756273 			@ <UNDEFINED> instruction: 66756273
 678:	6c675f00 			@ <UNDEFINED> instruction: 6c675f00
 67c:	5f006575 			@ <UNDEFINED> instruction: 5f006575
 680:	6c67735f 			@ <UNDEFINED> instruction: 6c67735f
 684:	5f006575 			@ <UNDEFINED> instruction: 5f006575
 688:	74727473 			@ <UNDEFINED> instruction: 74727473
 68c:	6c5f6b6f 	mrrcvs	11, 6, r6, pc, cr15	@ <UNPREDICTABLE>
 690:	00747361 			@ <UNDEFINED> instruction: 00747361
 694:	74626d5f 			@ <UNDEFINED> instruction: 74626d5f
 698:	5f63776f 			@ <UNDEFINED> instruction: 5f63776f
 69c:	74617473 			@ <UNDEFINED> instruction: 74617473
 6a0:	6c5f0065 	mrrcvs	0, 6, r0, pc, cr5	@ <UNPREDICTABLE>
 6a4:	6c61636f 			@ <UNDEFINED> instruction: 6c61636f
 6a8:	5f5f0065 			@ <UNDEFINED> instruction: 5f5f0065
 6ac:	6b636f6c 			@ <UNDEFINED> instruction: 6b636f6c
 6b0:	735f5f5f 			@ <UNDEFINED> instruction: 735f5f5f
 6b4:	725f7066 			@ <UNDEFINED> instruction: 725f7066
 6b8:	72756365 			@ <UNDEFINED> instruction: 72756365
 6bc:	65766973 			@ <UNDEFINED> instruction: 65766973
 6c0:	74756d5f 			@ <UNDEFINED> instruction: 74756d5f
 6c4:	5f007865 			@ <UNDEFINED> instruction: 5f007865
 6c8:	7465725f 			@ <UNDEFINED> instruction: 7465725f
 6cc:	65677261 			@ <UNDEFINED> instruction: 65677261
 6d0:	6f6c5f74 			@ <UNDEFINED> instruction: 6f6c5f74
 6d4:	615f6b63 			@ <UNDEFINED> instruction: 615f6b63
 6d8:	69757163 			@ <UNDEFINED> instruction: 69757163
 6dc:	725f6572 			@ <UNDEFINED> instruction: 725f6572
 6e0:	72756365 			@ <UNDEFINED> instruction: 72756365
 6e4:	65766973 			@ <UNDEFINED> instruction: 65766973
 6e8:	64747300 			@ <UNDEFINED> instruction: 64747300
 6ec:	5f74756f 			@ <UNDEFINED> instruction: 5f74756f
 6f0:	74696e69 			@ <UNDEFINED> instruction: 74696e69
 6f4:	69735f00 			@ <UNDEFINED> instruction: 69735f00
 6f8:	5f00657a 			@ <UNDEFINED> instruction: 5f00657a
 6fc:	5f66666f 			@ <UNDEFINED> instruction: 5f66666f
 700:	6e5f0074 			@ <UNDEFINED> instruction: 6e5f0074
 704:	00667562 			@ <UNDEFINED> instruction: 00667562
 708:	616c665f 			@ <UNDEFINED> instruction: 616c665f
 70c:	00327367 			@ <UNDEFINED> instruction: 00327367
 710:	49445056 			@ <UNDEFINED> instruction: 49445056
 714:	414d0047 			@ <UNDEFINED> instruction: 414d0047
 718:	48435f58 			@ <UNDEFINED> instruction: 48435f58
 71c:	414c435f 			@ <UNDEFINED> instruction: 414c435f
 720:	5f005353 			@ <UNDEFINED> instruction: 5f005353
 724:	64656573 			@ <UNDEFINED> instruction: 64656573
 728:	61725f00 			@ <UNDEFINED> instruction: 61725f00
 72c:	6e5f646e 			@ <UNDEFINED> instruction: 6e5f646e
 730:	00747865 			@ <UNDEFINED> instruction: 00747865
 734:	6f6c5f5f 			@ <UNDEFINED> instruction: 6f6c5f5f
 738:	656c6163 			@ <UNDEFINED> instruction: 656c6163
 73c:	5f00745f 			@ <UNDEFINED> instruction: 5f00745f
 740:	6b656573 			@ <UNDEFINED> instruction: 6b656573
 744:	74735f00 			@ <UNDEFINED> instruction: 74735f00
 748:	72726564 			@ <UNDEFINED> instruction: 72726564
 74c:	62755f00 			@ <UNDEFINED> instruction: 62755f00
 750:	5f006675 			@ <UNDEFINED> instruction: 5f006675
 754:	6573735f 			@ <UNDEFINED> instruction: 6573735f
 758:	43006b65 	movwmi	r6, #2917	@ 0xb65
 75c:	2f4d2f3a 			@ <UNDEFINED> instruction: 2f4d2f3a
 760:	72732f42 			@ <UNDEFINED> instruction: 72732f42
 764:	656e2f63 			@ <UNDEFINED> instruction: 656e2f63
 768:	62696c77 			@ <UNDEFINED> instruction: 62696c77
 76c:	352e342d 			@ <UNDEFINED> instruction: 352e342d
 770:	322e302e 			@ <UNDEFINED> instruction: 322e302e
 774:	31343230 			@ <UNDEFINED> instruction: 31343230
 778:	2f313332 			@ <UNDEFINED> instruction: 2f313332
 77c:	6c77656e 			@ <UNDEFINED> instruction: 6c77656e
 780:	6c2f6269 			@ <UNDEFINED> instruction: 6c2f6269
 784:	2f636269 			@ <UNDEFINED> instruction: 2f636269
 788:	69727473 			@ <UNDEFINED> instruction: 69727473
 78c:	6d2f676e 			@ <UNDEFINED> instruction: 6d2f676e
 790:	65736d65 			@ <UNDEFINED> instruction: 65736d65
 794:	00632e74 			@ <UNDEFINED> instruction: 00632e74
 798:	67696c61 			@ <UNDEFINED> instruction: 67696c61
 79c:	5f64656e 			@ <UNDEFINED> instruction: 5f64656e
 7a0:	72646461 			@ <UNDEFINED> instruction: 72646461
 7a4:	66756200 			@ <UNDEFINED> instruction: 66756200
 7a8:	00726566 			@ <UNDEFINED> instruction: 00726566
 7ac:	6e695f5f 			@ <UNDEFINED> instruction: 6e695f5f
 7b0:	615f7469 			@ <UNDEFINED> instruction: 615f7469
 7b4:	79617272 			@ <UNDEFINED> instruction: 79617272
 7b8:	6174735f 			@ <UNDEFINED> instruction: 6174735f
 7bc:	5f007472 			@ <UNDEFINED> instruction: 5f007472
 7c0:	62696c5f 			@ <UNDEFINED> instruction: 62696c5f
 7c4:	6e695f63 			@ <UNDEFINED> instruction: 6e695f63
 7c8:	615f7469 			@ <UNDEFINED> instruction: 615f7469
 7cc:	79617272 			@ <UNDEFINED> instruction: 79617272
 7d0:	705f5f00 			@ <UNDEFINED> instruction: 705f5f00
 7d4:	6e696572 			@ <UNDEFINED> instruction: 6e696572
 7d8:	615f7469 			@ <UNDEFINED> instruction: 615f7469
 7dc:	79617272 			@ <UNDEFINED> instruction: 79617272
 7e0:	6174735f 			@ <UNDEFINED> instruction: 6174735f
 7e4:	43007472 	movwmi	r7, #1138	@ 0x472
 7e8:	2f4d2f3a 			@ <UNDEFINED> instruction: 2f4d2f3a
 7ec:	72732f42 			@ <UNDEFINED> instruction: 72732f42
 7f0:	656e2f63 			@ <UNDEFINED> instruction: 656e2f63
 7f4:	62696c77 			@ <UNDEFINED> instruction: 62696c77
 7f8:	352e342d 			@ <UNDEFINED> instruction: 352e342d
 7fc:	322e302e 			@ <UNDEFINED> instruction: 322e302e
 800:	31343230 			@ <UNDEFINED> instruction: 31343230
 804:	2f313332 			@ <UNDEFINED> instruction: 2f313332
 808:	6c77656e 			@ <UNDEFINED> instruction: 6c77656e
 80c:	6c2f6269 			@ <UNDEFINED> instruction: 6c2f6269
 810:	2f636269 			@ <UNDEFINED> instruction: 2f636269
 814:	6373696d 			@ <UNDEFINED> instruction: 6373696d
 818:	696e692f 			@ <UNDEFINED> instruction: 696e692f
 81c:	00632e74 			@ <UNDEFINED> instruction: 00632e74
 820:	72705f5f 			@ <UNDEFINED> instruction: 72705f5f
 824:	696e6965 			@ <UNDEFINED> instruction: 696e6965
 828:	72615f74 			@ <UNDEFINED> instruction: 72615f74
 82c:	5f796172 			@ <UNDEFINED> instruction: 5f796172
 830:	00646e65 			@ <UNDEFINED> instruction: 00646e65
 834:	6e695f5f 			@ <UNDEFINED> instruction: 6e695f5f
 838:	615f7469 			@ <UNDEFINED> instruction: 615f7469
 83c:	79617272 			@ <UNDEFINED> instruction: 79617272
 840:	646e655f 			@ <UNDEFINED> instruction: 646e655f
 844:	665f5f00 			@ <UNDEFINED> instruction: 665f5f00
 848:	5f696e69 			@ <UNDEFINED> instruction: 5f696e69
 84c:	61727261 			@ <UNDEFINED> instruction: 61727261
 850:	74735f79 			@ <UNDEFINED> instruction: 74735f79
 854:	00747261 			@ <UNDEFINED> instruction: 00747261
 858:	4d2f3a43 	vstmdbmi	pc!, {s6-s72}
 85c:	732f422f 			@ <UNDEFINED> instruction: 732f422f
 860:	6e2f6372 			@ <UNDEFINED> instruction: 6e2f6372
 864:	696c7765 			@ <UNDEFINED> instruction: 696c7765
 868:	2e342d62 			@ <UNDEFINED> instruction: 2e342d62
 86c:	2e302e35 			@ <UNDEFINED> instruction: 2e302e35
 870:	34323032 			@ <UNDEFINED> instruction: 34323032
 874:	31333231 			@ <UNDEFINED> instruction: 31333231
 878:	77656e2f 			@ <UNDEFINED> instruction: 77656e2f
 87c:	2f62696c 			@ <UNDEFINED> instruction: 2f62696c
 880:	6362696c 			@ <UNDEFINED> instruction: 6362696c
 884:	73696d2f 			@ <UNDEFINED> instruction: 73696d2f
 888:	69662f63 			@ <UNDEFINED> instruction: 69662f63
 88c:	632e696e 			@ <UNDEFINED> instruction: 632e696e
 890:	665f5f00 			@ <UNDEFINED> instruction: 665f5f00
 894:	5f696e69 			@ <UNDEFINED> instruction: 5f696e69
 898:	61727261 			@ <UNDEFINED> instruction: 61727261
 89c:	6e655f79 			@ <UNDEFINED> instruction: 6e655f79
 8a0:	665f0064 			@ <UNDEFINED> instruction: 665f0064
 8a4:	00696e69 			@ <UNDEFINED> instruction: 00696e69
 8a8:	696c5f5f 			@ <UNDEFINED> instruction: 696c5f5f
 8ac:	665f6362 			@ <UNDEFINED> instruction: 665f6362
 8b0:	5f696e69 			@ <UNDEFINED> instruction: 5f696e69
 8b4:	61727261 			@ <UNDEFINED> instruction: 61727261
 8b8:	3a430079 			@ <UNDEFINED> instruction: 3a430079
 8bc:	422f4d2f 			@ <UNDEFINED> instruction: 422f4d2f
 8c0:	6372732f 			@ <UNDEFINED> instruction: 6372732f
 8c4:	77656e2f 			@ <UNDEFINED> instruction: 77656e2f
 8c8:	2d62696c 			@ <UNDEFINED> instruction: 2d62696c
 8cc:	2e352e34 			@ <UNDEFINED> instruction: 2e352e34
 8d0:	30322e30 			@ <UNDEFINED> instruction: 30322e30
 8d4:	32313432 			@ <UNDEFINED> instruction: 32313432
 8d8:	6e2f3133 			@ <UNDEFINED> instruction: 6e2f3133
 8dc:	696c7765 			@ <UNDEFINED> instruction: 696c7765
 8e0:	696c2f62 			@ <UNDEFINED> instruction: 696c2f62
 8e4:	6d2f6362 			@ <UNDEFINED> instruction: 6d2f6362
 8e8:	2f637369 			@ <UNDEFINED> instruction: 2f637369
 8ec:	6b636f6c 			@ <UNDEFINED> instruction: 6b636f6c
 8f0:	5f00632e 			@ <UNDEFINED> instruction: 5f00632e
 8f4:	636f6c5f 			@ <UNDEFINED> instruction: 636f6c5f
 8f8:	5f5f5f6b 			@ <UNDEFINED> instruction: 5f5f5f6b
 8fc:	5f766e65 			@ <UNDEFINED> instruction: 5f766e65
 900:	75636572 			@ <UNDEFINED> instruction: 75636572
 904:	76697372 			@ <UNDEFINED> instruction: 76697372
 908:	756d5f65 			@ <UNDEFINED> instruction: 756d5f65
 90c:	00786574 			@ <UNDEFINED> instruction: 00786574
 910:	65725f5f 			@ <UNDEFINED> instruction: 65725f5f
 914:	67726174 			@ <UNDEFINED> instruction: 67726174
 918:	6c5f7465 	mrrcvs	4, 6, r7, pc, cr5	@ <UNPREDICTABLE>
 91c:	5f6b636f 			@ <UNDEFINED> instruction: 5f6b636f
 920:	736f6c63 			@ <UNDEFINED> instruction: 736f6c63
 924:	5f5f0065 			@ <UNDEFINED> instruction: 5f5f0065
 928:	6b636f6c 			@ <UNDEFINED> instruction: 6b636f6c
 92c:	615f5f5f 			@ <UNDEFINED> instruction: 615f5f5f
 930:	72346372 			@ <UNDEFINED> instruction: 72346372
 934:	6f646e61 			@ <UNDEFINED> instruction: 6f646e61
 938:	756d5f6d 			@ <UNDEFINED> instruction: 756d5f6d
 93c:	00786574 			@ <UNDEFINED> instruction: 00786574
 940:	65725f5f 			@ <UNDEFINED> instruction: 65725f5f
 944:	67726174 			@ <UNDEFINED> instruction: 67726174
 948:	6c5f7465 	mrrcvs	4, 6, r7, pc, cr5	@ <UNPREDICTABLE>
 94c:	5f6b636f 			@ <UNDEFINED> instruction: 5f6b636f
 950:	656c6572 			@ <UNDEFINED> instruction: 656c6572
 954:	00657361 			@ <UNDEFINED> instruction: 00657361
 958:	73756e75 			@ <UNDEFINED> instruction: 73756e75
 95c:	5f006465 			@ <UNDEFINED> instruction: 5f006465
 960:	7465725f 			@ <UNDEFINED> instruction: 7465725f
 964:	65677261 			@ <UNDEFINED> instruction: 65677261
 968:	6f6c5f74 			@ <UNDEFINED> instruction: 6f6c5f74
 96c:	695f6b63 			@ <UNDEFINED> instruction: 695f6b63
 970:	0074696e 			@ <UNDEFINED> instruction: 0074696e
 974:	65725f5f 			@ <UNDEFINED> instruction: 65725f5f
 978:	67726174 			@ <UNDEFINED> instruction: 67726174
 97c:	6c5f7465 	mrrcvs	4, 6, r7, pc, cr5	@ <UNPREDICTABLE>
 980:	5f6b636f 			@ <UNDEFINED> instruction: 5f6b636f
 984:	5f797274 			@ <UNDEFINED> instruction: 5f797274
 988:	75716361 			@ <UNDEFINED> instruction: 75716361
 98c:	5f657269 			@ <UNDEFINED> instruction: 5f657269
 990:	75636572 			@ <UNDEFINED> instruction: 75636572
 994:	76697372 			@ <UNDEFINED> instruction: 76697372
 998:	5f5f0065 			@ <UNDEFINED> instruction: 5f5f0065
 99c:	6b636f6c 			@ <UNDEFINED> instruction: 6b636f6c
 9a0:	6d5f5f5f 			@ <UNDEFINED> instruction: 6d5f5f5f
 9a4:	6f6c6c61 			@ <UNDEFINED> instruction: 6f6c6c61
 9a8:	65725f63 			@ <UNDEFINED> instruction: 65725f63
 9ac:	73727563 			@ <UNDEFINED> instruction: 73727563
 9b0:	5f657669 			@ <UNDEFINED> instruction: 5f657669
 9b4:	6574756d 			@ <UNDEFINED> instruction: 6574756d
 9b8:	5f5f0078 			@ <UNDEFINED> instruction: 5f5f0078
 9bc:	61746572 			@ <UNDEFINED> instruction: 61746572
 9c0:	74656772 			@ <UNDEFINED> instruction: 74656772
 9c4:	636f6c5f 			@ <UNDEFINED> instruction: 636f6c5f
 9c8:	6c635f6b 			@ <UNDEFINED> instruction: 6c635f6b
 9cc:	5f65736f 			@ <UNDEFINED> instruction: 5f65736f
 9d0:	75636572 			@ <UNDEFINED> instruction: 75636572
 9d4:	76697372 			@ <UNDEFINED> instruction: 76697372
 9d8:	5f5f0065 			@ <UNDEFINED> instruction: 5f5f0065
 9dc:	61746572 			@ <UNDEFINED> instruction: 61746572
 9e0:	74656772 			@ <UNDEFINED> instruction: 74656772
 9e4:	636f6c5f 			@ <UNDEFINED> instruction: 636f6c5f
 9e8:	72745f6b 			@ <UNDEFINED> instruction: 72745f6b
 9ec:	63615f79 			@ <UNDEFINED> instruction: 63615f79
 9f0:	72697571 			@ <UNDEFINED> instruction: 72697571
 9f4:	5f5f0065 			@ <UNDEFINED> instruction: 5f5f0065
 9f8:	61746572 			@ <UNDEFINED> instruction: 61746572
 9fc:	74656772 			@ <UNDEFINED> instruction: 74656772
 a00:	636f6c5f 			@ <UNDEFINED> instruction: 636f6c5f
 a04:	63615f6b 			@ <UNDEFINED> instruction: 63615f6b
 a08:	72697571 			@ <UNDEFINED> instruction: 72697571
 a0c:	5f5f0065 			@ <UNDEFINED> instruction: 5f5f0065
 a10:	6b636f6c 			@ <UNDEFINED> instruction: 6b636f6c
 a14:	615f5f5f 			@ <UNDEFINED> instruction: 615f5f5f
 a18:	69786574 			@ <UNDEFINED> instruction: 69786574
 a1c:	65725f74 			@ <UNDEFINED> instruction: 65725f74
 a20:	73727563 			@ <UNDEFINED> instruction: 73727563
 a24:	5f657669 			@ <UNDEFINED> instruction: 5f657669
 a28:	6574756d 			@ <UNDEFINED> instruction: 6574756d
 a2c:	5f5f0078 			@ <UNDEFINED> instruction: 5f5f0078
 a30:	6b636f6c 			@ <UNDEFINED> instruction: 6b636f6c
 a34:	645f5f5f 			@ <UNDEFINED> instruction: 645f5f5f
 a38:	61685f64 			@ <UNDEFINED> instruction: 61685f64
 a3c:	6d5f6873 			@ <UNDEFINED> instruction: 6d5f6873
 a40:	78657475 			@ <UNDEFINED> instruction: 78657475
 a44:	6c5f5f00 	mrrcvs	15, 0, r5, pc, cr0	@ <UNPREDICTABLE>
 a48:	5f6b636f 			@ <UNDEFINED> instruction: 5f6b636f
 a4c:	7a745f5f 			@ <UNDEFINED> instruction: 7a745f5f
 a50:	74756d5f 			@ <UNDEFINED> instruction: 74756d5f
 a54:	5f007865 			@ <UNDEFINED> instruction: 5f007865
 a58:	636f6c5f 			@ <UNDEFINED> instruction: 636f6c5f
 a5c:	5f5f5f6b 			@ <UNDEFINED> instruction: 5f5f5f6b
 a60:	715f7461 			@ <UNDEFINED> instruction: 715f7461
 a64:	6b636975 			@ <UNDEFINED> instruction: 6b636975
 a68:	6978655f 			@ <UNDEFINED> instruction: 6978655f
 a6c:	756d5f74 			@ <UNDEFINED> instruction: 756d5f74
 a70:	00786574 			@ <UNDEFINED> instruction: 00786574
 a74:	6e6f5f5f 			@ <UNDEFINED> instruction: 6e6f5f5f
 a78:	6978655f 			@ <UNDEFINED> instruction: 6978655f
 a7c:	72615f74 			@ <UNDEFINED> instruction: 72615f74
 a80:	43007367 	movwmi	r7, #871	@ 0x367
 a84:	2f4d2f3a 			@ <UNDEFINED> instruction: 2f4d2f3a
 a88:	72732f42 			@ <UNDEFINED> instruction: 72732f42
 a8c:	656e2f63 			@ <UNDEFINED> instruction: 656e2f63
 a90:	62696c77 			@ <UNDEFINED> instruction: 62696c77
 a94:	352e342d 			@ <UNDEFINED> instruction: 352e342d
 a98:	322e302e 			@ <UNDEFINED> instruction: 322e302e
 a9c:	31343230 			@ <UNDEFINED> instruction: 31343230
 aa0:	2f313332 			@ <UNDEFINED> instruction: 2f313332
 aa4:	6c77656e 			@ <UNDEFINED> instruction: 6c77656e
 aa8:	6c2f6269 			@ <UNDEFINED> instruction: 6c2f6269
 aac:	2f636269 			@ <UNDEFINED> instruction: 2f636269
 ab0:	6c647473 			@ <UNDEFINED> instruction: 6c647473
 ab4:	5f2f6269 			@ <UNDEFINED> instruction: 5f2f6269
 ab8:	6574615f 			@ <UNDEFINED> instruction: 6574615f
 abc:	2e746978 			@ <UNDEFINED> instruction: 2e746978
 ac0:	645f0063 			@ <UNDEFINED> instruction: 645f0063
 ac4:	685f6f73 			@ <UNDEFINED> instruction: 685f6f73
 ac8:	6c646e61 			@ <UNDEFINED> instruction: 6c646e61
 acc:	5f5f0065 			@ <UNDEFINED> instruction: 5f5f0065
 ad0:	78657461 			@ <UNDEFINED> instruction: 78657461
 ad4:	5f007469 			@ <UNDEFINED> instruction: 5f007469
 ad8:	635f7369 			@ <UNDEFINED> instruction: 635f7369
 adc:	5f006178 			@ <UNDEFINED> instruction: 5f006178
 ae0:	79746e66 			@ <UNDEFINED> instruction: 79746e66
 ae4:	00736570 			@ <UNDEFINED> instruction: 00736570
 ae8:	65707974 			@ <UNDEFINED> instruction: 65707974
 aec:	6e695f00 			@ <UNDEFINED> instruction: 6e695f00
 af0:	665f0064 			@ <UNDEFINED> instruction: 665f0064
 af4:	5f00736e 			@ <UNDEFINED> instruction: 5f00736e
 af8:	6574615f 			@ <UNDEFINED> instruction: 6574615f
 afc:	5f746978 			@ <UNDEFINED> instruction: 5f746978
 b00:	6d6d7564 			@ <UNDEFINED> instruction: 6d6d7564
 b04:	6f5f0079 			@ <UNDEFINED> instruction: 6f5f0079
 b08:	78655f6e 			@ <UNDEFINED> instruction: 78655f6e
 b0c:	615f7469 			@ <UNDEFINED> instruction: 615f7469
 b10:	5f736772 			@ <UNDEFINED> instruction: 5f736772
 b14:	00727470 			@ <UNDEFINED> instruction: 00727470
 b18:	74615f5f 			@ <UNDEFINED> instruction: 74615f5f
 b1c:	74697865 			@ <UNDEFINED> instruction: 74697865
 b20:	616d0030 			@ <UNDEFINED> instruction: 616d0030
 b24:	636f6c6c 			@ <UNDEFINED> instruction: 636f6c6c
 b28:	6e665f00 			@ <UNDEFINED> instruction: 6e665f00
 b2c:	73677261 			@ <UNDEFINED> instruction: 73677261
 b30:	73657200 			@ <UNDEFINED> instruction: 73657200
 b34:	74726174 			@ <UNDEFINED> instruction: 74726174
 b38:	2f3a4300 			@ <UNDEFINED> instruction: 2f3a4300
 b3c:	2f422f4d 			@ <UNDEFINED> instruction: 2f422f4d
 b40:	2f637273 			@ <UNDEFINED> instruction: 2f637273
 b44:	6c77656e 			@ <UNDEFINED> instruction: 6c77656e
 b48:	342d6269 			@ <UNDEFINED> instruction: 342d6269
 b4c:	302e352e 			@ <UNDEFINED> instruction: 302e352e
 b50:	3230322e 			@ <UNDEFINED> instruction: 3230322e
 b54:	33323134 			@ <UNDEFINED> instruction: 33323134
 b58:	656e2f31 			@ <UNDEFINED> instruction: 656e2f31
 b5c:	62696c77 			@ <UNDEFINED> instruction: 62696c77
 b60:	62696c2f 			@ <UNDEFINED> instruction: 62696c2f
 b64:	74732f63 			@ <UNDEFINED> instruction: 74732f63
 b68:	62696c64 			@ <UNDEFINED> instruction: 62696c64
 b6c:	635f5f2f 			@ <UNDEFINED> instruction: 635f5f2f
 b70:	5f6c6c61 			@ <UNDEFINED> instruction: 5f6c6c61
 b74:	78657461 			@ <UNDEFINED> instruction: 78657461
 b78:	632e7469 			@ <UNDEFINED> instruction: 632e7469
 b7c:	73616c00 			@ <UNDEFINED> instruction: 73616c00
 b80:	43007074 	movwmi	r7, #116	@ 0x74
 b84:	2f4d2f3a 			@ <UNDEFINED> instruction: 2f4d2f3a
 b88:	72732f42 			@ <UNDEFINED> instruction: 72732f42
 b8c:	63672f63 			@ <UNDEFINED> instruction: 63672f63
 b90:	33312d63 			@ <UNDEFINED> instruction: 33312d63
 b94:	302e332e 			@ <UNDEFINED> instruction: 302e332e
 b98:	62696c2f 			@ <UNDEFINED> instruction: 62696c2f
 b9c:	2f636367 			@ <UNDEFINED> instruction: 2f636367
 ba0:	666e6f63 			@ <UNDEFINED> instruction: 666e6f63
 ba4:	612f6769 			@ <UNDEFINED> instruction: 612f6769
 ba8:	695c6d72 			@ <UNDEFINED> instruction: 695c6d72
 bac:	37656565 			@ <UNDEFINED> instruction: 37656565
 bb0:	642d3435 			@ <UNDEFINED> instruction: 642d3435
 bb4:	00532e66 			@ <UNDEFINED> instruction: 00532e66
 bb8:	4d5c3a43 	vldrmi	s7, [ip, #-268]	@ 0xfffffef4
 bbc:	735c425c 			@ <UNDEFINED> instruction: 735c425c
 bc0:	625c6372 			@ <UNDEFINED> instruction: 625c6372
 bc4:	646c6975 			@ <UNDEFINED> instruction: 646c6975
 bc8:	4e494d2d 			@ <UNDEFINED> instruction: 4e494d2d
 bcc:	34365747 			@ <UNDEFINED> instruction: 34365747
 bd0:	6d72615c 			@ <UNDEFINED> instruction: 6d72615c
 bd4:	6e6f6e2d 			@ <UNDEFINED> instruction: 6e6f6e2d
 bd8:	61652d65 			@ <UNDEFINED> instruction: 61652d65
 bdc:	745c6962 			@ <UNDEFINED> instruction: 745c6962
 be0:	626d7568 			@ <UNDEFINED> instruction: 626d7568
 be4:	6537765c 			@ <UNDEFINED> instruction: 6537765c
 be8:	662b6d2d 			@ <UNDEFINED> instruction: 662b6d2d
 bec:	61685c70 			@ <UNDEFINED> instruction: 61685c70
 bf0:	6c5c6472 	mrrcvs	4, 7, r6, ip, cr2
 bf4:	63676269 			@ <UNDEFINED> instruction: 63676269
 bf8:	4e470063 			@ <UNDEFINED> instruction: 4e470063
 bfc:	53412055 	movtpl	r2, #4181	@ 0x1055
 c00:	342e3220 			@ <UNDEFINED> instruction: 342e3220
 c04:	5f5f0031 			@ <UNDEFINED> instruction: 5f5f0031
 c08:	64627573 			@ <UNDEFINED> instruction: 64627573
 c0c:	5f003366 			@ <UNDEFINED> instruction: 5f003366
 c10:	6165615f 			@ <UNDEFINED> instruction: 6165615f
 c14:	645f6962 			@ <UNDEFINED> instruction: 645f6962
 c18:	00627573 			@ <UNDEFINED> instruction: 00627573
 c1c:	64615f5f 			@ <UNDEFINED> instruction: 64615f5f
 c20:	33666464 			@ <UNDEFINED> instruction: 33666464
 c24:	615f5f00 			@ <UNDEFINED> instruction: 615f5f00
 c28:	69626165 			@ <UNDEFINED> instruction: 69626165
 c2c:	6461645f 			@ <UNDEFINED> instruction: 6461645f
 c30:	5f5f0064 			@ <UNDEFINED> instruction: 5f5f0064
 c34:	616f6c66 			@ <UNDEFINED> instruction: 616f6c66
 c38:	736e7574 			@ <UNDEFINED> instruction: 736e7574
 c3c:	00666469 			@ <UNDEFINED> instruction: 00666469
 c40:	65615f5f 			@ <UNDEFINED> instruction: 65615f5f
 c44:	5f696261 			@ <UNDEFINED> instruction: 5f696261
 c48:	64326975 			@ <UNDEFINED> instruction: 64326975
 c4c:	665f5f00 			@ <UNDEFINED> instruction: 665f5f00
 c50:	74616f6c 			@ <UNDEFINED> instruction: 74616f6c
 c54:	66646973 			@ <UNDEFINED> instruction: 66646973
 c58:	615f5f00 			@ <UNDEFINED> instruction: 615f5f00
 c5c:	69626165 			@ <UNDEFINED> instruction: 69626165
 c60:	6432695f 			@ <UNDEFINED> instruction: 6432695f
 c64:	655f5f00 			@ <UNDEFINED> instruction: 655f5f00
 c68:	6e657478 			@ <UNDEFINED> instruction: 6e657478
 c6c:	64667364 			@ <UNDEFINED> instruction: 64667364
 c70:	5f003266 			@ <UNDEFINED> instruction: 5f003266
 c74:	6165615f 			@ <UNDEFINED> instruction: 6165615f
 c78:	665f6962 			@ <UNDEFINED> instruction: 665f6962
 c7c:	5f006432 			@ <UNDEFINED> instruction: 5f006432
 c80:	6f6c665f 			@ <UNDEFINED> instruction: 6f6c665f
 c84:	6e757461 			@ <UNDEFINED> instruction: 6e757461
 c88:	66646964 			@ <UNDEFINED> instruction: 66646964
 c8c:	615f5f00 			@ <UNDEFINED> instruction: 615f5f00
 c90:	69626165 			@ <UNDEFINED> instruction: 69626165
 c94:	326c755f 			@ <UNDEFINED> instruction: 326c755f
 c98:	5f5f0064 			@ <UNDEFINED> instruction: 5f5f0064
 c9c:	616f6c66 			@ <UNDEFINED> instruction: 616f6c66
 ca0:	64696474 			@ <UNDEFINED> instruction: 64696474
 ca4:	5f5f0066 			@ <UNDEFINED> instruction: 5f5f0066
 ca8:	62616561 			@ <UNDEFINED> instruction: 62616561
 cac:	326c5f69 			@ <UNDEFINED> instruction: 326c5f69
 cb0:	5f5f0064 			@ <UNDEFINED> instruction: 5f5f0064
 cb4:	75786966 			@ <UNDEFINED> instruction: 75786966
 cb8:	6664736e 			@ <UNDEFINED> instruction: 6664736e
 cbc:	5f006973 			@ <UNDEFINED> instruction: 5f006973
 cc0:	6165615f 			@ <UNDEFINED> instruction: 6165615f
 cc4:	645f6962 			@ <UNDEFINED> instruction: 645f6962
 cc8:	7a697532 			@ <UNDEFINED> instruction: 7a697532
 ccc:	2f3a4300 			@ <UNDEFINED> instruction: 2f3a4300
 cd0:	2f422f4d 			@ <UNDEFINED> instruction: 2f422f4d
 cd4:	2f637273 			@ <UNDEFINED> instruction: 2f637273
 cd8:	6c77656e 			@ <UNDEFINED> instruction: 6c77656e
 cdc:	342d6269 			@ <UNDEFINED> instruction: 342d6269
 ce0:	302e352e 			@ <UNDEFINED> instruction: 302e352e
 ce4:	3230322e 			@ <UNDEFINED> instruction: 3230322e
 ce8:	33323134 			@ <UNDEFINED> instruction: 33323134
 cec:	656e2f31 			@ <UNDEFINED> instruction: 656e2f31
 cf0:	62696c77 			@ <UNDEFINED> instruction: 62696c77
 cf4:	62696c2f 			@ <UNDEFINED> instruction: 62696c2f
 cf8:	616d2f63 			@ <UNDEFINED> instruction: 616d2f63
 cfc:	6e696863 			@ <UNDEFINED> instruction: 6e696863
 d00:	72612f65 			@ <UNDEFINED> instruction: 72612f65
 d04:	74735c6d 			@ <UNDEFINED> instruction: 74735c6d
 d08:	6e656c72 			@ <UNDEFINED> instruction: 6e656c72
 d0c:	6d72612d 			@ <UNDEFINED> instruction: 6d72612d
 d10:	532e3776 			@ <UNDEFINED> instruction: 532e3776
 d14:	554e4700 			@ <UNDEFINED> instruction: 554e4700
 d18:	20534120 			@ <UNDEFINED> instruction: 20534120
 d1c:	34342e32 			@ <UNDEFINED> instruction: 34342e32
 d20:	72747300 			@ <UNDEFINED> instruction: 72747300
 d24:	006e656c 			@ <UNDEFINED> instruction: 006e656c

Disassembly of section .debug_frame:

00000000 <.debug_frame>:
   0:	0000000c 			@ <UNDEFINED> instruction: 0000000c
   4:	ffffffff 			@ <UNDEFINED> instruction: ffffffff
   8:	7c020001 			@ <UNDEFINED> instruction: 7c020001
   c:	000d0c0e 			@ <UNDEFINED> instruction: 000d0c0e
  10:	0000000c 			@ <UNDEFINED> instruction: 0000000c
  14:	00000000 			@ <UNDEFINED> instruction: 00000000
  18:	00000208 			@ <UNDEFINED> instruction: 00000208
  1c:	0000000c 			@ <UNDEFINED> instruction: 0000000c
  20:	0000000c 			@ <UNDEFINED> instruction: 0000000c
  24:	ffffffff 			@ <UNDEFINED> instruction: ffffffff
  28:	7c020001 			@ <UNDEFINED> instruction: 7c020001
  2c:	000d0c0e 			@ <UNDEFINED> instruction: 000d0c0e
  30:	00000014 			@ <UNDEFINED> instruction: 00000014
  34:	00000020 			@ <UNDEFINED> instruction: 00000020
  38:	00000214 			@ <UNDEFINED> instruction: 00000214
  3c:	00000024 			@ <UNDEFINED> instruction: 00000024
  40:	83080e41 	movwhi	r0, #36417	@ 0x8e41
  44:	00018e02 			@ <UNDEFINED> instruction: 00018e02
  48:	0000000c 			@ <UNDEFINED> instruction: 0000000c
  4c:	ffffffff 			@ <UNDEFINED> instruction: ffffffff
  50:	7c020001 			@ <UNDEFINED> instruction: 7c020001
  54:	000d0c0e 			@ <UNDEFINED> instruction: 000d0c0e
  58:	0000000c 			@ <UNDEFINED> instruction: 0000000c
  5c:	00000048 			@ <UNDEFINED> instruction: 00000048
  60:	00000000 			@ <UNDEFINED> instruction: 00000000
  64:	00000018 			@ <UNDEFINED> instruction: 00000018
  68:	0000001c 			@ <UNDEFINED> instruction: 0000001c
  6c:	00000048 			@ <UNDEFINED> instruction: 00000048
  70:	00000000 			@ <UNDEFINED> instruction: 00000000
  74:	00000040 			@ <UNDEFINED> instruction: 00000040
  78:	84080e44 			@ <UNDEFINED> instruction: 84080e44
  7c:	52018e02 			@ <UNDEFINED> instruction: 52018e02
  80:	0ec4ce0a 			@ <UNDEFINED> instruction: 0ec4ce0a
  84:	000b4200 			@ <UNDEFINED> instruction: 000b4200
  88:	00000014 			@ <UNDEFINED> instruction: 00000014
  8c:	00000048 			@ <UNDEFINED> instruction: 00000048
  90:	00000000 			@ <UNDEFINED> instruction: 00000000
  94:	0000001c 			@ <UNDEFINED> instruction: 0000001c
  98:	83080e41 	movwhi	r0, #36417	@ 0x8e41
  9c:	00018e02 			@ <UNDEFINED> instruction: 00018e02
  a0:	00000014 			@ <UNDEFINED> instruction: 00000014
  a4:	00000048 			@ <UNDEFINED> instruction: 00000048
  a8:	00000000 			@ <UNDEFINED> instruction: 00000000
  ac:	0000001c 			@ <UNDEFINED> instruction: 0000001c
  b0:	83080e41 	movwhi	r0, #36417	@ 0x8e41
  b4:	00018e02 			@ <UNDEFINED> instruction: 00018e02
  b8:	0000002c 			@ <UNDEFINED> instruction: 0000002c
  bc:	00000048 			@ <UNDEFINED> instruction: 00000048
  c0:	00000000 			@ <UNDEFINED> instruction: 00000000
  c4:	000000ec 			@ <UNDEFINED> instruction: 000000ec
  c8:	83200e42 			@ <UNDEFINED> instruction: 83200e42
  cc:	85078408 			@ <UNDEFINED> instruction: 85078408
  d0:	87058606 			@ <UNDEFINED> instruction: 87058606
  d4:	89038804 			@ <UNDEFINED> instruction: 89038804
  d8:	02018e02 			@ <UNDEFINED> instruction: 02018e02
  dc:	c8c9ce61 			@ <UNDEFINED> instruction: c8c9ce61
  e0:	c4c5c6c7 			@ <UNDEFINED> instruction: c4c5c6c7
  e4:	00000ec3 			@ <UNDEFINED> instruction: 00000ec3
  e8:	0000001c 			@ <UNDEFINED> instruction: 0000001c
  ec:	00000048 			@ <UNDEFINED> instruction: 00000048
  f0:	00000000 			@ <UNDEFINED> instruction: 00000000
  f4:	000000c0 			@ <UNDEFINED> instruction: 000000c0
  f8:	83180e41 			@ <UNDEFINED> instruction: 83180e41
  fc:	85058406 			@ <UNDEFINED> instruction: 85058406
 100:	87038604 			@ <UNDEFINED> instruction: 87038604
 104:	00018e02 			@ <UNDEFINED> instruction: 00018e02
 108:	00000020 			@ <UNDEFINED> instruction: 00000020
 10c:	00000048 			@ <UNDEFINED> instruction: 00000048
 110:	00000000 			@ <UNDEFINED> instruction: 00000000
 114:	00000040 			@ <UNDEFINED> instruction: 00000040
 118:	84080e41 			@ <UNDEFINED> instruction: 84080e41
 11c:	4e018e02 			@ <UNDEFINED> instruction: 4e018e02
 120:	0ec4ce0a 			@ <UNDEFINED> instruction: 0ec4ce0a
 124:	440b4300 			@ <UNDEFINED> instruction: 440b4300
 128:	000ec4ce 			@ <UNDEFINED> instruction: 000ec4ce
 12c:	0000000c 			@ <UNDEFINED> instruction: 0000000c
 130:	00000048 			@ <UNDEFINED> instruction: 00000048
 134:	00000000 			@ <UNDEFINED> instruction: 00000000
 138:	0000000c 			@ <UNDEFINED> instruction: 0000000c
 13c:	0000000c 			@ <UNDEFINED> instruction: 0000000c
 140:	00000048 			@ <UNDEFINED> instruction: 00000048
 144:	00000000 			@ <UNDEFINED> instruction: 00000000
 148:	0000000c 			@ <UNDEFINED> instruction: 0000000c
 14c:	00000018 			@ <UNDEFINED> instruction: 00000018
 150:	00000048 			@ <UNDEFINED> instruction: 00000048
 154:	00000000 			@ <UNDEFINED> instruction: 00000000
 158:	00000024 			@ <UNDEFINED> instruction: 00000024
 15c:	83080e41 	movwhi	r0, #36417	@ 0x8e41
 160:	45018e02 			@ <UNDEFINED> instruction: 45018e02
 164:	000ec3ce 			@ <UNDEFINED> instruction: 000ec3ce
 168:	00000018 			@ <UNDEFINED> instruction: 00000018
 16c:	00000048 			@ <UNDEFINED> instruction: 00000048
 170:	00000000 			@ <UNDEFINED> instruction: 00000000
 174:	00000024 			@ <UNDEFINED> instruction: 00000024
 178:	83080e41 	movwhi	r0, #36417	@ 0x8e41
 17c:	47018e02 			@ <UNDEFINED> instruction: 47018e02
 180:	000ec3ce 			@ <UNDEFINED> instruction: 000ec3ce
 184:	0000000c 			@ <UNDEFINED> instruction: 0000000c
 188:	ffffffff 			@ <UNDEFINED> instruction: ffffffff
 18c:	7c020001 			@ <UNDEFINED> instruction: 7c020001
 190:	000d0c0e 			@ <UNDEFINED> instruction: 000d0c0e
 194:	00000018 			@ <UNDEFINED> instruction: 00000018
 198:	00000184 			@ <UNDEFINED> instruction: 00000184
 19c:	00000238 			@ <UNDEFINED> instruction: 00000238
 1a0:	000000a2 			@ <UNDEFINED> instruction: 000000a2
 1a4:	840c0e42 			@ <UNDEFINED> instruction: 840c0e42
 1a8:	8e028503 			@ <UNDEFINED> instruction: 8e028503
 1ac:	00000001 			@ <UNDEFINED> instruction: 00000001
 1b0:	0000000c 			@ <UNDEFINED> instruction: 0000000c
 1b4:	ffffffff 			@ <UNDEFINED> instruction: ffffffff
 1b8:	7c020001 			@ <UNDEFINED> instruction: 7c020001
 1bc:	000d0c0e 			@ <UNDEFINED> instruction: 000d0c0e
 1c0:	00000018 			@ <UNDEFINED> instruction: 00000018
 1c4:	000001b0 			@ <UNDEFINED> instruction: 000001b0
 1c8:	000002dc 	ldrdeq	r0, [r0], -ip
 1cc:	00000050 			@ <UNDEFINED> instruction: 00000050
 1d0:	84100e41 			@ <UNDEFINED> instruction: 84100e41
 1d4:	86038504 			@ <UNDEFINED> instruction: 86038504
 1d8:	00018e02 			@ <UNDEFINED> instruction: 00018e02
 1dc:	0000000c 			@ <UNDEFINED> instruction: 0000000c
 1e0:	ffffffff 			@ <UNDEFINED> instruction: ffffffff
 1e4:	7c020001 			@ <UNDEFINED> instruction: 7c020001
 1e8:	000d0c0e 			@ <UNDEFINED> instruction: 000d0c0e
 1ec:	00000020 			@ <UNDEFINED> instruction: 00000020
 1f0:	000001dc 	ldrdeq	r0, [r0], -ip
 1f4:	0000032c 			@ <UNDEFINED> instruction: 0000032c
 1f8:	00000028 			@ <UNDEFINED> instruction: 00000028
 1fc:	83100e41 			@ <UNDEFINED> instruction: 83100e41
 200:	85038404 			@ <UNDEFINED> instruction: 85038404
 204:	4d018e02 			@ <UNDEFINED> instruction: 4d018e02
 208:	c3c4c5ce 			@ <UNDEFINED> instruction: c3c4c5ce
 20c:	0000000e 			@ <UNDEFINED> instruction: 0000000e
 210:	0000000c 			@ <UNDEFINED> instruction: 0000000c
 214:	ffffffff 			@ <UNDEFINED> instruction: ffffffff
 218:	7c020001 			@ <UNDEFINED> instruction: 7c020001
 21c:	000d0c0e 			@ <UNDEFINED> instruction: 000d0c0e
 220:	0000000c 			@ <UNDEFINED> instruction: 0000000c
 224:	00000210 			@ <UNDEFINED> instruction: 00000210
 228:	00000354 			@ <UNDEFINED> instruction: 00000354
 22c:	00000002 			@ <UNDEFINED> instruction: 00000002
 230:	0000000c 			@ <UNDEFINED> instruction: 0000000c
 234:	00000210 			@ <UNDEFINED> instruction: 00000210
 238:	00000358 			@ <UNDEFINED> instruction: 00000358
 23c:	00000002 			@ <UNDEFINED> instruction: 00000002
 240:	0000000c 			@ <UNDEFINED> instruction: 0000000c
 244:	00000210 			@ <UNDEFINED> instruction: 00000210
 248:	0000035c 			@ <UNDEFINED> instruction: 0000035c
 24c:	00000002 			@ <UNDEFINED> instruction: 00000002
 250:	0000000c 			@ <UNDEFINED> instruction: 0000000c
 254:	00000210 			@ <UNDEFINED> instruction: 00000210
 258:	00000360 			@ <UNDEFINED> instruction: 00000360
 25c:	00000002 			@ <UNDEFINED> instruction: 00000002
 260:	0000000c 			@ <UNDEFINED> instruction: 0000000c
 264:	00000210 			@ <UNDEFINED> instruction: 00000210
 268:	00000364 			@ <UNDEFINED> instruction: 00000364
 26c:	00000002 			@ <UNDEFINED> instruction: 00000002
 270:	0000000c 			@ <UNDEFINED> instruction: 0000000c
 274:	00000210 			@ <UNDEFINED> instruction: 00000210
 278:	00000368 			@ <UNDEFINED> instruction: 00000368
 27c:	00000002 			@ <UNDEFINED> instruction: 00000002
 280:	0000000c 			@ <UNDEFINED> instruction: 0000000c
 284:	00000210 			@ <UNDEFINED> instruction: 00000210
 288:	0000036c 			@ <UNDEFINED> instruction: 0000036c
 28c:	00000004 			@ <UNDEFINED> instruction: 00000004
 290:	0000000c 			@ <UNDEFINED> instruction: 0000000c
 294:	00000210 			@ <UNDEFINED> instruction: 00000210
 298:	00000370 			@ <UNDEFINED> instruction: 00000370
 29c:	00000004 			@ <UNDEFINED> instruction: 00000004
 2a0:	0000000c 			@ <UNDEFINED> instruction: 0000000c
 2a4:	00000210 			@ <UNDEFINED> instruction: 00000210
 2a8:	00000374 			@ <UNDEFINED> instruction: 00000374
 2ac:	00000002 			@ <UNDEFINED> instruction: 00000002
 2b0:	0000000c 			@ <UNDEFINED> instruction: 0000000c
 2b4:	00000210 			@ <UNDEFINED> instruction: 00000210
 2b8:	00000378 			@ <UNDEFINED> instruction: 00000378
 2bc:	00000002 			@ <UNDEFINED> instruction: 00000002
 2c0:	0000000c 			@ <UNDEFINED> instruction: 0000000c
 2c4:	ffffffff 			@ <UNDEFINED> instruction: ffffffff
 2c8:	7c020001 			@ <UNDEFINED> instruction: 7c020001
 2cc:	000d0c0e 			@ <UNDEFINED> instruction: 000d0c0e
 2d0:	00000020 			@ <UNDEFINED> instruction: 00000020
 2d4:	000002c0 			@ <UNDEFINED> instruction: 000002c0
 2d8:	0000037c 			@ <UNDEFINED> instruction: 0000037c
 2dc:	000000bc 			@ <UNDEFINED> instruction: 000000bc
 2e0:	84200e42 			@ <UNDEFINED> instruction: 84200e42
 2e4:	86078508 			@ <UNDEFINED> instruction: 86078508
 2e8:	88058706 			@ <UNDEFINED> instruction: 88058706
 2ec:	8b038a04 			@ <UNDEFINED> instruction: 8b038a04
 2f0:	00018e02 			@ <UNDEFINED> instruction: 00018e02
 2f4:	0000000c 			@ <UNDEFINED> instruction: 0000000c
 2f8:	ffffffff 			@ <UNDEFINED> instruction: ffffffff
 2fc:	7c020001 			@ <UNDEFINED> instruction: 7c020001
 300:	000d0c0e 			@ <UNDEFINED> instruction: 000d0c0e
 304:	00000038 			@ <UNDEFINED> instruction: 00000038
 308:	000002f4 	strdeq	r0, [r0], -r4
 30c:	00000438 			@ <UNDEFINED> instruction: 00000438
 310:	000000d8 	ldrdeq	r0, [r0], -r8
 314:	84240e42 			@ <UNDEFINED> instruction: 84240e42
 318:	86088509 			@ <UNDEFINED> instruction: 86088509
 31c:	88068707 			@ <UNDEFINED> instruction: 88068707
 320:	8a048905 			@ <UNDEFINED> instruction: 8a048905
 324:	8e028b03 	vmlahi.f64	d8, d2, d3
 328:	300e4401 			@ <UNDEFINED> instruction: 300e4401
 32c:	0e0a4002 			@ <UNDEFINED> instruction: 0e0a4002
 330:	cbce4224 			@ <UNDEFINED> instruction: cbce4224
 334:	c7c8c9ca 			@ <UNDEFINED> instruction: c7c8c9ca
 338:	0ec4c5c6 			@ <UNDEFINED> instruction: 0ec4c5c6
 33c:	000b4200 			@ <UNDEFINED> instruction: 000b4200
 340:	0000000c 			@ <UNDEFINED> instruction: 0000000c
 344:	ffffffff 			@ <UNDEFINED> instruction: ffffffff
 348:	7c020001 			@ <UNDEFINED> instruction: 7c020001
 34c:	000d0c0e 			@ <UNDEFINED> instruction: 000d0c0e
 350:	0000001c 			@ <UNDEFINED> instruction: 0000001c
 354:	00000340 			@ <UNDEFINED> instruction: 00000340
 358:	00000cac 			@ <UNDEFINED> instruction: 00000cac
 35c:	00000282 			@ <UNDEFINED> instruction: 00000282
 360:	0c0e470a 			@ <UNDEFINED> instruction: 0c0e470a
 364:	02850384 			@ <UNDEFINED> instruction: 02850384
 368:	3a03018e 			@ <UNDEFINED> instruction: 3a03018e
 36c:	00000b01 			@ <UNDEFINED> instruction: 00000b01
 370:	00000018 			@ <UNDEFINED> instruction: 00000018
 374:	00000340 			@ <UNDEFINED> instruction: 00000340
 378:	00000f30 			@ <UNDEFINED> instruction: 00000f30
 37c:	0000001e 			@ <UNDEFINED> instruction: 0000001e
 380:	0c0e460a 			@ <UNDEFINED> instruction: 0c0e460a
 384:	02850384 			@ <UNDEFINED> instruction: 02850384
 388:	0b49018e 			@ <UNDEFINED> instruction: 0b49018e
 38c:	00000018 			@ <UNDEFINED> instruction: 00000018
 390:	00000340 			@ <UNDEFINED> instruction: 00000340
 394:	00000f50 			@ <UNDEFINED> instruction: 00000f50
 398:	00000022 			@ <UNDEFINED> instruction: 00000022
 39c:	0c0e460a 			@ <UNDEFINED> instruction: 0c0e460a
 3a0:	02850384 			@ <UNDEFINED> instruction: 02850384
 3a4:	0b4b018e 			@ <UNDEFINED> instruction: 0b4b018e
 3a8:	00000018 			@ <UNDEFINED> instruction: 00000018
 3ac:	00000340 			@ <UNDEFINED> instruction: 00000340
 3b0:	00000f74 			@ <UNDEFINED> instruction: 00000f74
 3b4:	00000042 			@ <UNDEFINED> instruction: 00000042
 3b8:	0c0e5a0a 			@ <UNDEFINED> instruction: 0c0e5a0a
 3bc:	02850384 			@ <UNDEFINED> instruction: 02850384
 3c0:	0b47018e 			@ <UNDEFINED> instruction: 0b47018e
 3c4:	00000024 			@ <UNDEFINED> instruction: 00000024
 3c8:	00000340 			@ <UNDEFINED> instruction: 00000340
 3cc:	00000fb8 			@ <UNDEFINED> instruction: 00000fb8
 3d0:	0000006a 			@ <UNDEFINED> instruction: 0000006a
 3d4:	0e450a0a 	vmlaeq.f32	s1, s10, s20
 3d8:	8503840c 			@ <UNDEFINED> instruction: 8503840c
 3dc:	43018e02 	movwmi	r8, #7682	@ 0x1e02
 3e0:	0c0e450b 			@ <UNDEFINED> instruction: 0c0e450b
 3e4:	02850384 			@ <UNDEFINED> instruction: 02850384
 3e8:	0b68018e 			@ <UNDEFINED> instruction: 0b68018e
 3ec:	0000000c 			@ <UNDEFINED> instruction: 0000000c
 3f0:	ffffffff 			@ <UNDEFINED> instruction: ffffffff
 3f4:	7c020001 			@ <UNDEFINED> instruction: 7c020001
 3f8:	000d0c0e 			@ <UNDEFINED> instruction: 000d0c0e
 3fc:	00000010 			@ <UNDEFINED> instruction: 00000010
 400:	000003ec 			@ <UNDEFINED> instruction: 000003ec
 404:	00001024 			@ <UNDEFINED> instruction: 00001024
 408:	00000040 			@ <UNDEFINED> instruction: 00000040
 40c:	000b600a 			@ <UNDEFINED> instruction: 000b600a
 410:	0000000c 			@ <UNDEFINED> instruction: 0000000c
 414:	ffffffff 			@ <UNDEFINED> instruction: ffffffff
 418:	7c020001 			@ <UNDEFINED> instruction: 7c020001
 41c:	000d0c0e 			@ <UNDEFINED> instruction: 000d0c0e
 420:	0000001c 			@ <UNDEFINED> instruction: 0000001c
 424:	00000410 			@ <UNDEFINED> instruction: 00000410
 428:	00001080 			@ <UNDEFINED> instruction: 00001080
 42c:	000000d8 	ldrdeq	r0, [r0], -r8
 430:	85080e41 			@ <UNDEFINED> instruction: 85080e41
 434:	02028401 			@ <UNDEFINED> instruction: 02028401
 438:	c54a0a49 			@ <UNDEFINED> instruction: c54a0a49
 43c:	000b41c4 			@ <UNDEFINED> instruction: 000b41c4
 440:	0000000c 			@ <UNDEFINED> instruction: 0000000c
 444:	ffffffff 			@ <UNDEFINED> instruction: ffffffff
 448:	7c020001 			@ <UNDEFINED> instruction: 7c020001
 44c:	000d0c0e 			@ <UNDEFINED> instruction: 000d0c0e
 450:	0000000c 			@ <UNDEFINED> instruction: 0000000c
 454:	00000440 			@ <UNDEFINED> instruction: 00000440
 458:	00001158 			@ <UNDEFINED> instruction: 00001158
 45c:	00000002 			@ <UNDEFINED> instruction: 00000002

Disassembly of section .debug_rnglists:

00000000 <.debug_rnglists>:
   0:	0000009b 			@ <UNDEFINED> instruction: 0000009b
   4:	00040005 			@ <UNDEFINED> instruction: 00040005
   8:	00000000 			@ <UNDEFINED> instruction: 00000000
   c:	04666004 			@ <UNDEFINED> instruction: 04666004
  10:	0400706a 			@ <UNDEFINED> instruction: 0400706a
  14:	0401827c 			@ <UNDEFINED> instruction: 0401827c
  18:	018c0186 			@ <UNDEFINED> instruction: 018c0186
  1c:	01980400 			@ <UNDEFINED> instruction: 01980400
  20:	a60401a2 			@ <UNDEFINED> instruction: a60401a2
  24:	0001da01 			@ <UNDEFINED> instruction: 0001da01
  28:	d2029404 			@ <UNDEFINED> instruction: d2029404
  2c:	02d60402 			@ <UNDEFINED> instruction: 02d60402
  30:	040002fc 			@ <UNDEFINED> instruction: 040002fc
  34:	02fc02fc 			@ <UNDEFINED> instruction: 02fc02fc
  38:	86038004 			@ <UNDEFINED> instruction: 86038004
  3c:	86040003 			@ <UNDEFINED> instruction: 86040003
  40:	04039003 			@ <UNDEFINED> instruction: 04039003
  44:	049e0498 			@ <UNDEFINED> instruction: 049e0498
  48:	049e0400 			@ <UNDEFINED> instruction: 049e0400
  4c:	a20404a0 			@ <UNDEFINED> instruction: a20404a0
  50:	0004a604 			@ <UNDEFINED> instruction: 0004a604
  54:	bc04bc04 			@ <UNDEFINED> instruction: bc04bc04
  58:	04c00404 			@ <UNDEFINED> instruction: 04c00404
  5c:	040004c6 			@ <UNDEFINED> instruction: 040004c6
  60:	04cc04ca 			@ <UNDEFINED> instruction: 04cc04ca
  64:	d204ce04 			@ <UNDEFINED> instruction: d204ce04
  68:	04d40404 			@ <UNDEFINED> instruction: 04d40404
  6c:	e00404d6 	ldrd	r0, [r4], -r6
  70:	0004e404 			@ <UNDEFINED> instruction: 0004e404
  74:	d604d604 			@ <UNDEFINED> instruction: d604d604
  78:	04da0404 			@ <UNDEFINED> instruction: 04da0404
  7c:	e40404e0 			@ <UNDEFINED> instruction: e40404e0
  80:	0404e404 			@ <UNDEFINED> instruction: 0404e404
  84:	04fc04e8 			@ <UNDEFINED> instruction: 04fc04e8
  88:	05940400 			@ <UNDEFINED> instruction: 05940400
  8c:	96040594 			@ <UNDEFINED> instruction: 96040594
  90:	00059c05 			@ <UNDEFINED> instruction: 00059c05
  94:	c405c404 			@ <UNDEFINED> instruction: c405c404
  98:	05c80405 			@ <UNDEFINED> instruction: 05c80405
  9c:	280005dc 			@ <UNDEFINED> instruction: 280005dc
  a0:	05000000 			@ <UNDEFINED> instruction: 05000000
  a4:	00000400 			@ <UNDEFINED> instruction: 00000400
  a8:	04000000 			@ <UNDEFINED> instruction: 04000000
  ac:	74047030 			@ <UNDEFINED> instruction: 74047030
  b0:	0194047c 			@ <UNDEFINED> instruction: 0194047c
  b4:	a804019e 			@ <UNDEFINED> instruction: a804019e
  b8:	0401ac01 			@ <UNDEFINED> instruction: 0401ac01
  bc:	01ba01b6 			@ <UNDEFINED> instruction: 01ba01b6
  c0:	c201be04 			@ <UNDEFINED> instruction: c201be04
  c4:	01ca0401 			@ <UNDEFINED> instruction: 01ca0401
  c8:	Address 0xc8 is out of bounds.

