
C:/Users/a.faizullin/Desktop/PrimeriVoronezh/K1921BK035/niietcm4-k1921vkx_sdk-45893dd9ab5d/projects/NIIET-BB-K1921VK035/blinky/GCC/build/blinky.elf:     file format elf32-littlearm


Disassembly of section .text:

00000000 <__isr_vector>:
       0:	20004000 			@ <UNDEFINED> instruction: 20004000
       4:	00000c59 			@ <UNDEFINED> instruction: 00000c59
       8:	00000ca9 			@ <UNDEFINED> instruction: 00000ca9
       c:	00000ca9 			@ <UNDEFINED> instruction: 00000ca9
      10:	00000ca9 			@ <UNDEFINED> instruction: 00000ca9
      14:	00000ca9 			@ <UNDEFINED> instruction: 00000ca9
      18:	00000ca9 			@ <UNDEFINED> instruction: 00000ca9
	...
      2c:	00000ca9 			@ <UNDEFINED> instruction: 00000ca9
      30:	00000ca9 			@ <UNDEFINED> instruction: 00000ca9
      34:	00000000 			@ <UNDEFINED> instruction: 00000000
      38:	00000ca9 			@ <UNDEFINED> instruction: 00000ca9
      3c:	00000885 			@ <UNDEFINED> instruction: 00000885
      40:	00000ca9 			@ <UNDEFINED> instruction: 00000ca9
      44:	00000ca9 			@ <UNDEFINED> instruction: 00000ca9
      48:	00000ca9 			@ <UNDEFINED> instruction: 00000ca9
      4c:	00000965 			@ <UNDEFINED> instruction: 00000965
      50:	00000ca9 			@ <UNDEFINED> instruction: 00000ca9
      54:	00000ca9 			@ <UNDEFINED> instruction: 00000ca9
      58:	00000ca9 			@ <UNDEFINED> instruction: 00000ca9
      5c:	00000ca9 			@ <UNDEFINED> instruction: 00000ca9
      60:	00000ca9 			@ <UNDEFINED> instruction: 00000ca9
      64:	00000ca9 			@ <UNDEFINED> instruction: 00000ca9
      68:	00000ca9 			@ <UNDEFINED> instruction: 00000ca9
      6c:	00000ca9 			@ <UNDEFINED> instruction: 00000ca9
      70:	00000ca9 			@ <UNDEFINED> instruction: 00000ca9
      74:	00000ca9 			@ <UNDEFINED> instruction: 00000ca9
      78:	00000ca9 			@ <UNDEFINED> instruction: 00000ca9
      7c:	00000ca9 			@ <UNDEFINED> instruction: 00000ca9
      80:	00000ca9 			@ <UNDEFINED> instruction: 00000ca9
      84:	00000ca9 			@ <UNDEFINED> instruction: 00000ca9
      88:	00000ca9 			@ <UNDEFINED> instruction: 00000ca9
      8c:	00000ca9 			@ <UNDEFINED> instruction: 00000ca9
      90:	00000ca9 			@ <UNDEFINED> instruction: 00000ca9
      94:	00000ca9 			@ <UNDEFINED> instruction: 00000ca9
      98:	00000ca9 			@ <UNDEFINED> instruction: 00000ca9
      9c:	00000ca9 			@ <UNDEFINED> instruction: 00000ca9
      a0:	00000ca9 			@ <UNDEFINED> instruction: 00000ca9
      a4:	00000ca9 			@ <UNDEFINED> instruction: 00000ca9
      a8:	00000b5d 			@ <UNDEFINED> instruction: 00000b5d
      ac:	00000ca9 			@ <UNDEFINED> instruction: 00000ca9
      b0:	00000ca9 			@ <UNDEFINED> instruction: 00000ca9
      b4:	00000ca9 			@ <UNDEFINED> instruction: 00000ca9
      b8:	00000ca9 			@ <UNDEFINED> instruction: 00000ca9
      bc:	00000ca9 			@ <UNDEFINED> instruction: 00000ca9
      c0:	00000ca9 			@ <UNDEFINED> instruction: 00000ca9
      c4:	00000ca9 			@ <UNDEFINED> instruction: 00000ca9
      c8:	00000ca9 			@ <UNDEFINED> instruction: 00000ca9
      cc:	00000ca9 			@ <UNDEFINED> instruction: 00000ca9
      d0:	00000ca9 			@ <UNDEFINED> instruction: 00000ca9
      d4:	00000ca9 			@ <UNDEFINED> instruction: 00000ca9
      d8:	00000ca9 			@ <UNDEFINED> instruction: 00000ca9
      dc:	00000ca9 			@ <UNDEFINED> instruction: 00000ca9
      e0:	00000ca9 			@ <UNDEFINED> instruction: 00000ca9
      e4:	00000ca9 			@ <UNDEFINED> instruction: 00000ca9
      e8:	00000ca9 			@ <UNDEFINED> instruction: 00000ca9
      ec:	00000ca9 			@ <UNDEFINED> instruction: 00000ca9
      f0:	00000ca9 			@ <UNDEFINED> instruction: 00000ca9
      f4:	00000ca9 			@ <UNDEFINED> instruction: 00000ca9
      f8:	00000ca9 			@ <UNDEFINED> instruction: 00000ca9
      fc:	00000ca9 			@ <UNDEFINED> instruction: 00000ca9
     100:	00000ca9 			@ <UNDEFINED> instruction: 00000ca9
     104:	00000ca9 			@ <UNDEFINED> instruction: 00000ca9
     108:	00000ca9 			@ <UNDEFINED> instruction: 00000ca9
     10c:	00000ca9 			@ <UNDEFINED> instruction: 00000ca9
     110:	00000ca9 			@ <UNDEFINED> instruction: 00000ca9
     114:	00000ca9 			@ <UNDEFINED> instruction: 00000ca9
     118:	00000ca9 			@ <UNDEFINED> instruction: 00000ca9
     11c:	00000ca9 			@ <UNDEFINED> instruction: 00000ca9
     120:	00000ca9 			@ <UNDEFINED> instruction: 00000ca9
     124:	00000ca9 			@ <UNDEFINED> instruction: 00000ca9
     128:	00000ca9 			@ <UNDEFINED> instruction: 00000ca9
     12c:	00000ca9 			@ <UNDEFINED> instruction: 00000ca9
     130:	00000ca9 			@ <UNDEFINED> instruction: 00000ca9
     134:	00000ca9 			@ <UNDEFINED> instruction: 00000ca9
     138:	00000ca9 			@ <UNDEFINED> instruction: 00000ca9
     13c:	00000ca9 			@ <UNDEFINED> instruction: 00000ca9
     140:	00000ca9 			@ <UNDEFINED> instruction: 00000ca9
     144:	00000ca9 			@ <UNDEFINED> instruction: 00000ca9
     148:	00000ca9 			@ <UNDEFINED> instruction: 00000ca9
     14c:	00000ca9 			@ <UNDEFINED> instruction: 00000ca9
     150:	00000ca9 			@ <UNDEFINED> instruction: 00000ca9
     154:	00000ca9 			@ <UNDEFINED> instruction: 00000ca9

00000158 <__do_global_dtors_aux>:
     158:	b510      	push	{r4, lr}
     15a:	4c05      	ldr	r4, [pc, #20]	@ (170 <__do_global_dtors_aux+0x18>)
     15c:	7823      	ldrb	r3, [r4, #0]
     15e:	b933      	cbnz	r3, 16e <__do_global_dtors_aux+0x16>
     160:	4b04      	ldr	r3, [pc, #16]	@ (174 <__do_global_dtors_aux+0x1c>)
     162:	b113      	cbz	r3, 16a <__do_global_dtors_aux+0x12>
     164:	4804      	ldr	r0, [pc, #16]	@ (178 <__do_global_dtors_aux+0x20>)
     166:	f3af 8000 	nop.w
     16a:	2301      	movs	r3, #1
     16c:	7023      	strb	r3, [r4, #0]
     16e:	bd10      	pop	{r4, pc}
     170:	2000004c 			@ <UNDEFINED> instruction: 2000004c
     174:	00000000 			@ <UNDEFINED> instruction: 00000000
     178:	00001174 			@ <UNDEFINED> instruction: 00001174

0000017c <frame_dummy>:
     17c:	b508      	push	{r3, lr}
     17e:	4b03      	ldr	r3, [pc, #12]	@ (18c <frame_dummy+0x10>)
     180:	b11b      	cbz	r3, 18a <frame_dummy+0xe>
     182:	4903      	ldr	r1, [pc, #12]	@ (190 <frame_dummy+0x14>)
     184:	4803      	ldr	r0, [pc, #12]	@ (194 <frame_dummy+0x18>)
     186:	f3af 8000 	nop.w
     18a:	bd08      	pop	{r3, pc}
     18c:	00000000 			@ <UNDEFINED> instruction: 00000000
     190:	20000050 			@ <UNDEFINED> instruction: 20000050
     194:	00001174 			@ <UNDEFINED> instruction: 00001174

00000198 <_stack_init>:
     198:	f5a3 3a80 	sub.w	sl, r3, #65536	@ 0x10000
     19c:	4770      	bx	lr
     19e:	bf00      	nop

000001a0 <_mainCRTStartup>:
     1a0:	4b15      	ldr	r3, [pc, #84]	@ (1f8 <_mainCRTStartup+0x58>)
     1a2:	2b00      	cmp	r3, #0
     1a4:	bf08      	it	eq
     1a6:	4b11      	ldreq	r3, [pc, #68]	@ (1ec <_mainCRTStartup+0x4c>)
     1a8:	469d      	mov	sp, r3
     1aa:	f7ff fff5 	bl	198 <_stack_init>
     1ae:	2100      	movs	r1, #0
     1b0:	468b      	mov	fp, r1
     1b2:	460f      	mov	r7, r1
     1b4:	4811      	ldr	r0, [pc, #68]	@ (1fc <_mainCRTStartup+0x5c>)
     1b6:	4a12      	ldr	r2, [pc, #72]	@ (200 <_mainCRTStartup+0x60>)
     1b8:	1a12      	subs	r2, r2, r0
     1ba:	f000 f83d 	bl	238 <memset>
     1be:	4b0c      	ldr	r3, [pc, #48]	@ (1f0 <_mainCRTStartup+0x50>)
     1c0:	2b00      	cmp	r3, #0
     1c2:	d000      	beq.n	1c6 <_mainCRTStartup+0x26>
     1c4:	4798      	blx	r3
     1c6:	4b0b      	ldr	r3, [pc, #44]	@ (1f4 <_mainCRTStartup+0x54>)
     1c8:	2b00      	cmp	r3, #0
     1ca:	d000      	beq.n	1ce <_mainCRTStartup+0x2e>
     1cc:	4798      	blx	r3
     1ce:	2000      	movs	r0, #0
     1d0:	2100      	movs	r1, #0
     1d2:	0004      	movs	r4, r0
     1d4:	000d      	movs	r5, r1
     1d6:	480b      	ldr	r0, [pc, #44]	@ (204 <_mainCRTStartup+0x64>)
     1d8:	f000 f816 	bl	208 <atexit>
     1dc:	f000 f87e 	bl	2dc <__libc_init_array>
     1e0:	0020      	movs	r0, r4
     1e2:	0029      	movs	r1, r5
     1e4:	f000 fb04 	bl	7f0 <main>
     1e8:	f000 f814 	bl	214 <exit>
     1ec:	00080000 			@ <UNDEFINED> instruction: 00080000
	...
     1f8:	20004000 			@ <UNDEFINED> instruction: 20004000
     1fc:	2000004c 			@ <UNDEFINED> instruction: 2000004c
     200:	20000360 			@ <UNDEFINED> instruction: 20000360
     204:	0000032d 			@ <UNDEFINED> instruction: 0000032d

00000208 <atexit>:
     208:	2300      	movs	r3, #0
     20a:	4601      	mov	r1, r0
     20c:	461a      	mov	r2, r3
     20e:	4618      	mov	r0, r3
     210:	f000 b8b4 	b.w	37c <__register_exitproc>

00000214 <exit>:
     214:	b508      	push	{r3, lr}
     216:	4b06      	ldr	r3, [pc, #24]	@ (230 <exit+0x1c>)
     218:	4604      	mov	r4, r0
     21a:	b113      	cbz	r3, 222 <exit+0xe>
     21c:	2100      	movs	r1, #0
     21e:	f000 f90b 	bl	438 <__call_exitprocs>
     222:	4b04      	ldr	r3, [pc, #16]	@ (234 <exit+0x20>)
     224:	681b      	ldr	r3, [r3, #0]
     226:	b103      	cbz	r3, 22a <exit+0x16>
     228:	4798      	blx	r3
     22a:	4620      	mov	r0, r4
     22c:	f000 ff94 	bl	1158 <_exit>
     230:	00000439 			@ <UNDEFINED> instruction: 00000439
     234:	200001a0 			@ <UNDEFINED> instruction: 200001a0

00000238 <memset>:
     238:	0783      	lsls	r3, r0, #30
     23a:	b530      	push	{r4, r5, lr}
     23c:	d047      	beq.n	2ce <memset+0x96>
     23e:	1e54      	subs	r4, r2, #1
     240:	2a00      	cmp	r2, #0
     242:	d03e      	beq.n	2c2 <memset+0x8a>
     244:	b2ca      	uxtb	r2, r1
     246:	4603      	mov	r3, r0
     248:	e001      	b.n	24e <memset+0x16>
     24a:	3c01      	subs	r4, #1
     24c:	d339      	bcc.n	2c2 <memset+0x8a>
     24e:	f803 2b01 	strb.w	r2, [r3], #1
     252:	079d      	lsls	r5, r3, #30
     254:	d1f9      	bne.n	24a <memset+0x12>
     256:	2c03      	cmp	r4, #3
     258:	d92c      	bls.n	2b4 <memset+0x7c>
     25a:	b2cd      	uxtb	r5, r1
     25c:	eb05 2505 	add.w	r5, r5, r5, lsl #8
     260:	2c0f      	cmp	r4, #15
     262:	eb05 4505 	add.w	r5, r5, r5, lsl #16
     266:	d935      	bls.n	2d4 <memset+0x9c>
     268:	f1a4 0210 	sub.w	r2, r4, #16
     26c:	f022 0c0f 	bic.w	ip, r2, #15
     270:	f103 0e10 	add.w	lr, r3, #16
     274:	44e6      	add	lr, ip
     276:	ea4f 1c12 	mov.w	ip, r2, lsr #4
     27a:	461a      	mov	r2, r3
     27c:	e9c2 5500 	strd	r5, r5, [r2]
     280:	e9c2 5502 	strd	r5, r5, [r2, #8]
     284:	3210      	adds	r2, #16
     286:	4572      	cmp	r2, lr
     288:	d1f8      	bne.n	27c <memset+0x44>
     28a:	f10c 0201 	add.w	r2, ip, #1
     28e:	f014 0f0c 	tst.w	r4, #12
     292:	eb03 1202 	add.w	r2, r3, r2, lsl #4
     296:	f004 0c0f 	and.w	ip, r4, #15
     29a:	d013      	beq.n	2c4 <memset+0x8c>
     29c:	f1ac 0304 	sub.w	r3, ip, #4
     2a0:	f023 0303 	bic.w	r3, r3, #3
     2a4:	3304      	adds	r3, #4
     2a6:	4413      	add	r3, r2
     2a8:	f842 5b04 	str.w	r5, [r2], #4
     2ac:	4293      	cmp	r3, r2
     2ae:	d1fb      	bne.n	2a8 <memset+0x70>
     2b0:	f00c 0403 	and.w	r4, ip, #3
     2b4:	b12c      	cbz	r4, 2c2 <memset+0x8a>
     2b6:	b2c9      	uxtb	r1, r1
     2b8:	441c      	add	r4, r3
     2ba:	f803 1b01 	strb.w	r1, [r3], #1
     2be:	42a3      	cmp	r3, r4
     2c0:	d1fb      	bne.n	2ba <memset+0x82>
     2c2:	bd30      	pop	{r4, r5, pc}
     2c4:	4664      	mov	r4, ip
     2c6:	4613      	mov	r3, r2
     2c8:	2c00      	cmp	r4, #0
     2ca:	d1f4      	bne.n	2b6 <memset+0x7e>
     2cc:	e7f9      	b.n	2c2 <memset+0x8a>
     2ce:	4603      	mov	r3, r0
     2d0:	4614      	mov	r4, r2
     2d2:	e7c0      	b.n	256 <memset+0x1e>
     2d4:	461a      	mov	r2, r3
     2d6:	46a4      	mov	ip, r4
     2d8:	e7e0      	b.n	29c <memset+0x64>
     2da:	bf00      	nop

000002dc <__libc_init_array>:
     2dc:	b570      	push	{r4, r5, r6, lr}
     2de:	4b0f      	ldr	r3, [pc, #60]	@ (31c <__libc_init_array+0x40>)
     2e0:	4d0f      	ldr	r5, [pc, #60]	@ (320 <__libc_init_array+0x44>)
     2e2:	42ab      	cmp	r3, r5
     2e4:	eba3 0605 	sub.w	r6, r3, r5
     2e8:	d007      	beq.n	2fa <__libc_init_array+0x1e>
     2ea:	10b6      	asrs	r6, r6, #2
     2ec:	2400      	movs	r4, #0
     2ee:	f855 3b04 	ldr.w	r3, [r5], #4
     2f2:	3401      	adds	r4, #1
     2f4:	4798      	blx	r3
     2f6:	42a6      	cmp	r6, r4
     2f8:	d8f9      	bhi.n	2ee <__libc_init_array+0x12>
     2fa:	f000 ff2f 	bl	115c <_init>
     2fe:	4d09      	ldr	r5, [pc, #36]	@ (324 <__libc_init_array+0x48>)
     300:	4b09      	ldr	r3, [pc, #36]	@ (328 <__libc_init_array+0x4c>)
     302:	1b5e      	subs	r6, r3, r5
     304:	42ab      	cmp	r3, r5
     306:	ea4f 06a6 	mov.w	r6, r6, asr #2
     30a:	d006      	beq.n	31a <__libc_init_array+0x3e>
     30c:	2400      	movs	r4, #0
     30e:	f855 3b04 	ldr.w	r3, [r5], #4
     312:	3401      	adds	r4, #1
     314:	4798      	blx	r3
     316:	42a6      	cmp	r6, r4
     318:	d8f9      	bhi.n	30e <__libc_init_array+0x32>
     31a:	bd70      	pop	{r4, r5, r6, pc}
     31c:	20000044 			@ <UNDEFINED> instruction: 20000044
     320:	20000044 			@ <UNDEFINED> instruction: 20000044
     324:	20000044 			@ <UNDEFINED> instruction: 20000044
     328:	20000048 			@ <UNDEFINED> instruction: 20000048

0000032c <__libc_fini_array>:
     32c:	b538      	push	{r3, r4, r5, lr}
     32e:	4d07      	ldr	r5, [pc, #28]	@ (34c <__libc_fini_array+0x20>)
     330:	4c07      	ldr	r4, [pc, #28]	@ (350 <__libc_fini_array+0x24>)
     332:	1b2c      	subs	r4, r5, r4
     334:	10a4      	asrs	r4, r4, #2
     336:	d005      	beq.n	344 <__libc_fini_array+0x18>
     338:	3c01      	subs	r4, #1
     33a:	f855 3d04 	ldr.w	r3, [r5, #-4]!
     33e:	4798      	blx	r3
     340:	2c00      	cmp	r4, #0
     342:	d1f9      	bne.n	338 <__libc_fini_array+0xc>
     344:	e8bd 4038 	ldmia.w	sp!, {r3, r4, r5, lr}
     348:	f000 bf0e 	b.w	1168 <_fini>
     34c:	2000004c 			@ <UNDEFINED> instruction: 2000004c
     350:	20000048 			@ <UNDEFINED> instruction: 20000048

00000354 <__retarget_lock_init>:
     354:	4770      	bx	lr
     356:	bf00      	nop

00000358 <__retarget_lock_init_recursive>:
     358:	4770      	bx	lr
     35a:	bf00      	nop

0000035c <__retarget_lock_close>:
     35c:	4770      	bx	lr
     35e:	bf00      	nop

00000360 <__retarget_lock_close_recursive>:
     360:	4770      	bx	lr
     362:	bf00      	nop

00000364 <__retarget_lock_acquire>:
     364:	4770      	bx	lr
     366:	bf00      	nop

00000368 <__retarget_lock_acquire_recursive>:
     368:	4770      	bx	lr
     36a:	bf00      	nop

0000036c <__retarget_lock_try_acquire>:
     36c:	2001      	movs	r0, #1
     36e:	4770      	bx	lr

00000370 <__retarget_lock_try_acquire_recursive>:
     370:	2001      	movs	r0, #1
     372:	4770      	bx	lr

00000374 <__retarget_lock_release>:
     374:	4770      	bx	lr
     376:	bf00      	nop

00000378 <__retarget_lock_release_recursive>:
     378:	4770      	bx	lr
     37a:	bf00      	nop

0000037c <__register_exitproc>:
     37c:	e92d 4df0 	stmdb	sp!, {r4, r5, r6, r7, r8, sl, fp, lr}
     380:	f8df a0b0 	ldr.w	sl, [pc, #176]	@ 434 <__register_exitproc+0xb8>
     384:	4607      	mov	r7, r0
     386:	f8da 0000 	ldr.w	r0, [sl]
     38a:	461e      	mov	r6, r3
     38c:	4688      	mov	r8, r1
     38e:	4693      	mov	fp, r2
     390:	f7ff ffea 	bl	368 <__retarget_lock_acquire_recursive>
     394:	4b23      	ldr	r3, [pc, #140]	@ (424 <__register_exitproc+0xa8>)
     396:	681d      	ldr	r5, [r3, #0]
     398:	b335      	cbz	r5, 3e8 <__register_exitproc+0x6c>
     39a:	686c      	ldr	r4, [r5, #4]
     39c:	2c1f      	cmp	r4, #31
     39e:	dc3a      	bgt.n	416 <__register_exitproc+0x9a>
     3a0:	b1b7      	cbz	r7, 3d0 <__register_exitproc+0x54>
     3a2:	f8d5 0088 	ldr.w	r0, [r5, #136]	@ 0x88
     3a6:	b340      	cbz	r0, 3fa <__register_exitproc+0x7e>
     3a8:	f8d0 3100 	ldr.w	r3, [r0, #256]	@ 0x100
     3ac:	f840 b024 	str.w	fp, [r0, r4, lsl #2]
     3b0:	2201      	movs	r2, #1
     3b2:	40a2      	lsls	r2, r4
     3b4:	4313      	orrs	r3, r2
     3b6:	f8c0 3100 	str.w	r3, [r0, #256]	@ 0x100
     3ba:	eb00 0384 	add.w	r3, r0, r4, lsl #2
     3be:	2f02      	cmp	r7, #2
     3c0:	f8c3 6080 	str.w	r6, [r3, #128]	@ 0x80
     3c4:	d104      	bne.n	3d0 <__register_exitproc+0x54>
     3c6:	f8d0 3104 	ldr.w	r3, [r0, #260]	@ 0x104
     3ca:	4313      	orrs	r3, r2
     3cc:	f8c0 3104 	str.w	r3, [r0, #260]	@ 0x104
     3d0:	1c63      	adds	r3, r4, #1
     3d2:	3402      	adds	r4, #2
     3d4:	f8da 0000 	ldr.w	r0, [sl]
     3d8:	606b      	str	r3, [r5, #4]
     3da:	f845 8024 	str.w	r8, [r5, r4, lsl #2]
     3de:	f7ff ffcb 	bl	378 <__retarget_lock_release_recursive>
     3e2:	2000      	movs	r0, #0
     3e4:	e8bd 8df0 	ldmia.w	sp!, {r4, r5, r6, r7, r8, sl, fp, pc}
     3e8:	490f      	ldr	r1, [pc, #60]	@ (428 <__register_exitproc+0xac>)
     3ea:	4a10      	ldr	r2, [pc, #64]	@ (42c <__register_exitproc+0xb0>)
     3ec:	601a      	str	r2, [r3, #0]
     3ee:	b111      	cbz	r1, 3f6 <__register_exitproc+0x7a>
     3f0:	680b      	ldr	r3, [r1, #0]
     3f2:	f8c2 3088 	str.w	r3, [r2, #136]	@ 0x88
     3f6:	4d0d      	ldr	r5, [pc, #52]	@ (42c <__register_exitproc+0xb0>)
     3f8:	e7cf      	b.n	39a <__register_exitproc+0x1e>
     3fa:	4b0d      	ldr	r3, [pc, #52]	@ (430 <__register_exitproc+0xb4>)
     3fc:	b15b      	cbz	r3, 416 <__register_exitproc+0x9a>
     3fe:	f44f 7084 	mov.w	r0, #264	@ 0x108
     402:	f3af 8000 	nop.w
     406:	b130      	cbz	r0, 416 <__register_exitproc+0x9a>
     408:	2300      	movs	r3, #0
     40a:	e9c0 3340 	strd	r3, r3, [r0, #256]	@ 0x100
     40e:	686c      	ldr	r4, [r5, #4]
     410:	f8c5 0088 	str.w	r0, [r5, #136]	@ 0x88
     414:	e7ca      	b.n	3ac <__register_exitproc+0x30>
     416:	f8da 0000 	ldr.w	r0, [sl]
     41a:	f7ff ffad 	bl	378 <__retarget_lock_release_recursive>
     41e:	f04f 30ff 	mov.w	r0, #4294967295
     422:	e7df      	b.n	3e4 <__register_exitproc+0x68>
     424:	20000250 			@ <UNDEFINED> instruction: 20000250
     428:	00000000 			@ <UNDEFINED> instruction: 00000000
     42c:	200001c4 			@ <UNDEFINED> instruction: 200001c4
     430:	00000000 			@ <UNDEFINED> instruction: 00000000
     434:	20000000 			@ <UNDEFINED> instruction: 20000000

00000438 <__call_exitprocs>:
     438:	e92d 4ff0 	stmdb	sp!, {r4, r5, r6, r7, r8, r9, sl, fp, lr}
     43c:	4a32      	ldr	r2, [pc, #200]	@ (508 <__call_exitprocs+0xd0>)
     43e:	f8df 90cc 	ldr.w	r9, [pc, #204]	@ 50c <__call_exitprocs+0xd4>
     442:	b083      	sub	sp, #12
     444:	4603      	mov	r3, r0
     446:	6810      	ldr	r0, [r2, #0]
     448:	9301      	str	r3, [sp, #4]
     44a:	4688      	mov	r8, r1
     44c:	f7ff ff8c 	bl	368 <__retarget_lock_acquire_recursive>
     450:	f8d9 6000 	ldr.w	r6, [r9]
     454:	2e00      	cmp	r6, #0
     456:	d032      	beq.n	4be <__call_exitprocs+0x86>
     458:	6875      	ldr	r5, [r6, #4]
     45a:	f8d6 7088 	ldr.w	r7, [r6, #136]	@ 0x88
     45e:	1e6c      	subs	r4, r5, #1
     460:	d42d      	bmi.n	4be <__call_exitprocs+0x86>
     462:	3501      	adds	r5, #1
     464:	eb06 0585 	add.w	r5, r6, r5, lsl #2
     468:	f107 0b80 	add.w	fp, r7, #128	@ 0x80
     46c:	f1b8 0f00 	cmp.w	r8, #0
     470:	d12c      	bne.n	4cc <__call_exitprocs+0x94>
     472:	6873      	ldr	r3, [r6, #4]
     474:	682a      	ldr	r2, [r5, #0]
     476:	3b01      	subs	r3, #1
     478:	42a3      	cmp	r3, r4
     47a:	bf16      	itet	ne
     47c:	2300      	movne	r3, #0
     47e:	6074      	streq	r4, [r6, #4]
     480:	602b      	strne	r3, [r5, #0]
     482:	b1ba      	cbz	r2, 4b4 <__call_exitprocs+0x7c>
     484:	f8d6 a004 	ldr.w	sl, [r6, #4]
     488:	b38f      	cbz	r7, 4ee <__call_exitprocs+0xb6>
     48a:	f8d7 1100 	ldr.w	r1, [r7, #256]	@ 0x100
     48e:	2301      	movs	r3, #1
     490:	40a3      	lsls	r3, r4
     492:	420b      	tst	r3, r1
     494:	d02b      	beq.n	4ee <__call_exitprocs+0xb6>
     496:	f8d7 0104 	ldr.w	r0, [r7, #260]	@ 0x104
     49a:	f857 1024 	ldr.w	r1, [r7, r4, lsl #2]
     49e:	4203      	tst	r3, r0
     4a0:	d12f      	bne.n	502 <__call_exitprocs+0xca>
     4a2:	9801      	ldr	r0, [sp, #4]
     4a4:	4790      	blx	r2
     4a6:	6873      	ldr	r3, [r6, #4]
     4a8:	f8d9 2000 	ldr.w	r2, [r9]
     4ac:	4553      	cmp	r3, sl
     4ae:	d124      	bne.n	4fa <__call_exitprocs+0xc2>
     4b0:	42b2      	cmp	r2, r6
     4b2:	d122      	bne.n	4fa <__call_exitprocs+0xc2>
     4b4:	3c01      	subs	r4, #1
     4b6:	1c63      	adds	r3, r4, #1
     4b8:	f1a5 0504 	sub.w	r5, r5, #4
     4bc:	d1d6      	bne.n	46c <__call_exitprocs+0x34>
     4be:	4b12      	ldr	r3, [pc, #72]	@ (508 <__call_exitprocs+0xd0>)
     4c0:	6818      	ldr	r0, [r3, #0]
     4c2:	b003      	add	sp, #12
     4c4:	e8bd 4ff0 	ldmia.w	sp!, {r4, r5, r6, r7, r8, r9, sl, fp, lr}
     4c8:	f7ff bf56 	b.w	378 <__retarget_lock_release_recursive>
     4cc:	b157      	cbz	r7, 4e4 <__call_exitprocs+0xac>
     4ce:	f85b 3024 	ldr.w	r3, [fp, r4, lsl #2]
     4d2:	4543      	cmp	r3, r8
     4d4:	d0cd      	beq.n	472 <__call_exitprocs+0x3a>
     4d6:	3c01      	subs	r4, #1
     4d8:	1c62      	adds	r2, r4, #1
     4da:	f1a5 0504 	sub.w	r5, r5, #4
     4de:	d0ee      	beq.n	4be <__call_exitprocs+0x86>
     4e0:	2f00      	cmp	r7, #0
     4e2:	d1f4      	bne.n	4ce <__call_exitprocs+0x96>
     4e4:	3c01      	subs	r4, #1
     4e6:	d3ea      	bcc.n	4be <__call_exitprocs+0x86>
     4e8:	3c01      	subs	r4, #1
     4ea:	d2fb      	bcs.n	4e4 <__call_exitprocs+0xac>
     4ec:	e7e7      	b.n	4be <__call_exitprocs+0x86>
     4ee:	4790      	blx	r2
     4f0:	6873      	ldr	r3, [r6, #4]
     4f2:	f8d9 2000 	ldr.w	r2, [r9]
     4f6:	4553      	cmp	r3, sl
     4f8:	d0da      	beq.n	4b0 <__call_exitprocs+0x78>
     4fa:	2a00      	cmp	r2, #0
     4fc:	d0df      	beq.n	4be <__call_exitprocs+0x86>
     4fe:	4616      	mov	r6, r2
     500:	e7aa      	b.n	458 <__call_exitprocs+0x20>
     502:	4608      	mov	r0, r1
     504:	4790      	blx	r2
     506:	e7ce      	b.n	4a6 <__call_exitprocs+0x6e>
     508:	20000000 			@ <UNDEFINED> instruction: 20000000
     50c:	20000250 			@ <UNDEFINED> instruction: 20000250

00000510 <SystemCoreClockUpdate>:
     510:	b480      	push	{r7}
     512:	b087      	sub	sp, #28
     514:	af00      	add	r7, sp, #0
     516:	2301      	movs	r3, #1
     518:	613b      	str	r3, [r7, #16]
     51a:	4b2c      	ldr	r3, [pc, #176]	@ (5cc <SystemCoreClockUpdate+0xbc>)
     51c:	695b      	ldr	r3, [r3, #20]
     51e:	f3c3 0301 	ubfx	r3, r3, #0, #2
     522:	b2db      	uxtb	r3, r3
     524:	60fb      	str	r3, [r7, #12]
     526:	68fb      	ldr	r3, [r7, #12]
     528:	2b03      	cmp	r3, #3
     52a:	d849      	bhi.n	5c0 <SystemCoreClockUpdate+0xb0>
     52c:	68fb      	ldr	r3, [r7, #12]
     52e:	2b02      	cmp	r3, #2
     530:	d20e      	bcs.n	550 <SystemCoreClockUpdate+0x40>
     532:	68fb      	ldr	r3, [r7, #12]
     534:	2b00      	cmp	r3, #0
     536:	d003      	beq.n	540 <SystemCoreClockUpdate+0x30>
     538:	68fb      	ldr	r3, [r7, #12]
     53a:	2b01      	cmp	r3, #1
     53c:	d004      	beq.n	548 <SystemCoreClockUpdate+0x38>
     53e:	e03f      	b.n	5c0 <SystemCoreClockUpdate+0xb0>
     540:	4b23      	ldr	r3, [pc, #140]	@ (5d0 <SystemCoreClockUpdate+0xc0>)
     542:	4a24      	ldr	r2, [pc, #144]	@ (5d4 <SystemCoreClockUpdate+0xc4>)
     544:	601a      	str	r2, [r3, #0]
     546:	e03b      	b.n	5c0 <SystemCoreClockUpdate+0xb0>
     548:	4b21      	ldr	r3, [pc, #132]	@ (5d0 <SystemCoreClockUpdate+0xc0>)
     54a:	4a23      	ldr	r2, [pc, #140]	@ (5d8 <SystemCoreClockUpdate+0xc8>)
     54c:	601a      	str	r2, [r3, #0]
     54e:	e037      	b.n	5c0 <SystemCoreClockUpdate+0xb0>
     550:	68fb      	ldr	r3, [r7, #12]
     552:	2b03      	cmp	r3, #3
     554:	d106      	bne.n	564 <SystemCoreClockUpdate+0x54>
     556:	4b1d      	ldr	r3, [pc, #116]	@ (5cc <SystemCoreClockUpdate+0xbc>)
     558:	68db      	ldr	r3, [r3, #12]
     55a:	f3c3 2305 	ubfx	r3, r3, #8, #6
     55e:	b2db      	uxtb	r3, r3
     560:	3301      	adds	r3, #1
     562:	613b      	str	r3, [r7, #16]
     564:	4b19      	ldr	r3, [pc, #100]	@ (5cc <SystemCoreClockUpdate+0xbc>)
     566:	689b      	ldr	r3, [r3, #8]
     568:	f3c3 2305 	ubfx	r3, r3, #8, #6
     56c:	b2db      	uxtb	r3, r3
     56e:	60bb      	str	r3, [r7, #8]
     570:	4b16      	ldr	r3, [pc, #88]	@ (5cc <SystemCoreClockUpdate+0xbc>)
     572:	689b      	ldr	r3, [r3, #8]
     574:	f3c3 0305 	ubfx	r3, r3, #0, #6
     578:	b2db      	uxtb	r3, r3
     57a:	607b      	str	r3, [r7, #4]
     57c:	4b13      	ldr	r3, [pc, #76]	@ (5cc <SystemCoreClockUpdate+0xbc>)
     57e:	689b      	ldr	r3, [r3, #8]
     580:	f3c3 4301 	ubfx	r3, r3, #16, #2
     584:	b2db      	uxtb	r3, r3
     586:	603b      	str	r3, [r7, #0]
     588:	4b10      	ldr	r3, [pc, #64]	@ (5cc <SystemCoreClockUpdate+0xbc>)
     58a:	689b      	ldr	r3, [r3, #8]
     58c:	f3c3 5300 	ubfx	r3, r3, #20, #1
     590:	b2db      	uxtb	r3, r3
     592:	2b01      	cmp	r3, #1
     594:	d102      	bne.n	59c <SystemCoreClockUpdate+0x8c>
     596:	4b0f      	ldr	r3, [pc, #60]	@ (5d4 <SystemCoreClockUpdate+0xc4>)
     598:	617b      	str	r3, [r7, #20]
     59a:	e001      	b.n	5a0 <SystemCoreClockUpdate+0x90>
     59c:	4b0e      	ldr	r3, [pc, #56]	@ (5d8 <SystemCoreClockUpdate+0xc8>)
     59e:	617b      	str	r3, [r7, #20]
     5a0:	697b      	ldr	r3, [r7, #20]
     5a2:	687a      	ldr	r2, [r7, #4]
     5a4:	fb03 f202 	mul.w	r2, r3, r2
     5a8:	68b9      	ldr	r1, [r7, #8]
     5aa:	683b      	ldr	r3, [r7, #0]
     5ac:	fa01 f303 	lsl.w	r3, r1, r3
     5b0:	6939      	ldr	r1, [r7, #16]
     5b2:	fb01 f303 	mul.w	r3, r1, r3
     5b6:	fbb2 f3f3 	udiv	r3, r2, r3
     5ba:	4a05      	ldr	r2, [pc, #20]	@ (5d0 <SystemCoreClockUpdate+0xc0>)
     5bc:	6013      	str	r3, [r2, #0]
     5be:	bf00      	nop
     5c0:	bf00      	nop
     5c2:	371c      	adds	r7, #28
     5c4:	46bd      	mov	sp, r7
     5c6:	f85d 7b04 	ldr.w	r7, [sp], #4
     5ca:	4770      	bx	lr
     5cc:	40041000 			@ <UNDEFINED> instruction: 40041000
     5d0:	20000254 			@ <UNDEFINED> instruction: 20000254
     5d4:	007a1200 			@ <UNDEFINED> instruction: 007a1200
     5d8:	00f42400 			@ <UNDEFINED> instruction: 00f42400

000005dc <ClkInit>:
     5dc:	b480      	push	{r7}
     5de:	b083      	sub	sp, #12
     5e0:	af00      	add	r7, sp, #0
     5e2:	2300      	movs	r3, #0
     5e4:	607b      	str	r3, [r7, #4]
     5e6:	e002      	b.n	5ee <ClkInit+0x12>
     5e8:	687b      	ldr	r3, [r7, #4]
     5ea:	3301      	adds	r3, #1
     5ec:	607b      	str	r3, [r7, #4]
     5ee:	4b38      	ldr	r3, [pc, #224]	@ (6d0 <ClkInit+0xf4>)
     5f0:	695b      	ldr	r3, [r3, #20]
     5f2:	f3c3 6340 	ubfx	r3, r3, #25, #1
     5f6:	b2db      	uxtb	r3, r3
     5f8:	2b00      	cmp	r3, #0
     5fa:	d103      	bne.n	604 <ClkInit+0x28>
     5fc:	687b      	ldr	r3, [r7, #4]
     5fe:	f5b3 1f80 	cmp.w	r3, #1048576	@ 0x100000
     602:	d3f1      	bcc.n	5e8 <ClkInit+0xc>
     604:	687b      	ldr	r3, [r7, #4]
     606:	f5b3 1f80 	cmp.w	r3, #1048576	@ 0x100000
     60a:	d101      	bne.n	610 <ClkInit+0x34>
     60c:	bf00      	nop
     60e:	e7fd      	b.n	60c <ClkInit+0x30>
     610:	4b2f      	ldr	r3, [pc, #188]	@ (6d0 <ClkInit+0xf4>)
     612:	f240 2219 	movw	r2, #537	@ 0x219
     616:	609a      	str	r2, [r3, #8]
     618:	4b2d      	ldr	r3, [pc, #180]	@ (6d0 <ClkInit+0xf4>)
     61a:	689b      	ldr	r3, [r3, #8]
     61c:	4a2c      	ldr	r2, [pc, #176]	@ (6d0 <ClkInit+0xf4>)
     61e:	f043 6380 	orr.w	r3, r3, #67108864	@ 0x4000000
     622:	f443 3380 	orr.w	r3, r3, #65536	@ 0x10000
     626:	6093      	str	r3, [r2, #8]
     628:	bf00      	nop
     62a:	4b29      	ldr	r3, [pc, #164]	@ (6d0 <ClkInit+0xf4>)
     62c:	689b      	ldr	r3, [r3, #8]
     62e:	f3c3 7300 	ubfx	r3, r3, #28, #1
     632:	b2db      	uxtb	r3, r3
     634:	2b00      	cmp	r3, #0
     636:	d0f8      	beq.n	62a <ClkInit+0x4e>
     638:	4b26      	ldr	r3, [pc, #152]	@ (6d4 <ClkInit+0xf8>)
     63a:	f44f 3240 	mov.w	r2, #196608	@ 0x30000
     63e:	62da      	str	r2, [r3, #44]	@ 0x2c
     640:	2302      	movs	r3, #2
     642:	603b      	str	r3, [r7, #0]
     644:	4a22      	ldr	r2, [pc, #136]	@ (6d0 <ClkInit+0xf4>)
     646:	683b      	ldr	r3, [r7, #0]
     648:	6113      	str	r3, [r2, #16]
     64a:	2300      	movs	r3, #0
     64c:	607b      	str	r3, [r7, #4]
     64e:	e002      	b.n	656 <ClkInit+0x7a>
     650:	687b      	ldr	r3, [r7, #4]
     652:	3301      	adds	r3, #1
     654:	607b      	str	r3, [r7, #4]
     656:	4b1e      	ldr	r3, [pc, #120]	@ (6d0 <ClkInit+0xf4>)
     658:	695b      	ldr	r3, [r3, #20]
     65a:	f3c3 0301 	ubfx	r3, r3, #0, #2
     65e:	b2da      	uxtb	r2, r3
     660:	4b1b      	ldr	r3, [pc, #108]	@ (6d0 <ClkInit+0xf4>)
     662:	691b      	ldr	r3, [r3, #16]
     664:	f3c3 0301 	ubfx	r3, r3, #0, #2
     668:	b2db      	uxtb	r3, r3
     66a:	429a      	cmp	r2, r3
     66c:	d003      	beq.n	676 <ClkInit+0x9a>
     66e:	687b      	ldr	r3, [r7, #4]
     670:	f5b3 1f80 	cmp.w	r3, #1048576	@ 0x100000
     674:	d3ec      	bcc.n	650 <ClkInit+0x74>
     676:	687b      	ldr	r3, [r7, #4]
     678:	f5b3 1f80 	cmp.w	r3, #1048576	@ 0x100000
     67c:	d101      	bne.n	682 <ClkInit+0xa6>
     67e:	bf00      	nop
     680:	e7fd      	b.n	67e <ClkInit+0xa2>
     682:	4a14      	ldr	r2, [pc, #80]	@ (6d4 <ClkInit+0xf8>)
     684:	6ad3      	ldr	r3, [r2, #44]	@ 0x2c
     686:	f443 7380 	orr.w	r3, r3, #256	@ 0x100
     68a:	62d3      	str	r3, [r2, #44]	@ 0x2c
     68c:	bf00      	nop
     68e:	4b11      	ldr	r3, [pc, #68]	@ (6d4 <ClkInit+0xf8>)
     690:	6b5b      	ldr	r3, [r3, #52]	@ 0x34
     692:	f3c3 0300 	ubfx	r3, r3, #0, #1
     696:	b2db      	uxtb	r3, r3
     698:	2b00      	cmp	r3, #0
     69a:	d1f8      	bne.n	68e <ClkInit+0xb2>
     69c:	4a0d      	ldr	r2, [pc, #52]	@ (6d4 <ClkInit+0xf8>)
     69e:	6ad3      	ldr	r3, [r2, #44]	@ 0x2c
     6a0:	f443 7300 	orr.w	r3, r3, #512	@ 0x200
     6a4:	62d3      	str	r3, [r2, #44]	@ 0x2c
     6a6:	bf00      	nop
     6a8:	4b0a      	ldr	r3, [pc, #40]	@ (6d4 <ClkInit+0xf8>)
     6aa:	6b9b      	ldr	r3, [r3, #56]	@ 0x38
     6ac:	f3c3 0300 	ubfx	r3, r3, #0, #1
     6b0:	b2db      	uxtb	r3, r3
     6b2:	2b00      	cmp	r3, #0
     6b4:	d1f8      	bne.n	6a8 <ClkInit+0xcc>
     6b6:	4b07      	ldr	r3, [pc, #28]	@ (6d4 <ClkInit+0xf8>)
     6b8:	6adb      	ldr	r3, [r3, #44]	@ 0x2c
     6ba:	4a06      	ldr	r2, [pc, #24]	@ (6d4 <ClkInit+0xf8>)
     6bc:	f043 0307 	orr.w	r3, r3, #7
     6c0:	62d3      	str	r3, [r2, #44]	@ 0x2c
     6c2:	bf00      	nop
     6c4:	370c      	adds	r7, #12
     6c6:	46bd      	mov	sp, r7
     6c8:	f85d 7b04 	ldr.w	r7, [sp], #4
     6cc:	4770      	bx	lr
     6ce:	bf00      	nop
     6d0:	40041000 			@ <UNDEFINED> instruction: 40041000
     6d4:	40030000 			@ <UNDEFINED> instruction: 40030000

000006d8 <FPUInit>:
     6d8:	b480      	push	{r7}
     6da:	af00      	add	r7, sp, #0
     6dc:	4b07      	ldr	r3, [pc, #28]	@ (6fc <FPUInit+0x24>)
     6de:	f44f 0270 	mov.w	r2, #15728640	@ 0xf00000
     6e2:	f8c3 2088 	str.w	r2, [r3, #136]	@ 0x88
     6e6:	f3bf 8f4f 	dsb	sy
     6ea:	bf00      	nop
     6ec:	f3bf 8f6f 	isb	sy
     6f0:	bf00      	nop
     6f2:	bf00      	nop
     6f4:	46bd      	mov	sp, r7
     6f6:	f85d 7b04 	ldr.w	r7, [sp], #4
     6fa:	4770      	bx	lr
     6fc:	e000ed00 			@ <UNDEFINED> instruction: e000ed00

00000700 <SystemInit>:
     700:	b580      	push	{r7, lr}
     702:	af00      	add	r7, sp, #0
     704:	4b02      	ldr	r3, [pc, #8]	@ (710 <SystemInit+0x10>)
     706:	4798      	blx	r3
     708:	4b02      	ldr	r3, [pc, #8]	@ (714 <SystemInit+0x14>)
     70a:	4798      	blx	r3
     70c:	bf00      	nop
     70e:	bd80      	pop	{r7, pc}
     710:	000005dd 	ldrdeq	r0, [r0], -sp
     714:	000006d9 	ldrdeq	r0, [r0], -r9

00000718 <__NVIC_EnableIRQ>:
     718:	b480      	push	{r7}
     71a:	b083      	sub	sp, #12
     71c:	af00      	add	r7, sp, #0
     71e:	4603      	mov	r3, r0
     720:	71fb      	strb	r3, [r7, #7]
     722:	f997 3007 	ldrsb.w	r3, [r7, #7]
     726:	2b00      	cmp	r3, #0
     728:	db0b      	blt.n	742 <__NVIC_EnableIRQ+0x2a>
     72a:	79fb      	ldrb	r3, [r7, #7]
     72c:	f003 021f 	and.w	r2, r3, #31
     730:	4907      	ldr	r1, [pc, #28]	@ (750 <__NVIC_EnableIRQ+0x38>)
     732:	f997 3007 	ldrsb.w	r3, [r7, #7]
     736:	095b      	lsrs	r3, r3, #5
     738:	2001      	movs	r0, #1
     73a:	fa00 f202 	lsl.w	r2, r0, r2
     73e:	f841 2023 	str.w	r2, [r1, r3, lsl #2]
     742:	bf00      	nop
     744:	370c      	adds	r7, #12
     746:	46bd      	mov	sp, r7
     748:	f85d 7b04 	ldr.w	r7, [sp], #4
     74c:	4770      	bx	lr
     74e:	bf00      	nop
     750:	e000e100 			@ <UNDEFINED> instruction: e000e100

00000754 <__NVIC_SetPriority>:
     754:	b480      	push	{r7}
     756:	b083      	sub	sp, #12
     758:	af00      	add	r7, sp, #0
     75a:	4603      	mov	r3, r0
     75c:	6039      	str	r1, [r7, #0]
     75e:	71fb      	strb	r3, [r7, #7]
     760:	f997 3007 	ldrsb.w	r3, [r7, #7]
     764:	2b00      	cmp	r3, #0
     766:	db0a      	blt.n	77e <__NVIC_SetPriority+0x2a>
     768:	683b      	ldr	r3, [r7, #0]
     76a:	b2da      	uxtb	r2, r3
     76c:	490c      	ldr	r1, [pc, #48]	@ (7a0 <__NVIC_SetPriority+0x4c>)
     76e:	f997 3007 	ldrsb.w	r3, [r7, #7]
     772:	0152      	lsls	r2, r2, #5
     774:	b2d2      	uxtb	r2, r2
     776:	440b      	add	r3, r1
     778:	f883 2300 	strb.w	r2, [r3, #768]	@ 0x300
     77c:	e00a      	b.n	794 <__NVIC_SetPriority+0x40>
     77e:	683b      	ldr	r3, [r7, #0]
     780:	b2da      	uxtb	r2, r3
     782:	4908      	ldr	r1, [pc, #32]	@ (7a4 <__NVIC_SetPriority+0x50>)
     784:	79fb      	ldrb	r3, [r7, #7]
     786:	f003 030f 	and.w	r3, r3, #15
     78a:	3b04      	subs	r3, #4
     78c:	0152      	lsls	r2, r2, #5
     78e:	b2d2      	uxtb	r2, r2
     790:	440b      	add	r3, r1
     792:	761a      	strb	r2, [r3, #24]
     794:	bf00      	nop
     796:	370c      	adds	r7, #12
     798:	46bd      	mov	sp, r7
     79a:	f85d 7b04 	ldr.w	r7, [sp], #4
     79e:	4770      	bx	lr
     7a0:	e000e100 			@ <UNDEFINED> instruction: e000e100
     7a4:	e000ed00 			@ <UNDEFINED> instruction: e000ed00

000007a8 <SysTick_Config>:
     7a8:	b580      	push	{r7, lr}
     7aa:	b082      	sub	sp, #8
     7ac:	af00      	add	r7, sp, #0
     7ae:	6078      	str	r0, [r7, #4]
     7b0:	687b      	ldr	r3, [r7, #4]
     7b2:	3b01      	subs	r3, #1
     7b4:	f1b3 7f80 	cmp.w	r3, #16777216	@ 0x1000000
     7b8:	d301      	bcc.n	7be <SysTick_Config+0x16>
     7ba:	2301      	movs	r3, #1
     7bc:	e00f      	b.n	7de <SysTick_Config+0x36>
     7be:	4a0a      	ldr	r2, [pc, #40]	@ (7e8 <SysTick_Config+0x40>)
     7c0:	687b      	ldr	r3, [r7, #4]
     7c2:	3b01      	subs	r3, #1
     7c4:	6053      	str	r3, [r2, #4]
     7c6:	2107      	movs	r1, #7
     7c8:	f04f 30ff 	mov.w	r0, #4294967295
     7cc:	4b07      	ldr	r3, [pc, #28]	@ (7ec <SysTick_Config+0x44>)
     7ce:	4798      	blx	r3
     7d0:	4b05      	ldr	r3, [pc, #20]	@ (7e8 <SysTick_Config+0x40>)
     7d2:	2200      	movs	r2, #0
     7d4:	609a      	str	r2, [r3, #8]
     7d6:	4b04      	ldr	r3, [pc, #16]	@ (7e8 <SysTick_Config+0x40>)
     7d8:	2207      	movs	r2, #7
     7da:	601a      	str	r2, [r3, #0]
     7dc:	2300      	movs	r3, #0
     7de:	4618      	mov	r0, r3
     7e0:	3708      	adds	r7, #8
     7e2:	46bd      	mov	sp, r7
     7e4:	bd80      	pop	{r7, pc}
     7e6:	bf00      	nop
     7e8:	e000e010 			@ <UNDEFINED> instruction: e000e010
     7ec:	00000755 			@ <UNDEFINED> instruction: 00000755

000007f0 <main>:
     7f0:	b580      	push	{r7, lr}
     7f2:	af00      	add	r7, sp, #0
     7f4:	4b16      	ldr	r3, [pc, #88]	@ (850 <main+0x60>)
     7f6:	4798      	blx	r3
     7f8:	4b16      	ldr	r3, [pc, #88]	@ (854 <main+0x64>)
     7fa:	4798      	blx	r3
     7fc:	4b16      	ldr	r3, [pc, #88]	@ (858 <main+0x68>)
     7fe:	4798      	blx	r3
     800:	4816      	ldr	r0, [pc, #88]	@ (85c <main+0x6c>)
     802:	4b17      	ldr	r3, [pc, #92]	@ (860 <main+0x70>)
     804:	4798      	blx	r3
     806:	4b17      	ldr	r3, [pc, #92]	@ (864 <main+0x74>)
     808:	4798      	blx	r3
     80a:	4b17      	ldr	r3, [pc, #92]	@ (868 <main+0x78>)
     80c:	4798      	blx	r3
     80e:	4817      	ldr	r0, [pc, #92]	@ (86c <main+0x7c>)
     810:	4b17      	ldr	r3, [pc, #92]	@ (870 <main+0x80>)
     812:	4798      	blx	r3
     814:	4603      	mov	r3, r0
     816:	b29b      	uxth	r3, r3
     818:	4619      	mov	r1, r3
     81a:	4814      	ldr	r0, [pc, #80]	@ (86c <main+0x7c>)
     81c:	4b15      	ldr	r3, [pc, #84]	@ (874 <main+0x84>)
     81e:	4798      	blx	r3
     820:	4b15      	ldr	r3, [pc, #84]	@ (878 <main+0x88>)
     822:	781b      	ldrb	r3, [r3, #0]
     824:	b2db      	uxtb	r3, r3
     826:	2b00      	cmp	r3, #0
     828:	d0fa      	beq.n	820 <main+0x30>
     82a:	4814      	ldr	r0, [pc, #80]	@ (87c <main+0x8c>)
     82c:	4b10      	ldr	r3, [pc, #64]	@ (870 <main+0x80>)
     82e:	4798      	blx	r3
     830:	4603      	mov	r3, r0
     832:	b29b      	uxth	r3, r3
     834:	4619      	mov	r1, r3
     836:	4811      	ldr	r0, [pc, #68]	@ (87c <main+0x8c>)
     838:	4b0e      	ldr	r3, [pc, #56]	@ (874 <main+0x84>)
     83a:	4798      	blx	r3
     83c:	4b0e      	ldr	r3, [pc, #56]	@ (878 <main+0x88>)
     83e:	2200      	movs	r2, #0
     840:	701a      	strb	r2, [r3, #0]
     842:	2240      	movs	r2, #64	@ 0x40
     844:	2100      	movs	r1, #0
     846:	480d      	ldr	r0, [pc, #52]	@ (87c <main+0x8c>)
     848:	4b0d      	ldr	r3, [pc, #52]	@ (880 <main+0x90>)
     84a:	4798      	blx	r3
     84c:	e7e8      	b.n	820 <main+0x30>
     84e:	bf00      	nop
     850:	00000511 			@ <UNDEFINED> instruction: 00000511
     854:	000008b1 			@ <UNDEFINED> instruction: 000008b1
     858:	000008f9 	strdeq	r0, [r0], -r9
     85c:	00989680 			@ <UNDEFINED> instruction: 00989680
     860:	000007a9 			@ <UNDEFINED> instruction: 000007a9
     864:	000009a9 			@ <UNDEFINED> instruction: 000009a9
     868:	000009e9 			@ <UNDEFINED> instruction: 000009e9
     86c:	20000004 			@ <UNDEFINED> instruction: 20000004
     870:	00001081 			@ <UNDEFINED> instruction: 00001081
     874:	00000c1d 			@ <UNDEFINED> instruction: 00000c1d
     878:	2000035e 			@ <UNDEFINED> instruction: 2000035e
     87c:	2000025c 			@ <UNDEFINED> instruction: 2000025c
     880:	00000239 			@ <UNDEFINED> instruction: 00000239

00000884 <SysTick_Handler>:
     884:	b480      	push	{r7}
     886:	af00      	add	r7, sp, #0
     888:	bf00      	nop
     88a:	46bd      	mov	sp, r7
     88c:	f85d 7b04 	ldr.w	r7, [sp], #4
     890:	4770      	bx	lr
	...

00000894 <Led_Pin_Toggle>:
     894:	b480      	push	{r7}
     896:	af00      	add	r7, sp, #0
     898:	4a04      	ldr	r2, [pc, #16]	@ (8ac <Led_Pin_Toggle+0x18>)
     89a:	8a13      	ldrh	r3, [r2, #16]
     89c:	f443 7380 	orr.w	r3, r3, #256	@ 0x100
     8a0:	8213      	strh	r3, [r2, #16]
     8a2:	bf00      	nop
     8a4:	46bd      	mov	sp, r7
     8a6:	f85d 7b04 	ldr.w	r7, [sp], #4
     8aa:	4770      	bx	lr
     8ac:	40010000 			@ <UNDEFINED> instruction: 40010000

000008b0 <Led_Pin_Init>:
     8b0:	b480      	push	{r7}
     8b2:	af00      	add	r7, sp, #0
     8b4:	4a0e      	ldr	r2, [pc, #56]	@ (8f0 <Led_Pin_Init+0x40>)
     8b6:	f892 3100 	ldrb.w	r3, [r2, #256]	@ 0x100
     8ba:	f043 0301 	orr.w	r3, r3, #1
     8be:	f882 3100 	strb.w	r3, [r2, #256]	@ 0x100
     8c2:	4a0b      	ldr	r2, [pc, #44]	@ (8f0 <Led_Pin_Init+0x40>)
     8c4:	f892 3104 	ldrb.w	r3, [r2, #260]	@ 0x104
     8c8:	f043 0301 	orr.w	r3, r3, #1
     8cc:	f882 3104 	strb.w	r3, [r2, #260]	@ 0x104
     8d0:	4a08      	ldr	r2, [pc, #32]	@ (8f4 <Led_Pin_Init+0x44>)
     8d2:	8a93      	ldrh	r3, [r2, #20]
     8d4:	f443 7380 	orr.w	r3, r3, #256	@ 0x100
     8d8:	8293      	strh	r3, [r2, #20]
     8da:	4a06      	ldr	r2, [pc, #24]	@ (8f4 <Led_Pin_Init+0x44>)
     8dc:	8d93      	ldrh	r3, [r2, #44]	@ 0x2c
     8de:	f443 7380 	orr.w	r3, r3, #256	@ 0x100
     8e2:	8593      	strh	r3, [r2, #44]	@ 0x2c
     8e4:	bf00      	nop
     8e6:	46bd      	mov	sp, r7
     8e8:	f85d 7b04 	ldr.w	r7, [sp], #4
     8ec:	4770      	bx	lr
     8ee:	bf00      	nop
     8f0:	40041000 			@ <UNDEFINED> instruction: 40041000
     8f4:	40010000 			@ <UNDEFINED> instruction: 40010000

000008f8 <Button_Init>:
     8f8:	b580      	push	{r7, lr}
     8fa:	af00      	add	r7, sp, #0
     8fc:	4a16      	ldr	r2, [pc, #88]	@ (958 <Button_Init+0x60>)
     8fe:	f892 3100 	ldrb.w	r3, [r2, #256]	@ 0x100
     902:	f043 0301 	orr.w	r3, r3, #1
     906:	f882 3100 	strb.w	r3, [r2, #256]	@ 0x100
     90a:	4a13      	ldr	r2, [pc, #76]	@ (958 <Button_Init+0x60>)
     90c:	f892 3104 	ldrb.w	r3, [r2, #260]	@ 0x104
     910:	f043 0301 	orr.w	r3, r3, #1
     914:	f882 3104 	strb.w	r3, [r2, #260]	@ 0x104
     918:	4a10      	ldr	r2, [pc, #64]	@ (95c <Button_Init+0x64>)
     91a:	8a93      	ldrh	r3, [r2, #20]
     91c:	f043 0380 	orr.w	r3, r3, #128	@ 0x80
     920:	8293      	strh	r3, [r2, #20]
     922:	4a0e      	ldr	r2, [pc, #56]	@ (95c <Button_Init+0x64>)
     924:	f8b2 3068 	ldrh.w	r3, [r2, #104]	@ 0x68
     928:	f023 0380 	bic.w	r3, r3, #128	@ 0x80
     92c:	f8a2 3068 	strh.w	r3, [r2, #104]	@ 0x68
     930:	4a0a      	ldr	r2, [pc, #40]	@ (95c <Button_Init+0x64>)
     932:	f8b2 3070 	ldrh.w	r3, [r2, #112]	@ 0x70
     936:	f023 0380 	bic.w	r3, r3, #128	@ 0x80
     93a:	f8a2 3070 	strh.w	r3, [r2, #112]	@ 0x70
     93e:	4a07      	ldr	r2, [pc, #28]	@ (95c <Button_Init+0x64>)
     940:	f8b2 3060 	ldrh.w	r3, [r2, #96]	@ 0x60
     944:	f043 0380 	orr.w	r3, r3, #128	@ 0x80
     948:	f8a2 3060 	strh.w	r3, [r2, #96]	@ 0x60
     94c:	2003      	movs	r0, #3
     94e:	4b04      	ldr	r3, [pc, #16]	@ (960 <Button_Init+0x68>)
     950:	4798      	blx	r3
     952:	bf00      	nop
     954:	bd80      	pop	{r7, pc}
     956:	bf00      	nop
     958:	40041000 			@ <UNDEFINED> instruction: 40041000
     95c:	40010000 			@ <UNDEFINED> instruction: 40010000
     960:	00000719 			@ <UNDEFINED> instruction: 00000719

00000964 <GPIOA_IRQHandler>:
     964:	b580      	push	{r7, lr}
     966:	af00      	add	r7, sp, #0
     968:	4a0b      	ldr	r2, [pc, #44]	@ (998 <GPIOA_IRQHandler+0x34>)
     96a:	f8b2 3080 	ldrh.w	r3, [r2, #128]	@ 0x80
     96e:	f043 0380 	orr.w	r3, r3, #128	@ 0x80
     972:	f8a2 3080 	strh.w	r3, [r2, #128]	@ 0x80
     976:	4b09      	ldr	r3, [pc, #36]	@ (99c <GPIOA_IRQHandler+0x38>)
     978:	4798      	blx	r3
     97a:	4b07      	ldr	r3, [pc, #28]	@ (998 <GPIOA_IRQHandler+0x34>)
     97c:	681b      	ldr	r3, [r3, #0]
     97e:	09db      	lsrs	r3, r3, #7
     980:	f003 0301 	and.w	r3, r3, #1
     984:	4a06      	ldr	r2, [pc, #24]	@ (9a0 <GPIOA_IRQHandler+0x3c>)
     986:	6013      	str	r3, [r2, #0]
     988:	4b05      	ldr	r3, [pc, #20]	@ (9a0 <GPIOA_IRQHandler+0x3c>)
     98a:	681b      	ldr	r3, [r3, #0]
     98c:	2b01      	cmp	r3, #1
     98e:	d101      	bne.n	994 <GPIOA_IRQHandler+0x30>
     990:	4b04      	ldr	r3, [pc, #16]	@ (9a4 <GPIOA_IRQHandler+0x40>)
     992:	4798      	blx	r3
     994:	bf00      	nop
     996:	bd80      	pop	{r7, pc}
     998:	40010000 			@ <UNDEFINED> instruction: 40010000
     99c:	00000895 			@ <UNDEFINED> instruction: 00000895
     9a0:	20000258 			@ <UNDEFINED> instruction: 20000258
     9a4:	000009c9 			@ <UNDEFINED> instruction: 000009c9

000009a8 <Led_Pin_ON>:
     9a8:	b480      	push	{r7}
     9aa:	af00      	add	r7, sp, #0
     9ac:	4a05      	ldr	r2, [pc, #20]	@ (9c4 <Led_Pin_ON+0x1c>)
     9ae:	8913      	ldrh	r3, [r2, #8]
     9b0:	f443 7380 	orr.w	r3, r3, #256	@ 0x100
     9b4:	8113      	strh	r3, [r2, #8]
     9b6:	2301      	movs	r3, #1
     9b8:	4618      	mov	r0, r3
     9ba:	46bd      	mov	sp, r7
     9bc:	f85d 7b04 	ldr.w	r7, [sp], #4
     9c0:	4770      	bx	lr
     9c2:	bf00      	nop
     9c4:	40010000 			@ <UNDEFINED> instruction: 40010000

000009c8 <Led_Pin_OFF>:
     9c8:	b480      	push	{r7}
     9ca:	af00      	add	r7, sp, #0
     9cc:	4a05      	ldr	r2, [pc, #20]	@ (9e4 <Led_Pin_OFF+0x1c>)
     9ce:	8993      	ldrh	r3, [r2, #12]
     9d0:	f443 7380 	orr.w	r3, r3, #256	@ 0x100
     9d4:	8193      	strh	r3, [r2, #12]
     9d6:	2300      	movs	r3, #0
     9d8:	4618      	mov	r0, r3
     9da:	46bd      	mov	sp, r7
     9dc:	f85d 7b04 	ldr.w	r7, [sp], #4
     9e0:	4770      	bx	lr
     9e2:	bf00      	nop
     9e4:	40010000 			@ <UNDEFINED> instruction: 40010000

000009e8 <UART_Init>:
     9e8:	b590      	push	{r4, r7, lr}
     9ea:	b085      	sub	sp, #20
     9ec:	af00      	add	r7, sp, #0
     9ee:	4a50      	ldr	r2, [pc, #320]	@ (b30 <UART_Init+0x148>)
     9f0:	f892 3100 	ldrb.w	r3, [r2, #256]	@ 0x100
     9f4:	f043 0302 	orr.w	r3, r3, #2
     9f8:	f882 3100 	strb.w	r3, [r2, #256]	@ 0x100
     9fc:	4a4c      	ldr	r2, [pc, #304]	@ (b30 <UART_Init+0x148>)
     9fe:	f892 3104 	ldrb.w	r3, [r2, #260]	@ 0x104
     a02:	f043 0302 	orr.w	r3, r3, #2
     a06:	f882 3104 	strb.w	r3, [r2, #260]	@ 0x104
     a0a:	4a4a      	ldr	r2, [pc, #296]	@ (b34 <UART_Init+0x14c>)
     a0c:	8e93      	ldrh	r3, [r2, #52]	@ 0x34
     a0e:	f443 6380 	orr.w	r3, r3, #1024	@ 0x400
     a12:	8693      	strh	r3, [r2, #52]	@ 0x34
     a14:	4a47      	ldr	r2, [pc, #284]	@ (b34 <UART_Init+0x14c>)
     a16:	8a93      	ldrh	r3, [r2, #20]
     a18:	f443 6380 	orr.w	r3, r3, #1024	@ 0x400
     a1c:	8293      	strh	r3, [r2, #20]
     a1e:	4a45      	ldr	r2, [pc, #276]	@ (b34 <UART_Init+0x14c>)
     a20:	8e93      	ldrh	r3, [r2, #52]	@ 0x34
     a22:	f443 6300 	orr.w	r3, r3, #2048	@ 0x800
     a26:	8693      	strh	r3, [r2, #52]	@ 0x34
     a28:	4a42      	ldr	r2, [pc, #264]	@ (b34 <UART_Init+0x14c>)
     a2a:	8a93      	ldrh	r3, [r2, #20]
     a2c:	f443 6300 	orr.w	r3, r3, #2048	@ 0x800
     a30:	8293      	strh	r3, [r2, #20]
     a32:	4a3f      	ldr	r2, [pc, #252]	@ (b30 <UART_Init+0x148>)
     a34:	6e13      	ldr	r3, [r2, #96]	@ 0x60
     a36:	f423 3380 	bic.w	r3, r3, #65536	@ 0x10000
     a3a:	6613      	str	r3, [r2, #96]	@ 0x60
     a3c:	4a3c      	ldr	r2, [pc, #240]	@ (b30 <UART_Init+0x148>)
     a3e:	6e13      	ldr	r3, [r2, #96]	@ 0x60
     a40:	2101      	movs	r1, #1
     a42:	f361 2309 	bfi	r3, r1, #8, #2
     a46:	6613      	str	r3, [r2, #96]	@ 0x60
     a48:	4a39      	ldr	r2, [pc, #228]	@ (b30 <UART_Init+0x148>)
     a4a:	6e13      	ldr	r3, [r2, #96]	@ 0x60
     a4c:	f043 0310 	orr.w	r3, r3, #16
     a50:	6613      	str	r3, [r2, #96]	@ 0x60
     a52:	4a37      	ldr	r2, [pc, #220]	@ (b30 <UART_Init+0x148>)
     a54:	6e13      	ldr	r3, [r2, #96]	@ 0x60
     a56:	f043 0301 	orr.w	r3, r3, #1
     a5a:	6613      	str	r3, [r2, #96]	@ 0x60
     a5c:	4b36      	ldr	r3, [pc, #216]	@ (b38 <UART_Init+0x150>)
     a5e:	60fb      	str	r3, [r7, #12]
     a60:	f44f 33e1 	mov.w	r3, #115200	@ 0x1c200
     a64:	60bb      	str	r3, [r7, #8]
     a66:	68bb      	ldr	r3, [r7, #8]
     a68:	011b      	lsls	r3, r3, #4
     a6a:	68fa      	ldr	r2, [r7, #12]
     a6c:	fbb2 f3f3 	udiv	r3, r2, r3
     a70:	607b      	str	r3, [r7, #4]
     a72:	68fb      	ldr	r3, [r7, #12]
     a74:	ee07 3a90 	vmov	s15, r3
     a78:	eef8 6a67 	vcvt.f32.u32	s13, s15
     a7c:	68bb      	ldr	r3, [r7, #8]
     a7e:	ee07 3a90 	vmov	s15, r3
     a82:	eef8 7a67 	vcvt.f32.u32	s15, s15
     a86:	eeb3 7a00 	vmov.f32	s14, #48	@ 0x41800000  16.0
     a8a:	ee67 7a87 	vmul.f32	s15, s15, s14
     a8e:	ee86 7aa7 	vdiv.f32	s14, s13, s15
     a92:	687b      	ldr	r3, [r7, #4]
     a94:	ee07 3a90 	vmov	s15, r3
     a98:	eef8 7a67 	vcvt.f32.u32	s15, s15
     a9c:	ee77 7a67 	vsub.f32	s15, s14, s15
     aa0:	ed9f 7a26 	vldr	s14, [pc, #152]	@ b3c <UART_Init+0x154>
     aa4:	ee67 7a87 	vmul.f32	s15, s15, s14
     aa8:	4b25      	ldr	r3, [pc, #148]	@ (b40 <UART_Init+0x158>)
     aaa:	ee17 0a90 	vmov	r0, s15
     aae:	4798      	blx	r3
     ab0:	4c24      	ldr	r4, [pc, #144]	@ (b44 <UART_Init+0x15c>)
     ab2:	f04f 0200 	mov.w	r2, #0
     ab6:	4b24      	ldr	r3, [pc, #144]	@ (b48 <UART_Init+0x160>)
     ab8:	47a0      	blx	r4
     aba:	4602      	mov	r2, r0
     abc:	460b      	mov	r3, r1
     abe:	4c23      	ldr	r4, [pc, #140]	@ (b4c <UART_Init+0x164>)
     ac0:	4610      	mov	r0, r2
     ac2:	4619      	mov	r1, r3
     ac4:	47a0      	blx	r4
     ac6:	4603      	mov	r3, r0
     ac8:	603b      	str	r3, [r7, #0]
     aca:	4a21      	ldr	r2, [pc, #132]	@ (b50 <UART_Init+0x168>)
     acc:	687b      	ldr	r3, [r7, #4]
     ace:	6253      	str	r3, [r2, #36]	@ 0x24
     ad0:	4a1f      	ldr	r2, [pc, #124]	@ (b50 <UART_Init+0x168>)
     ad2:	683b      	ldr	r3, [r7, #0]
     ad4:	6293      	str	r3, [r2, #40]	@ 0x28
     ad6:	4a1e      	ldr	r2, [pc, #120]	@ (b50 <UART_Init+0x168>)
     ad8:	f892 302c 	ldrb.w	r3, [r2, #44]	@ 0x2c
     adc:	f043 0360 	orr.w	r3, r3, #96	@ 0x60
     ae0:	f882 302c 	strb.w	r3, [r2, #44]	@ 0x2c
     ae4:	4a1a      	ldr	r2, [pc, #104]	@ (b50 <UART_Init+0x168>)
     ae6:	f892 302c 	ldrb.w	r3, [r2, #44]	@ 0x2c
     aea:	f023 0308 	bic.w	r3, r3, #8
     aee:	f882 302c 	strb.w	r3, [r2, #44]	@ 0x2c
     af2:	4a17      	ldr	r2, [pc, #92]	@ (b50 <UART_Init+0x168>)
     af4:	8e13      	ldrh	r3, [r2, #48]	@ 0x30
     af6:	f443 7300 	orr.w	r3, r3, #512	@ 0x200
     afa:	8613      	strh	r3, [r2, #48]	@ 0x30
     afc:	4a14      	ldr	r2, [pc, #80]	@ (b50 <UART_Init+0x168>)
     afe:	8e13      	ldrh	r3, [r2, #48]	@ 0x30
     b00:	f443 7380 	orr.w	r3, r3, #256	@ 0x100
     b04:	8613      	strh	r3, [r2, #48]	@ 0x30
     b06:	4a12      	ldr	r2, [pc, #72]	@ (b50 <UART_Init+0x168>)
     b08:	8f13      	ldrh	r3, [r2, #56]	@ 0x38
     b0a:	f043 0310 	orr.w	r3, r3, #16
     b0e:	8713      	strh	r3, [r2, #56]	@ 0x38
     b10:	2100      	movs	r1, #0
     b12:	201a      	movs	r0, #26
     b14:	4b0f      	ldr	r3, [pc, #60]	@ (b54 <UART_Init+0x16c>)
     b16:	4798      	blx	r3
     b18:	201a      	movs	r0, #26
     b1a:	4b0f      	ldr	r3, [pc, #60]	@ (b58 <UART_Init+0x170>)
     b1c:	4798      	blx	r3
     b1e:	4a0c      	ldr	r2, [pc, #48]	@ (b50 <UART_Init+0x168>)
     b20:	8e13      	ldrh	r3, [r2, #48]	@ 0x30
     b22:	f043 0301 	orr.w	r3, r3, #1
     b26:	8613      	strh	r3, [r2, #48]	@ 0x30
     b28:	bf00      	nop
     b2a:	3714      	adds	r7, #20
     b2c:	46bd      	mov	sp, r7
     b2e:	bd90      	pop	{r4, r7, pc}
     b30:	40041000 			@ <UNDEFINED> instruction: 40041000
     b34:	40011000 			@ <UNDEFINED> instruction: 40011000
     b38:	05f5e100 			@ <UNDEFINED> instruction: 05f5e100
     b3c:	42800000 			@ <UNDEFINED> instruction: 42800000
     b40:	00000f75 			@ <UNDEFINED> instruction: 00000f75
     b44:	00000cb9 			@ <UNDEFINED> instruction: 00000cb9
     b48:	3fe00000 			@ <UNDEFINED> instruction: 3fe00000
     b4c:	00001025 			@ <UNDEFINED> instruction: 00001025
     b50:	40045000 			@ <UNDEFINED> instruction: 40045000
     b54:	00000755 			@ <UNDEFINED> instruction: 00000755
     b58:	00000719 			@ <UNDEFINED> instruction: 00000719

00000b5c <UART0_RX_IRQHandler>:
     b5c:	b580      	push	{r7, lr}
     b5e:	b082      	sub	sp, #8
     b60:	af00      	add	r7, sp, #0
     b62:	4b16      	ldr	r3, [pc, #88]	@ (bbc <UART0_RX_IRQHandler+0x60>)
     b64:	4798      	blx	r3
     b66:	4b16      	ldr	r3, [pc, #88]	@ (bc0 <UART0_RX_IRQHandler+0x64>)
     b68:	881b      	ldrh	r3, [r3, #0]
     b6a:	b29b      	uxth	r3, r3
     b6c:	2bff      	cmp	r3, #255	@ 0xff
     b6e:	d81a      	bhi.n	ba6 <UART0_RX_IRQHandler+0x4a>
     b70:	4b14      	ldr	r3, [pc, #80]	@ (bc4 <UART0_RX_IRQHandler+0x68>)
     b72:	681b      	ldr	r3, [r3, #0]
     b74:	71fb      	strb	r3, [r7, #7]
     b76:	4b12      	ldr	r3, [pc, #72]	@ (bc0 <UART0_RX_IRQHandler+0x64>)
     b78:	881b      	ldrh	r3, [r3, #0]
     b7a:	b29b      	uxth	r3, r3
     b7c:	4619      	mov	r1, r3
     b7e:	4a12      	ldr	r2, [pc, #72]	@ (bc8 <UART0_RX_IRQHandler+0x6c>)
     b80:	79fb      	ldrb	r3, [r7, #7]
     b82:	5453      	strb	r3, [r2, r1]
     b84:	79fb      	ldrb	r3, [r7, #7]
     b86:	2b0a      	cmp	r3, #10
     b88:	d106      	bne.n	b98 <UART0_RX_IRQHandler+0x3c>
     b8a:	4b0d      	ldr	r3, [pc, #52]	@ (bc0 <UART0_RX_IRQHandler+0x64>)
     b8c:	2200      	movs	r2, #0
     b8e:	801a      	strh	r2, [r3, #0]
     b90:	4b0e      	ldr	r3, [pc, #56]	@ (bcc <UART0_RX_IRQHandler+0x70>)
     b92:	2201      	movs	r2, #1
     b94:	701a      	strb	r2, [r3, #0]
     b96:	e006      	b.n	ba6 <UART0_RX_IRQHandler+0x4a>
     b98:	4b09      	ldr	r3, [pc, #36]	@ (bc0 <UART0_RX_IRQHandler+0x64>)
     b9a:	881b      	ldrh	r3, [r3, #0]
     b9c:	b29b      	uxth	r3, r3
     b9e:	3301      	adds	r3, #1
     ba0:	b29a      	uxth	r2, r3
     ba2:	4b07      	ldr	r3, [pc, #28]	@ (bc0 <UART0_RX_IRQHandler+0x64>)
     ba4:	801a      	strh	r2, [r3, #0]
     ba6:	4a07      	ldr	r2, [pc, #28]	@ (bc4 <UART0_RX_IRQHandler+0x68>)
     ba8:	f8b2 3044 	ldrh.w	r3, [r2, #68]	@ 0x44
     bac:	f043 0310 	orr.w	r3, r3, #16
     bb0:	f8a2 3044 	strh.w	r3, [r2, #68]	@ 0x44
     bb4:	bf00      	nop
     bb6:	3708      	adds	r7, #8
     bb8:	46bd      	mov	sp, r7
     bba:	bd80      	pop	{r7, pc}
     bbc:	00000895 			@ <UNDEFINED> instruction: 00000895
     bc0:	2000035c 			@ <UNDEFINED> instruction: 2000035c
     bc4:	40045000 			@ <UNDEFINED> instruction: 40045000
     bc8:	2000025c 			@ <UNDEFINED> instruction: 2000025c
     bcc:	2000035e 			@ <UNDEFINED> instruction: 2000035e

00000bd0 <UART_SendByte>:
     bd0:	b480      	push	{r7}
     bd2:	b085      	sub	sp, #20
     bd4:	af00      	add	r7, sp, #0
     bd6:	6078      	str	r0, [r7, #4]
     bd8:	4b0e      	ldr	r3, [pc, #56]	@ (c14 <Stack_Size+0x14>)
     bda:	60fb      	str	r3, [r7, #12]
     bdc:	bf00      	nop
     bde:	4b0e      	ldr	r3, [pc, #56]	@ (c18 <Stack_Size+0x18>)
     be0:	699b      	ldr	r3, [r3, #24]
     be2:	f3c3 03c0 	ubfx	r3, r3, #3, #1
     be6:	b2db      	uxtb	r3, r3
     be8:	2b01      	cmp	r3, #1
     bea:	d104      	bne.n	bf6 <UART_SendByte+0x26>
     bec:	68fb      	ldr	r3, [r7, #12]
     bee:	1e5a      	subs	r2, r3, #1
     bf0:	60fa      	str	r2, [r7, #12]
     bf2:	2b00      	cmp	r3, #0
     bf4:	d1f3      	bne.n	bde <UART_SendByte+0xe>
     bf6:	68fb      	ldr	r3, [r7, #12]
     bf8:	2b00      	cmp	r3, #0
     bfa:	d004      	beq.n	c06 <Stack_Size+0x6>
     bfc:	687b      	ldr	r3, [r7, #4]
     bfe:	781a      	ldrb	r2, [r3, #0]
     c00:	4b05      	ldr	r3, [pc, #20]	@ (c18 <Stack_Size+0x18>)
     c02:	601a      	str	r2, [r3, #0]
     c04:	e000      	b.n	c08 <Stack_Size+0x8>
     c06:	bf00      	nop
     c08:	3714      	adds	r7, #20
     c0a:	46bd      	mov	sp, r7
     c0c:	f85d 7b04 	ldr.w	r7, [sp], #4
     c10:	4770      	bx	lr
     c12:	bf00      	nop
     c14:	000f4240 			@ <UNDEFINED> instruction: 000f4240
     c18:	40045000 			@ <UNDEFINED> instruction: 40045000

00000c1c <UART_SendMessage>:
     c1c:	b580      	push	{r7, lr}
     c1e:	b084      	sub	sp, #16
     c20:	af00      	add	r7, sp, #0
     c22:	6078      	str	r0, [r7, #4]
     c24:	460b      	mov	r3, r1
     c26:	807b      	strh	r3, [r7, #2]
     c28:	2300      	movs	r3, #0
     c2a:	60fb      	str	r3, [r7, #12]
     c2c:	e008      	b.n	c40 <UART_SendMessage+0x24>
     c2e:	68fb      	ldr	r3, [r7, #12]
     c30:	687a      	ldr	r2, [r7, #4]
     c32:	4413      	add	r3, r2
     c34:	4618      	mov	r0, r3
     c36:	4b07      	ldr	r3, [pc, #28]	@ (c54 <UART_SendMessage+0x38>)
     c38:	4798      	blx	r3
     c3a:	68fb      	ldr	r3, [r7, #12]
     c3c:	3301      	adds	r3, #1
     c3e:	60fb      	str	r3, [r7, #12]
     c40:	887b      	ldrh	r3, [r7, #2]
     c42:	68fa      	ldr	r2, [r7, #12]
     c44:	429a      	cmp	r2, r3
     c46:	dbf2      	blt.n	c2e <UART_SendMessage+0x12>
     c48:	bf00      	nop
     c4a:	bf00      	nop
     c4c:	3710      	adds	r7, #16
     c4e:	46bd      	mov	sp, r7
     c50:	bd80      	pop	{r7, pc}
     c52:	bf00      	nop
     c54:	00000bd1 	ldrdeq	r0, [r0], -r1

00000c58 <Reset_Handler>:
     c58:	4c0f      	ldr	r4, [pc, #60]	@ (c98 <Reset_Handler+0x40>)
     c5a:	4d10      	ldr	r5, [pc, #64]	@ (c9c <Reset_Handler+0x44>)
     c5c:	42ac      	cmp	r4, r5
     c5e:	da09      	bge.n	c74 <Reset_Handler+0x1c>
     c60:	6821      	ldr	r1, [r4, #0]
     c62:	6862      	ldr	r2, [r4, #4]
     c64:	68a3      	ldr	r3, [r4, #8]
     c66:	3b04      	subs	r3, #4
     c68:	bfa2      	ittt	ge
     c6a:	58c8      	ldrge	r0, [r1, r3]
     c6c:	50d0      	strge	r0, [r2, r3]
     c6e:	e7fa      	bge.n	c66 <Reset_Handler+0xe>
     c70:	340c      	adds	r4, #12
     c72:	e7f3      	b.n	c5c <Reset_Handler+0x4>
     c74:	4b0a      	ldr	r3, [pc, #40]	@ (ca0 <Reset_Handler+0x48>)
     c76:	4c0b      	ldr	r4, [pc, #44]	@ (ca4 <Reset_Handler+0x4c>)
     c78:	42a3      	cmp	r3, r4
     c7a:	da08      	bge.n	c8e <Reset_Handler+0x36>
     c7c:	6819      	ldr	r1, [r3, #0]
     c7e:	685a      	ldr	r2, [r3, #4]
     c80:	2000      	movs	r0, #0
     c82:	3a04      	subs	r2, #4
     c84:	bfa4      	itt	ge
     c86:	5088      	strge	r0, [r1, r2]
     c88:	e7fb      	bge.n	c82 <Reset_Handler+0x2a>
     c8a:	3308      	adds	r3, #8
     c8c:	e7f4      	b.n	c78 <Reset_Handler+0x20>
     c8e:	f7ff fd37 	bl	700 <SystemInit>
     c92:	f7ff fa85 	bl	1a0 <_mainCRTStartup>
     c96:	11800000 			@ <UNDEFINED> instruction: 11800000
     c9a:	118c0000 			@ <UNDEFINED> instruction: 118c0000
     c9e:	118c0000 			@ <UNDEFINED> instruction: 118c0000
     ca2:	11940000 			@ <UNDEFINED> instruction: 11940000
	...

00000ca8 <ADC_DC_IRQHandler>:
     ca8:	e7fe      	b.n	ca8 <ADC_DC_IRQHandler>
     caa:	bf00      	nop

00000cac <__aeabi_drsub>:
     cac:	f081 4100 	eor.w	r1, r1, #2147483648	@ 0x80000000
     cb0:	e002      	b.n	cb8 <__adddf3>
     cb2:	bf00      	nop

00000cb4 <__aeabi_dsub>:
     cb4:	f083 4300 	eor.w	r3, r3, #2147483648	@ 0x80000000

00000cb8 <__adddf3>:
     cb8:	b530      	push	{r4, r5, lr}
     cba:	ea4f 0441 	mov.w	r4, r1, lsl #1
     cbe:	ea4f 0543 	mov.w	r5, r3, lsl #1
     cc2:	ea94 0f05 	teq	r4, r5
     cc6:	bf08      	it	eq
     cc8:	ea90 0f02 	teqeq	r0, r2
     ccc:	bf1f      	itttt	ne
     cce:	ea54 0c00 	orrsne.w	ip, r4, r0
     cd2:	ea55 0c02 	orrsne.w	ip, r5, r2
     cd6:	ea7f 5c64 	mvnsne.w	ip, r4, asr #21
     cda:	ea7f 5c65 	mvnsne.w	ip, r5, asr #21
     cde:	f000 80e2 	beq.w	ea6 <__adddf3+0x1ee>
     ce2:	ea4f 5454 	mov.w	r4, r4, lsr #21
     ce6:	ebd4 5555 	rsbs	r5, r4, r5, lsr #21
     cea:	bfb8      	it	lt
     cec:	426d      	neglt	r5, r5
     cee:	dd0c      	ble.n	d0a <__adddf3+0x52>
     cf0:	442c      	add	r4, r5
     cf2:	ea80 0202 	eor.w	r2, r0, r2
     cf6:	ea81 0303 	eor.w	r3, r1, r3
     cfa:	ea82 0000 	eor.w	r0, r2, r0
     cfe:	ea83 0101 	eor.w	r1, r3, r1
     d02:	ea80 0202 	eor.w	r2, r0, r2
     d06:	ea81 0303 	eor.w	r3, r1, r3
     d0a:	2d36      	cmp	r5, #54	@ 0x36
     d0c:	bf88      	it	hi
     d0e:	bd30      	pophi	{r4, r5, pc}
     d10:	f011 4f00 	tst.w	r1, #2147483648	@ 0x80000000
     d14:	ea4f 3101 	mov.w	r1, r1, lsl #12
     d18:	f44f 1c80 	mov.w	ip, #1048576	@ 0x100000
     d1c:	ea4c 3111 	orr.w	r1, ip, r1, lsr #12
     d20:	d002      	beq.n	d28 <__adddf3+0x70>
     d22:	4240      	negs	r0, r0
     d24:	eb61 0141 	sbc.w	r1, r1, r1, lsl #1
     d28:	f013 4f00 	tst.w	r3, #2147483648	@ 0x80000000
     d2c:	ea4f 3303 	mov.w	r3, r3, lsl #12
     d30:	ea4c 3313 	orr.w	r3, ip, r3, lsr #12
     d34:	d002      	beq.n	d3c <__adddf3+0x84>
     d36:	4252      	negs	r2, r2
     d38:	eb63 0343 	sbc.w	r3, r3, r3, lsl #1
     d3c:	ea94 0f05 	teq	r4, r5
     d40:	f000 80a7 	beq.w	e92 <__adddf3+0x1da>
     d44:	f1a4 0401 	sub.w	r4, r4, #1
     d48:	f1d5 0e20 	rsbs	lr, r5, #32
     d4c:	db0d      	blt.n	d6a <__adddf3+0xb2>
     d4e:	fa02 fc0e 	lsl.w	ip, r2, lr
     d52:	fa22 f205 	lsr.w	r2, r2, r5
     d56:	1880      	adds	r0, r0, r2
     d58:	f141 0100 	adc.w	r1, r1, #0
     d5c:	fa03 f20e 	lsl.w	r2, r3, lr
     d60:	1880      	adds	r0, r0, r2
     d62:	fa43 f305 	asr.w	r3, r3, r5
     d66:	4159      	adcs	r1, r3
     d68:	e00e      	b.n	d88 <__adddf3+0xd0>
     d6a:	f1a5 0520 	sub.w	r5, r5, #32
     d6e:	f10e 0e20 	add.w	lr, lr, #32
     d72:	2a01      	cmp	r2, #1
     d74:	fa03 fc0e 	lsl.w	ip, r3, lr
     d78:	bf28      	it	cs
     d7a:	f04c 0c02 	orrcs.w	ip, ip, #2
     d7e:	fa43 f305 	asr.w	r3, r3, r5
     d82:	18c0      	adds	r0, r0, r3
     d84:	eb51 71e3 	adcs.w	r1, r1, r3, asr #31
     d88:	f001 4500 	and.w	r5, r1, #2147483648	@ 0x80000000
     d8c:	d507      	bpl.n	d9e <__adddf3+0xe6>
     d8e:	f04f 0e00 	mov.w	lr, #0
     d92:	f1dc 0c00 	rsbs	ip, ip, #0
     d96:	eb7e 0000 	sbcs.w	r0, lr, r0
     d9a:	eb6e 0101 	sbc.w	r1, lr, r1
     d9e:	f5b1 1f80 	cmp.w	r1, #1048576	@ 0x100000
     da2:	d31b      	bcc.n	ddc <__adddf3+0x124>
     da4:	f5b1 1f00 	cmp.w	r1, #2097152	@ 0x200000
     da8:	d30c      	bcc.n	dc4 <__adddf3+0x10c>
     daa:	0849      	lsrs	r1, r1, #1
     dac:	ea5f 0030 	movs.w	r0, r0, rrx
     db0:	ea4f 0c3c 	mov.w	ip, ip, rrx
     db4:	f104 0401 	add.w	r4, r4, #1
     db8:	ea4f 5244 	mov.w	r2, r4, lsl #21
     dbc:	f512 0f80 	cmn.w	r2, #4194304	@ 0x400000
     dc0:	f080 809a 	bcs.w	ef8 <__adddf3+0x240>
     dc4:	f1bc 4f00 	cmp.w	ip, #2147483648	@ 0x80000000
     dc8:	bf08      	it	eq
     dca:	ea5f 0c50 	movseq.w	ip, r0, lsr #1
     dce:	f150 0000 	adcs.w	r0, r0, #0
     dd2:	eb41 5104 	adc.w	r1, r1, r4, lsl #20
     dd6:	ea41 0105 	orr.w	r1, r1, r5
     dda:	bd30      	pop	{r4, r5, pc}
     ddc:	ea5f 0c4c 	movs.w	ip, ip, lsl #1
     de0:	4140      	adcs	r0, r0
     de2:	eb41 0101 	adc.w	r1, r1, r1
     de6:	3c01      	subs	r4, #1
     de8:	bf28      	it	cs
     dea:	f5b1 1f80 	cmpcs.w	r1, #1048576	@ 0x100000
     dee:	d2e9      	bcs.n	dc4 <__adddf3+0x10c>
     df0:	f091 0f00 	teq	r1, #0
     df4:	bf04      	itt	eq
     df6:	4601      	moveq	r1, r0
     df8:	2000      	moveq	r0, #0
     dfa:	fab1 f381 	clz	r3, r1
     dfe:	bf08      	it	eq
     e00:	3320      	addeq	r3, #32
     e02:	f1a3 030b 	sub.w	r3, r3, #11
     e06:	f1b3 0220 	subs.w	r2, r3, #32
     e0a:	da0c      	bge.n	e26 <__adddf3+0x16e>
     e0c:	320c      	adds	r2, #12
     e0e:	dd08      	ble.n	e22 <__adddf3+0x16a>
     e10:	f102 0c14 	add.w	ip, r2, #20
     e14:	f1c2 020c 	rsb	r2, r2, #12
     e18:	fa01 f00c 	lsl.w	r0, r1, ip
     e1c:	fa21 f102 	lsr.w	r1, r1, r2
     e20:	e00c      	b.n	e3c <__adddf3+0x184>
     e22:	f102 0214 	add.w	r2, r2, #20
     e26:	bfd8      	it	le
     e28:	f1c2 0c20 	rsble	ip, r2, #32
     e2c:	fa01 f102 	lsl.w	r1, r1, r2
     e30:	fa20 fc0c 	lsr.w	ip, r0, ip
     e34:	bfdc      	itt	le
     e36:	ea41 010c 	orrle.w	r1, r1, ip
     e3a:	4090      	lslle	r0, r2
     e3c:	1ae4      	subs	r4, r4, r3
     e3e:	bfa2      	ittt	ge
     e40:	eb01 5104 	addge.w	r1, r1, r4, lsl #20
     e44:	4329      	orrge	r1, r5
     e46:	bd30      	popge	{r4, r5, pc}
     e48:	ea6f 0404 	mvn.w	r4, r4
     e4c:	3c1f      	subs	r4, #31
     e4e:	da1c      	bge.n	e8a <__adddf3+0x1d2>
     e50:	340c      	adds	r4, #12
     e52:	dc0e      	bgt.n	e72 <__adddf3+0x1ba>
     e54:	f104 0414 	add.w	r4, r4, #20
     e58:	f1c4 0220 	rsb	r2, r4, #32
     e5c:	fa20 f004 	lsr.w	r0, r0, r4
     e60:	fa01 f302 	lsl.w	r3, r1, r2
     e64:	ea40 0003 	orr.w	r0, r0, r3
     e68:	fa21 f304 	lsr.w	r3, r1, r4
     e6c:	ea45 0103 	orr.w	r1, r5, r3
     e70:	bd30      	pop	{r4, r5, pc}
     e72:	f1c4 040c 	rsb	r4, r4, #12
     e76:	f1c4 0220 	rsb	r2, r4, #32
     e7a:	fa20 f002 	lsr.w	r0, r0, r2
     e7e:	fa01 f304 	lsl.w	r3, r1, r4
     e82:	ea40 0003 	orr.w	r0, r0, r3
     e86:	4629      	mov	r1, r5
     e88:	bd30      	pop	{r4, r5, pc}
     e8a:	fa21 f004 	lsr.w	r0, r1, r4
     e8e:	4629      	mov	r1, r5
     e90:	bd30      	pop	{r4, r5, pc}
     e92:	f094 0f00 	teq	r4, #0
     e96:	f483 1380 	eor.w	r3, r3, #1048576	@ 0x100000
     e9a:	bf06      	itte	eq
     e9c:	f481 1180 	eoreq.w	r1, r1, #1048576	@ 0x100000
     ea0:	3401      	addeq	r4, #1
     ea2:	3d01      	subne	r5, #1
     ea4:	e74e      	b.n	d44 <__adddf3+0x8c>
     ea6:	ea7f 5c64 	mvns.w	ip, r4, asr #21
     eaa:	bf18      	it	ne
     eac:	ea7f 5c65 	mvnsne.w	ip, r5, asr #21
     eb0:	d029      	beq.n	f06 <__adddf3+0x24e>
     eb2:	ea94 0f05 	teq	r4, r5
     eb6:	bf08      	it	eq
     eb8:	ea90 0f02 	teqeq	r0, r2
     ebc:	d005      	beq.n	eca <__adddf3+0x212>
     ebe:	ea54 0c00 	orrs.w	ip, r4, r0
     ec2:	bf04      	itt	eq
     ec4:	4619      	moveq	r1, r3
     ec6:	4610      	moveq	r0, r2
     ec8:	bd30      	pop	{r4, r5, pc}
     eca:	ea91 0f03 	teq	r1, r3
     ece:	bf1e      	ittt	ne
     ed0:	2100      	movne	r1, #0
     ed2:	2000      	movne	r0, #0
     ed4:	bd30      	popne	{r4, r5, pc}
     ed6:	ea5f 5c54 	movs.w	ip, r4, lsr #21
     eda:	d105      	bne.n	ee8 <__adddf3+0x230>
     edc:	0040      	lsls	r0, r0, #1
     ede:	4149      	adcs	r1, r1
     ee0:	bf28      	it	cs
     ee2:	f041 4100 	orrcs.w	r1, r1, #2147483648	@ 0x80000000
     ee6:	bd30      	pop	{r4, r5, pc}
     ee8:	f514 0480 	adds.w	r4, r4, #4194304	@ 0x400000
     eec:	bf3c      	itt	cc
     eee:	f501 1180 	addcc.w	r1, r1, #1048576	@ 0x100000
     ef2:	bd30      	popcc	{r4, r5, pc}
     ef4:	f001 4500 	and.w	r5, r1, #2147483648	@ 0x80000000
     ef8:	f045 41fe 	orr.w	r1, r5, #2130706432	@ 0x7f000000
     efc:	f441 0170 	orr.w	r1, r1, #15728640	@ 0xf00000
     f00:	f04f 0000 	mov.w	r0, #0
     f04:	bd30      	pop	{r4, r5, pc}
     f06:	ea7f 5c64 	mvns.w	ip, r4, asr #21
     f0a:	bf1a      	itte	ne
     f0c:	4619      	movne	r1, r3
     f0e:	4610      	movne	r0, r2
     f10:	ea7f 5c65 	mvnseq.w	ip, r5, asr #21
     f14:	bf1c      	itt	ne
     f16:	460b      	movne	r3, r1
     f18:	4602      	movne	r2, r0
     f1a:	ea50 3401 	orrs.w	r4, r0, r1, lsl #12
     f1e:	bf06      	itte	eq
     f20:	ea52 3503 	orrseq.w	r5, r2, r3, lsl #12
     f24:	ea91 0f03 	teqeq	r1, r3
     f28:	f441 2100 	orrne.w	r1, r1, #524288	@ 0x80000
     f2c:	bd30      	pop	{r4, r5, pc}
     f2e:	bf00      	nop

00000f30 <__aeabi_ui2d>:
     f30:	f090 0f00 	teq	r0, #0
     f34:	bf04      	itt	eq
     f36:	2100      	moveq	r1, #0
     f38:	4770      	bxeq	lr
     f3a:	b530      	push	{r4, r5, lr}
     f3c:	f44f 6480 	mov.w	r4, #1024	@ 0x400
     f40:	f104 0432 	add.w	r4, r4, #50	@ 0x32
     f44:	f04f 0500 	mov.w	r5, #0
     f48:	f04f 0100 	mov.w	r1, #0
     f4c:	e750      	b.n	df0 <__adddf3+0x138>
     f4e:	bf00      	nop

00000f50 <__aeabi_i2d>:
     f50:	f090 0f00 	teq	r0, #0
     f54:	bf04      	itt	eq
     f56:	2100      	moveq	r1, #0
     f58:	4770      	bxeq	lr
     f5a:	b530      	push	{r4, r5, lr}
     f5c:	f44f 6480 	mov.w	r4, #1024	@ 0x400
     f60:	f104 0432 	add.w	r4, r4, #50	@ 0x32
     f64:	f010 4500 	ands.w	r5, r0, #2147483648	@ 0x80000000
     f68:	bf48      	it	mi
     f6a:	4240      	negmi	r0, r0
     f6c:	f04f 0100 	mov.w	r1, #0
     f70:	e73e      	b.n	df0 <__adddf3+0x138>
     f72:	bf00      	nop

00000f74 <__aeabi_f2d>:
     f74:	0042      	lsls	r2, r0, #1
     f76:	ea4f 01e2 	mov.w	r1, r2, asr #3
     f7a:	ea4f 0131 	mov.w	r1, r1, rrx
     f7e:	ea4f 7002 	mov.w	r0, r2, lsl #28
     f82:	bf1f      	itttt	ne
     f84:	f012 437f 	andsne.w	r3, r2, #4278190080	@ 0xff000000
     f88:	f093 4f7f 	teqne	r3, #4278190080	@ 0xff000000
     f8c:	f081 5160 	eorne.w	r1, r1, #939524096	@ 0x38000000
     f90:	4770      	bxne	lr
     f92:	f032 427f 	bics.w	r2, r2, #4278190080	@ 0xff000000
     f96:	bf08      	it	eq
     f98:	4770      	bxeq	lr
     f9a:	f093 4f7f 	teq	r3, #4278190080	@ 0xff000000
     f9e:	bf04      	itt	eq
     fa0:	f441 2100 	orreq.w	r1, r1, #524288	@ 0x80000
     fa4:	4770      	bxeq	lr
     fa6:	b530      	push	{r4, r5, lr}
     fa8:	f44f 7460 	mov.w	r4, #896	@ 0x380
     fac:	f001 4500 	and.w	r5, r1, #2147483648	@ 0x80000000
     fb0:	f021 4100 	bic.w	r1, r1, #2147483648	@ 0x80000000
     fb4:	e71c      	b.n	df0 <__adddf3+0x138>
     fb6:	bf00      	nop

00000fb8 <__aeabi_ul2d>:
     fb8:	ea50 0201 	orrs.w	r2, r0, r1
     fbc:	bf08      	it	eq
     fbe:	4770      	bxeq	lr
     fc0:	b530      	push	{r4, r5, lr}
     fc2:	f04f 0500 	mov.w	r5, #0
     fc6:	e00a      	b.n	fde <__aeabi_l2d+0x16>

00000fc8 <__aeabi_l2d>:
     fc8:	ea50 0201 	orrs.w	r2, r0, r1
     fcc:	bf08      	it	eq
     fce:	4770      	bxeq	lr
     fd0:	b530      	push	{r4, r5, lr}
     fd2:	f011 4500 	ands.w	r5, r1, #2147483648	@ 0x80000000
     fd6:	d502      	bpl.n	fde <__aeabi_l2d+0x16>
     fd8:	4240      	negs	r0, r0
     fda:	eb61 0141 	sbc.w	r1, r1, r1, lsl #1
     fde:	f44f 6480 	mov.w	r4, #1024	@ 0x400
     fe2:	f104 0432 	add.w	r4, r4, #50	@ 0x32
     fe6:	ea5f 5c91 	movs.w	ip, r1, lsr #22
     fea:	f43f aed8 	beq.w	d9e <__adddf3+0xe6>
     fee:	f04f 0203 	mov.w	r2, #3
     ff2:	ea5f 0cdc 	movs.w	ip, ip, lsr #3
     ff6:	bf18      	it	ne
     ff8:	3203      	addne	r2, #3
     ffa:	ea5f 0cdc 	movs.w	ip, ip, lsr #3
     ffe:	bf18      	it	ne
    1000:	3203      	addne	r2, #3
    1002:	eb02 02dc 	add.w	r2, r2, ip, lsr #3
    1006:	f1c2 0320 	rsb	r3, r2, #32
    100a:	fa00 fc03 	lsl.w	ip, r0, r3
    100e:	fa20 f002 	lsr.w	r0, r0, r2
    1012:	fa01 fe03 	lsl.w	lr, r1, r3
    1016:	ea40 000e 	orr.w	r0, r0, lr
    101a:	fa21 f102 	lsr.w	r1, r1, r2
    101e:	4414      	add	r4, r2
    1020:	e6bd      	b.n	d9e <__adddf3+0xe6>
    1022:	bf00      	nop

00001024 <__aeabi_d2uiz>:
    1024:	004a      	lsls	r2, r1, #1
    1026:	d211      	bcs.n	104c <__aeabi_d2uiz+0x28>
    1028:	f512 1200 	adds.w	r2, r2, #2097152	@ 0x200000
    102c:	d211      	bcs.n	1052 <__aeabi_d2uiz+0x2e>
    102e:	d50d      	bpl.n	104c <__aeabi_d2uiz+0x28>
    1030:	f46f 7378 	mvn.w	r3, #992	@ 0x3e0
    1034:	ebb3 5262 	subs.w	r2, r3, r2, asr #21
    1038:	d40e      	bmi.n	1058 <__aeabi_d2uiz+0x34>
    103a:	ea4f 23c1 	mov.w	r3, r1, lsl #11
    103e:	f043 4300 	orr.w	r3, r3, #2147483648	@ 0x80000000
    1042:	ea43 5350 	orr.w	r3, r3, r0, lsr #21
    1046:	fa23 f002 	lsr.w	r0, r3, r2
    104a:	4770      	bx	lr
    104c:	f04f 0000 	mov.w	r0, #0
    1050:	4770      	bx	lr
    1052:	ea50 3001 	orrs.w	r0, r0, r1, lsl #12
    1056:	d102      	bne.n	105e <__aeabi_d2uiz+0x3a>
    1058:	f04f 30ff 	mov.w	r0, #4294967295
    105c:	4770      	bx	lr
    105e:	f04f 0000 	mov.w	r0, #0
    1062:	4770      	bx	lr
	...

00001080 <strlen>:
    1080:	b430      	push	{r4, r5}
    1082:	f890 f000 	pld	[r0]
    1086:	f020 0107 	bic.w	r1, r0, #7
    108a:	f06f 0c00 	mvn.w	ip, #0
    108e:	f010 0407 	ands.w	r4, r0, #7
    1092:	f891 f020 	pld	[r1, #32]
    1096:	f040 8048 	bne.w	112a <strlen+0xaa>
    109a:	f04f 0400 	mov.w	r4, #0
    109e:	f06f 0007 	mvn.w	r0, #7
    10a2:	e9d1 2300 	ldrd	r2, r3, [r1]
    10a6:	f891 f040 	pld	[r1, #64]	@ 0x40
    10aa:	f100 0008 	add.w	r0, r0, #8
    10ae:	fa82 f24c 	uadd8	r2, r2, ip
    10b2:	faa4 f28c 	sel	r2, r4, ip
    10b6:	fa83 f34c 	uadd8	r3, r3, ip
    10ba:	faa2 f38c 	sel	r3, r2, ip
    10be:	bb4b      	cbnz	r3, 1114 <strlen+0x94>
    10c0:	e9d1 2302 	ldrd	r2, r3, [r1, #8]
    10c4:	fa82 f24c 	uadd8	r2, r2, ip
    10c8:	f100 0008 	add.w	r0, r0, #8
    10cc:	faa4 f28c 	sel	r2, r4, ip
    10d0:	fa83 f34c 	uadd8	r3, r3, ip
    10d4:	faa2 f38c 	sel	r3, r2, ip
    10d8:	b9e3      	cbnz	r3, 1114 <strlen+0x94>
    10da:	e9d1 2304 	ldrd	r2, r3, [r1, #16]
    10de:	fa82 f24c 	uadd8	r2, r2, ip
    10e2:	f100 0008 	add.w	r0, r0, #8
    10e6:	faa4 f28c 	sel	r2, r4, ip
    10ea:	fa83 f34c 	uadd8	r3, r3, ip
    10ee:	faa2 f38c 	sel	r3, r2, ip
    10f2:	b97b      	cbnz	r3, 1114 <strlen+0x94>
    10f4:	e9d1 2306 	ldrd	r2, r3, [r1, #24]
    10f8:	f101 0120 	add.w	r1, r1, #32
    10fc:	fa82 f24c 	uadd8	r2, r2, ip
    1100:	f100 0008 	add.w	r0, r0, #8
    1104:	faa4 f28c 	sel	r2, r4, ip
    1108:	fa83 f34c 	uadd8	r3, r3, ip
    110c:	faa2 f38c 	sel	r3, r2, ip
    1110:	2b00      	cmp	r3, #0
    1112:	d0c6      	beq.n	10a2 <strlen+0x22>
    1114:	2a00      	cmp	r2, #0
    1116:	bf04      	itt	eq
    1118:	3004      	addeq	r0, #4
    111a:	461a      	moveq	r2, r3
    111c:	ba12      	rev	r2, r2
    111e:	fab2 f282 	clz	r2, r2
    1122:	eb00 00d2 	add.w	r0, r0, r2, lsr #3
    1126:	bc30      	pop	{r4, r5}
    1128:	4770      	bx	lr
    112a:	e9d1 2300 	ldrd	r2, r3, [r1]
    112e:	f004 0503 	and.w	r5, r4, #3
    1132:	f1c4 0000 	rsb	r0, r4, #0
    1136:	ea4f 05c5 	mov.w	r5, r5, lsl #3
    113a:	f014 0f04 	tst.w	r4, #4
    113e:	f891 f040 	pld	[r1, #64]	@ 0x40
    1142:	fa0c f505 	lsl.w	r5, ip, r5
    1146:	ea62 0205 	orn	r2, r2, r5
    114a:	bf1c      	itt	ne
    114c:	ea63 0305 	ornne	r3, r3, r5
    1150:	4662      	movne	r2, ip
    1152:	f04f 0400 	mov.w	r4, #0
    1156:	e7aa      	b.n	10ae <strlen+0x2e>

00001158 <_exit>:
    1158:	e7fe      	b.n	1158 <_exit>
    115a:	bf00      	nop

0000115c <_init>:
    115c:	b5f8      	push	{r3, r4, r5, r6, r7, lr}
    115e:	bf00      	nop
    1160:	bcf8      	pop	{r3, r4, r5, r6, r7}
    1162:	bc08      	pop	{r3}
    1164:	469e      	mov	lr, r3
    1166:	4770      	bx	lr

00001168 <_fini>:
    1168:	b5f8      	push	{r3, r4, r5, r6, r7, lr}
    116a:	bf00      	nop
    116c:	bcf8      	pop	{r3, r4, r5, r6, r7}
    116e:	bc08      	pop	{r3}
    1170:	469e      	mov	lr, r3
    1172:	4770      	bx	lr

00001174 <__EH_FRAME_BEGIN__>:
    1174:	00000000 			@ <UNDEFINED> instruction: 00000000

Disassembly of section .copy.table:

00001180 <__copy_table_start__>:
    1180:	00001194 			@ <UNDEFINED> instruction: 00001194
    1184:	20000000 			@ <UNDEFINED> instruction: 20000000
    1188:	0000004c 			@ <UNDEFINED> instruction: 0000004c

Disassembly of section .zero.table:

0000118c <__zero_table_start__>:
    118c:	2000004c 			@ <UNDEFINED> instruction: 2000004c
    1190:	00000314 			@ <UNDEFINED> instruction: 00000314
